
a.out:     file format elf32-littleriscv


Disassembly of section .text:

00010074 <__stack_chk_init>:
   10074:	1cc1a703          	lw	a4,460(gp) # 1ec04 <__stack_chk_guard>
   10078:	e709                	bnez	a4,10082 <__stack_chk_init+0xe>
   1007a:	ff0a0737          	lui	a4,0xff0a0
   1007e:	1ce1a623          	sw	a4,460(gp) # 1ec04 <__stack_chk_guard>
   10082:	8082                	ret

00010084 <_start>:
   10084:	0000f197          	auipc	gp,0xf
   10088:	9b418193          	addi	gp,gp,-1612 # 1ea38 <__global_pointer$>
   1008c:	1cc18513          	addi	a0,gp,460 # 1ec04 <__stack_chk_guard>
   10090:	22c18613          	addi	a2,gp,556 # 1ec64 <__BSS_END__>
   10094:	8e09                	sub	a2,a2,a0
   10096:	4581                	li	a1,0
   10098:	243d                	jal	102c6 <memset>
   1009a:	00000517          	auipc	a0,0x0
   1009e:	18650513          	addi	a0,a0,390 # 10220 <__libc_fini_array>
   100a2:	2a91                	jal	101f6 <atexit>
   100a4:	22c9                	jal	10266 <__libc_init_array>
   100a6:	4502                	lw	a0,0(sp)
   100a8:	004c                	addi	a1,sp,4
   100aa:	4601                	li	a2,0
   100ac:	2a01                	jal	101bc <main>
   100ae:	aa91                	j	10202 <exit>

000100b0 <_fini>:
   100b0:	8082                	ret

000100b2 <deregister_tm_clones>:
   100b2:	19c18713          	addi	a4,gp,412 # 1ebd4 <__TMC_END__>
   100b6:	19c18793          	addi	a5,gp,412 # 1ebd4 <__TMC_END__>
   100ba:	00e78963          	beq	a5,a4,100cc <deregister_tm_clones+0x1a>
   100be:	00000313          	li	t1,0
   100c2:	00030563          	beqz	t1,100cc <deregister_tm_clones+0x1a>
   100c6:	19c18513          	addi	a0,gp,412 # 1ebd4 <__TMC_END__>
   100ca:	8302                	jr	t1
   100cc:	8082                	ret

000100ce <register_tm_clones>:
   100ce:	19c18593          	addi	a1,gp,412 # 1ebd4 <__TMC_END__>
   100d2:	19c18793          	addi	a5,gp,412 # 1ebd4 <__TMC_END__>
   100d6:	8d9d                	sub	a1,a1,a5
   100d8:	8589                	srai	a1,a1,0x2
   100da:	4789                	li	a5,2
   100dc:	02f5c5b3          	div	a1,a1,a5
   100e0:	c981                	beqz	a1,100f0 <register_tm_clones+0x22>
   100e2:	00000313          	li	t1,0
   100e6:	00030563          	beqz	t1,100f0 <register_tm_clones+0x22>
   100ea:	19c18513          	addi	a0,gp,412 # 1ebd4 <__TMC_END__>
   100ee:	8302                	jr	t1
   100f0:	8082                	ret

000100f2 <__do_global_dtors_aux>:
   100f2:	1e41c703          	lbu	a4,484(gp) # 1ec1c <completed.5248>
   100f6:	e71d                	bnez	a4,10124 <__do_global_dtors_aux+0x32>
   100f8:	1141                	addi	sp,sp,-16
   100fa:	c422                	sw	s0,8(sp)
   100fc:	c606                	sw	ra,12(sp)
   100fe:	843e                	mv	s0,a5
   10100:	3f4d                	jal	100b2 <deregister_tm_clones>
   10102:	00000793          	li	a5,0
   10106:	cb81                	beqz	a5,10116 <__do_global_dtors_aux+0x24>
   10108:	6579                	lui	a0,0x1e
   1010a:	1e850513          	addi	a0,a0,488 # 1e1e8 <__EH_FRAME_BEGIN__>
   1010e:	00000097          	auipc	ra,0x0
   10112:	000000e7          	jalr	zero # 0 <__stack_chk_init-0x10074>
   10116:	4785                	li	a5,1
   10118:	1ef18223          	sb	a5,484(gp) # 1ec1c <completed.5248>
   1011c:	40b2                	lw	ra,12(sp)
   1011e:	4422                	lw	s0,8(sp)
   10120:	0141                	addi	sp,sp,16
   10122:	8082                	ret
   10124:	8082                	ret

00010126 <frame_dummy>:
   10126:	00000793          	li	a5,0
   1012a:	cf91                	beqz	a5,10146 <frame_dummy+0x20>
   1012c:	6579                	lui	a0,0x1e
   1012e:	1141                	addi	sp,sp,-16
   10130:	1e818593          	addi	a1,gp,488 # 1ec20 <object.5253>
   10134:	1e850513          	addi	a0,a0,488 # 1e1e8 <__EH_FRAME_BEGIN__>
   10138:	c606                	sw	ra,12(sp)
   1013a:	00000097          	auipc	ra,0x0
   1013e:	000000e7          	jalr	zero # 0 <__stack_chk_init-0x10074>
   10142:	40b2                	lw	ra,12(sp)
   10144:	0141                	addi	sp,sp,16
   10146:	b761                	j	100ce <register_tm_clones>

00010148 <jiet>:
   10148:	1131                	addi	sp,sp,-20
   1014a:	c006                	sw	ra,0(sp)
   1014c:	c82a                	sw	a0,16(sp)
   1014e:	459d                	li	a1,7
   10150:	c62e                	sw	a1,12(sp)
   10152:	45b2                	lw	a1,12(sp)
   10154:	862e                	mv	a2,a1
   10156:	c432                	sw	a2,8(sp)
   10158:	c82a                	sw	a0,16(sp)
   1015a:	4082                	lw	ra,0(sp)
   1015c:	0151                	addi	sp,sp,20
   1015e:	8532                	mv	a0,a2
   10160:	8082                	ret

00010162 <foo>:
   10162:	fd410113          	addi	sp,sp,-44
   10166:	c006                	sw	ra,0(sp)
   10168:	d42a                	sw	a0,40(sp)
   1016a:	d22e                	sw	a1,36(sp)
   1016c:	4601                	li	a2,0
   1016e:	d032                	sw	a2,32(sp)
   10170:	4681                	li	a3,0
   10172:	ce36                	sw	a3,28(sp)
   10174:	46f2                	lw	a3,28(sp)
   10176:	8736                	mv	a4,a3
   10178:	c83a                	sw	a4,16(sp)
   1017a:	d42a                	sw	a0,40(sp)
   1017c:	4742                	lw	a4,16(sp)
   1017e:	853a                	mv	a0,a4
   10180:	37e1                	jal	10148 <jiet>
   10182:	46f2                	lw	a3,28(sp)
   10184:	86aa                	mv	a3,a0
   10186:	ce36                	sw	a3,28(sp)
   10188:	5602                	lw	a2,32(sp)
   1018a:	480d                	li	a6,3
   1018c:	010627b3          	slt	a5,a2,a6
   10190:	0ff7f793          	andi	a5,a5,255
   10194:	4792                	lw	a5,4(sp)
   10196:	cb91                	beqz	a5,101aa <foo+0x48>
   10198:	46f2                	lw	a3,28(sp)
   1019a:	46f2                	lw	a3,28(sp)
   1019c:	5602                	lw	a2,32(sp)
   1019e:	96b2                	add	a3,a3,a2
   101a0:	5602                	lw	a2,32(sp)
   101a2:	5602                	lw	a2,32(sp)
   101a4:	4885                	li	a7,1
   101a6:	9646                	add	a2,a2,a7
   101a8:	b7c5                	j	10188 <foo+0x26>
   101aa:	46f2                	lw	a3,28(sp)
   101ac:	c62a                	sw	a0,12(sp)
   101ae:	4562                	lw	a0,24(sp)
   101b0:	8536                	mv	a0,a3
   101b2:	cc2a                	sw	a0,24(sp)
   101b4:	4082                	lw	ra,0(sp)
   101b6:	02c10113          	addi	sp,sp,44
   101ba:	8082                	ret

000101bc <main>:
   101bc:	1101                	addi	sp,sp,-32
   101be:	ce06                	sw	ra,28(sp)
   101c0:	cc22                	sw	s0,24(sp)
   101c2:	1000                	addi	s0,sp,32
   101c4:	4795                	li	a5,5
   101c6:	fef42623          	sw	a5,-20(s0)
   101ca:	47a9                	li	a5,10
   101cc:	fef42423          	sw	a5,-24(s0)
   101d0:	fe842583          	lw	a1,-24(s0)
   101d4:	fec42503          	lw	a0,-20(s0)
   101d8:	3769                	jal	10162 <foo>
   101da:	fea42223          	sw	a0,-28(s0)
   101de:	fe442583          	lw	a1,-28(s0)
   101e2:	67f1                	lui	a5,0x1c
   101e4:	2b478513          	addi	a0,a5,692 # 1c2b4 <push_pop_regs+0x3c>
   101e8:	2a75                	jal	103a4 <printf>
   101ea:	4781                	li	a5,0
   101ec:	853e                	mv	a0,a5
   101ee:	40f2                	lw	ra,28(sp)
   101f0:	4462                	lw	s0,24(sp)
   101f2:	6105                	addi	sp,sp,32
   101f4:	8082                	ret

000101f6 <atexit>:
   101f6:	85aa                	mv	a1,a0
   101f8:	4681                	li	a3,0
   101fa:	4601                	li	a2,0
   101fc:	4501                	li	a0,0
   101fe:	1e50106f          	j	11be2 <__register_exitproc>

00010202 <exit>:
   10202:	1141                	addi	sp,sp,-16
   10204:	4581                	li	a1,0
   10206:	c422                	sw	s0,8(sp)
   10208:	c606                	sw	ra,12(sp)
   1020a:	842a                	mv	s0,a0
   1020c:	237010ef          	jal	ra,11c42 <__call_exitprocs>
   10210:	1bc1a503          	lw	a0,444(gp) # 1ebf4 <_global_impure_ptr>
   10214:	5d5c                	lw	a5,60(a0)
   10216:	c391                	beqz	a5,1021a <exit+0x18>
   10218:	9782                	jalr	a5
   1021a:	8522                	mv	a0,s0
   1021c:	27f080ef          	jal	ra,18c9a <_exit>

00010220 <__libc_fini_array>:
   10220:	1101                	addi	sp,sp,-32
   10222:	67f9                	lui	a5,0x1e
   10224:	6779                	lui	a4,0x1e
   10226:	cc22                	sw	s0,24(sp)
   10228:	23070713          	addi	a4,a4,560 # 1e230 <__do_global_dtors_aux_fini_array_entry>
   1022c:	23478413          	addi	s0,a5,564 # 1e234 <__fini_array_end>
   10230:	8c19                	sub	s0,s0,a4
   10232:	ca26                	sw	s1,20(sp)
   10234:	c84a                	sw	s2,16(sp)
   10236:	c64e                	sw	s3,12(sp)
   10238:	ce06                	sw	ra,28(sp)
   1023a:	8409                	srai	s0,s0,0x2
   1023c:	4481                	li	s1,0
   1023e:	23478913          	addi	s2,a5,564
   10242:	59f1                	li	s3,-4
   10244:	00941963          	bne	s0,s1,10256 <__libc_fini_array+0x36>
   10248:	4462                	lw	s0,24(sp)
   1024a:	40f2                	lw	ra,28(sp)
   1024c:	44d2                	lw	s1,20(sp)
   1024e:	4942                	lw	s2,16(sp)
   10250:	49b2                	lw	s3,12(sp)
   10252:	6105                	addi	sp,sp,32
   10254:	bdb1                	j	100b0 <_fini>
   10256:	033487b3          	mul	a5,s1,s3
   1025a:	0485                	addi	s1,s1,1
   1025c:	97ca                	add	a5,a5,s2
   1025e:	ffc7a783          	lw	a5,-4(a5)
   10262:	9782                	jalr	a5
   10264:	b7c5                	j	10244 <__libc_fini_array+0x24>

00010266 <__libc_init_array>:
   10266:	1141                	addi	sp,sp,-16
   10268:	c422                	sw	s0,8(sp)
   1026a:	c226                	sw	s1,4(sp)
   1026c:	6479                	lui	s0,0x1e
   1026e:	64f9                	lui	s1,0x1e
   10270:	22848793          	addi	a5,s1,552 # 1e228 <__frame_dummy_init_array_entry>
   10274:	22840413          	addi	s0,s0,552 # 1e228 <__frame_dummy_init_array_entry>
   10278:	8c1d                	sub	s0,s0,a5
   1027a:	c04a                	sw	s2,0(sp)
   1027c:	c606                	sw	ra,12(sp)
   1027e:	8409                	srai	s0,s0,0x2
   10280:	22848493          	addi	s1,s1,552
   10284:	4901                	li	s2,0
   10286:	02891663          	bne	s2,s0,102b2 <__libc_init_array+0x4c>
   1028a:	64f9                	lui	s1,0x1e
   1028c:	3515                	jal	100b0 <_fini>
   1028e:	6479                	lui	s0,0x1e
   10290:	22848793          	addi	a5,s1,552 # 1e228 <__frame_dummy_init_array_entry>
   10294:	23040413          	addi	s0,s0,560 # 1e230 <__do_global_dtors_aux_fini_array_entry>
   10298:	8c1d                	sub	s0,s0,a5
   1029a:	8409                	srai	s0,s0,0x2
   1029c:	22848493          	addi	s1,s1,552
   102a0:	4901                	li	s2,0
   102a2:	00891d63          	bne	s2,s0,102bc <__libc_init_array+0x56>
   102a6:	40b2                	lw	ra,12(sp)
   102a8:	4422                	lw	s0,8(sp)
   102aa:	4492                	lw	s1,4(sp)
   102ac:	4902                	lw	s2,0(sp)
   102ae:	0141                	addi	sp,sp,16
   102b0:	8082                	ret
   102b2:	409c                	lw	a5,0(s1)
   102b4:	0905                	addi	s2,s2,1
   102b6:	0491                	addi	s1,s1,4
   102b8:	9782                	jalr	a5
   102ba:	b7f1                	j	10286 <__libc_init_array+0x20>
   102bc:	409c                	lw	a5,0(s1)
   102be:	0905                	addi	s2,s2,1
   102c0:	0491                	addi	s1,s1,4
   102c2:	9782                	jalr	a5
   102c4:	bff9                	j	102a2 <__libc_init_array+0x3c>

000102c6 <memset>:
   102c6:	433d                	li	t1,15
   102c8:	872a                	mv	a4,a0
   102ca:	02c37363          	bgeu	t1,a2,102f0 <memset+0x2a>
   102ce:	00f77793          	andi	a5,a4,15
   102d2:	efbd                	bnez	a5,10350 <memset+0x8a>
   102d4:	e5ad                	bnez	a1,1033e <memset+0x78>
   102d6:	ff067693          	andi	a3,a2,-16
   102da:	8a3d                	andi	a2,a2,15
   102dc:	96ba                	add	a3,a3,a4
   102de:	c30c                	sw	a1,0(a4)
   102e0:	c34c                	sw	a1,4(a4)
   102e2:	c70c                	sw	a1,8(a4)
   102e4:	c74c                	sw	a1,12(a4)
   102e6:	0741                	addi	a4,a4,16
   102e8:	fed76be3          	bltu	a4,a3,102de <memset+0x18>
   102ec:	e211                	bnez	a2,102f0 <memset+0x2a>
   102ee:	8082                	ret
   102f0:	40c306b3          	sub	a3,t1,a2
   102f4:	068a                	slli	a3,a3,0x2
   102f6:	00000297          	auipc	t0,0x0
   102fa:	9696                	add	a3,a3,t0
   102fc:	00a68067          	jr	10(a3)
   10300:	00b70723          	sb	a1,14(a4)
   10304:	00b706a3          	sb	a1,13(a4)
   10308:	00b70623          	sb	a1,12(a4)
   1030c:	00b705a3          	sb	a1,11(a4)
   10310:	00b70523          	sb	a1,10(a4)
   10314:	00b704a3          	sb	a1,9(a4)
   10318:	00b70423          	sb	a1,8(a4)
   1031c:	00b703a3          	sb	a1,7(a4)
   10320:	00b70323          	sb	a1,6(a4)
   10324:	00b702a3          	sb	a1,5(a4)
   10328:	00b70223          	sb	a1,4(a4)
   1032c:	00b701a3          	sb	a1,3(a4)
   10330:	00b70123          	sb	a1,2(a4)
   10334:	00b700a3          	sb	a1,1(a4)
   10338:	00b70023          	sb	a1,0(a4)
   1033c:	8082                	ret
   1033e:	0ff5f593          	andi	a1,a1,255
   10342:	00859693          	slli	a3,a1,0x8
   10346:	8dd5                	or	a1,a1,a3
   10348:	01059693          	slli	a3,a1,0x10
   1034c:	8dd5                	or	a1,a1,a3
   1034e:	b761                	j	102d6 <memset+0x10>
   10350:	00279693          	slli	a3,a5,0x2
   10354:	00000297          	auipc	t0,0x0
   10358:	9696                	add	a3,a3,t0
   1035a:	8286                	mv	t0,ra
   1035c:	fa8680e7          	jalr	-88(a3)
   10360:	8096                	mv	ra,t0
   10362:	17c1                	addi	a5,a5,-16
   10364:	8f1d                	sub	a4,a4,a5
   10366:	963e                	add	a2,a2,a5
   10368:	f8c374e3          	bgeu	t1,a2,102f0 <memset+0x2a>
   1036c:	b7a5                	j	102d4 <memset+0xe>

0001036e <_printf_r>:
   1036e:	7139                	addi	sp,sp,-64
   10370:	d432                	sw	a2,40(sp)
   10372:	d636                	sw	a3,44(sp)
   10374:	d83a                	sw	a4,48(sp)
   10376:	da3e                	sw	a5,52(sp)
   10378:	cc22                	sw	s0,24(sp)
   1037a:	dc42                	sw	a6,56(sp)
   1037c:	de46                	sw	a7,60(sp)
   1037e:	1cc1a783          	lw	a5,460(gp) # 1ec04 <__stack_chk_guard>
   10382:	862e                	mv	a2,a1
   10384:	450c                	lw	a1,8(a0)
   10386:	1034                	addi	a3,sp,40
   10388:	c63e                	sw	a5,12(sp)
   1038a:	ce06                	sw	ra,28(sp)
   1038c:	c436                	sw	a3,8(sp)
   1038e:	207d                	jal	1043c <_vfprintf_r>
   10390:	4732                	lw	a4,12(sp)
   10392:	1cc1a783          	lw	a5,460(gp) # 1ec04 <__stack_chk_guard>
   10396:	00f70363          	beq	a4,a5,1039c <_printf_r+0x2e>
   1039a:	20a1                	jal	103e2 <__stack_chk_fail>
   1039c:	40f2                	lw	ra,28(sp)
   1039e:	4462                	lw	s0,24(sp)
   103a0:	6121                	addi	sp,sp,64
   103a2:	8082                	ret

000103a4 <printf>:
   103a4:	7139                	addi	sp,sp,-64
   103a6:	cc22                	sw	s0,24(sp)
   103a8:	da3e                	sw	a5,52(sp)
   103aa:	1cc1a783          	lw	a5,460(gp) # 1ec04 <__stack_chk_guard>
   103ae:	d432                	sw	a2,40(sp)
   103b0:	d636                	sw	a3,44(sp)
   103b2:	c63e                	sw	a5,12(sp)
   103b4:	1c01a783          	lw	a5,448(gp) # 1ebf8 <_impure_ptr>
   103b8:	d83a                	sw	a4,48(sp)
   103ba:	d22e                	sw	a1,36(sp)
   103bc:	dc42                	sw	a6,56(sp)
   103be:	de46                	sw	a7,60(sp)
   103c0:	478c                	lw	a1,8(a5)
   103c2:	1054                	addi	a3,sp,36
   103c4:	862a                	mv	a2,a0
   103c6:	853e                	mv	a0,a5
   103c8:	ce06                	sw	ra,28(sp)
   103ca:	c436                	sw	a3,8(sp)
   103cc:	2885                	jal	1043c <_vfprintf_r>
   103ce:	4732                	lw	a4,12(sp)
   103d0:	1cc1a783          	lw	a5,460(gp) # 1ec04 <__stack_chk_guard>
   103d4:	00f70363          	beq	a4,a5,103da <printf+0x36>
   103d8:	2029                	jal	103e2 <__stack_chk_fail>
   103da:	40f2                	lw	ra,28(sp)
   103dc:	4462                	lw	s0,24(sp)
   103de:	6121                	addi	sp,sp,64
   103e0:	8082                	ret

000103e2 <__stack_chk_fail>:
   103e2:	1cc1a783          	lw	a5,460(gp) # 1ec04 <__stack_chk_guard>
   103e6:	715d                	addi	sp,sp,-80
   103e8:	65f1                	lui	a1,0x1c
   103ea:	02d00613          	li	a2,45
   103ee:	2bc58593          	addi	a1,a1,700 # 1c2bc <push_pop_regs+0x44>
   103f2:	0068                	addi	a0,sp,12
   103f4:	c686                	sw	ra,76(sp)
   103f6:	de3e                	sw	a5,60(sp)
   103f8:	655030ef          	jal	ra,1424c <memcpy>
   103fc:	0068                	addi	a0,sp,12
   103fe:	2839                	jal	1041c <strlen>
   10400:	862a                	mv	a2,a0
   10402:	006c                	addi	a1,sp,12
   10404:	4509                	li	a0,2
   10406:	2025                	jal	1042e <write>
   10408:	4519                	li	a0,6
   1040a:	41d040ef          	jal	ra,15026 <raise>
   1040e:	07f00513          	li	a0,127
   10412:	089080ef          	jal	ra,18c9a <_exit>

00010416 <__stack_chk_fail_local>:
   10416:	1141                	addi	sp,sp,-16
   10418:	c606                	sw	ra,12(sp)
   1041a:	37e1                	jal	103e2 <__stack_chk_fail>

0001041c <strlen>:
   1041c:	87aa                	mv	a5,a0
   1041e:	0785                	addi	a5,a5,1
   10420:	fff7c703          	lbu	a4,-1(a5)
   10424:	ff6d                	bnez	a4,1041e <strlen+0x2>
   10426:	40a78533          	sub	a0,a5,a0
   1042a:	157d                	addi	a0,a0,-1
   1042c:	8082                	ret

0001042e <write>:
   1042e:	86b2                	mv	a3,a2
   10430:	862e                	mv	a2,a1
   10432:	85aa                	mv	a1,a0
   10434:	1c01a503          	lw	a0,448(gp) # 1ebf8 <_impure_ptr>
   10438:	6a40106f          	j	11adc <_write_r>

0001043c <_vfprintf_r>:
   1043c:	1cc1a783          	lw	a5,460(gp) # 1ec04 <__stack_chk_guard>
   10440:	7105                	addi	sp,sp,-480
   10442:	1c112e23          	sw	ra,476(sp)
   10446:	1c912a23          	sw	s1,468(sp)
   1044a:	1d212823          	sw	s2,464(sp)
   1044e:	1d312623          	sw	s3,460(sp)
   10452:	1d512223          	sw	s5,452(sp)
   10456:	892e                	mv	s2,a1
   10458:	84b2                	mv	s1,a2
   1045a:	8ab6                	mv	s5,a3
   1045c:	18f12e23          	sw	a5,412(sp)
   10460:	1c812c23          	sw	s0,472(sp)
   10464:	1d412423          	sw	s4,456(sp)
   10468:	1d612023          	sw	s6,448(sp)
   1046c:	1b712e23          	sw	s7,444(sp)
   10470:	1b812c23          	sw	s8,440(sp)
   10474:	1b912a23          	sw	s9,436(sp)
   10478:	1ba12823          	sw	s10,432(sp)
   1047c:	1bb12623          	sw	s11,428(sp)
   10480:	89aa                	mv	s3,a0
   10482:	604030ef          	jal	ra,13a86 <_localeconv_r>
   10486:	411c                	lw	a5,0(a0)
   10488:	853e                	mv	a0,a5
   1048a:	da3e                	sw	a5,52(sp)
   1048c:	3f41                	jal	1041c <strlen>
   1048e:	d02a                	sw	a0,32(sp)
   10490:	c982                	sw	zero,208(sp)
   10492:	cb82                	sw	zero,212(sp)
   10494:	cd82                	sw	zero,216(sp)
   10496:	cf82                	sw	zero,220(sp)
   10498:	00098863          	beqz	s3,104a8 <_vfprintf_r+0x6c>
   1049c:	0389a783          	lw	a5,56(s3)
   104a0:	e781                	bnez	a5,104a8 <_vfprintf_r+0x6c>
   104a2:	854e                	mv	a0,s3
   104a4:	2a7010ef          	jal	ra,11f4a <__sinit>
   104a8:	00c91783          	lh	a5,12(s2)
   104ac:	01279713          	slli	a4,a5,0x12
   104b0:	00074d63          	bltz	a4,104ca <_vfprintf_r+0x8e>
   104b4:	6689                	lui	a3,0x2
   104b6:	06492703          	lw	a4,100(s2)
   104ba:	8fd5                	or	a5,a5,a3
   104bc:	00f91623          	sh	a5,12(s2)
   104c0:	77f9                	lui	a5,0xffffe
   104c2:	17fd                	addi	a5,a5,-1
   104c4:	8ff9                	and	a5,a5,a4
   104c6:	06f92223          	sw	a5,100(s2)
   104ca:	00c95783          	lhu	a5,12(s2)
   104ce:	8ba1                	andi	a5,a5,8
   104d0:	cf9d                	beqz	a5,1050e <_vfprintf_r+0xd2>
   104d2:	01092783          	lw	a5,16(s2)
   104d6:	cf85                	beqz	a5,1050e <_vfprintf_r+0xd2>
   104d8:	00c95783          	lhu	a5,12(s2)
   104dc:	4729                	li	a4,10
   104de:	8be9                	andi	a5,a5,26
   104e0:	02e79f63          	bne	a5,a4,1051e <_vfprintf_r+0xe2>
   104e4:	00e91783          	lh	a5,14(s2)
   104e8:	0207cb63          	bltz	a5,1051e <_vfprintf_r+0xe2>
   104ec:	86d6                	mv	a3,s5
   104ee:	8626                	mv	a2,s1
   104f0:	85ca                	mv	a1,s2
   104f2:	854e                	mv	a0,s3
   104f4:	53e010ef          	jal	ra,11a32 <__sbprintf>
   104f8:	d22a                	sw	a0,36(sp)
   104fa:	19c12703          	lw	a4,412(sp)
   104fe:	1cc1a783          	lw	a5,460(gp) # 1ec04 <__stack_chk_guard>
   10502:	5512                	lw	a0,36(sp)
   10504:	00f71463          	bne	a4,a5,1050c <_vfprintf_r+0xd0>
   10508:	4e40106f          	j	119ec <_vfprintf_r+0x15b0>
   1050c:	3dd9                	jal	103e2 <__stack_chk_fail>
   1050e:	85ca                	mv	a1,s2
   10510:	854e                	mv	a0,s3
   10512:	5fa010ef          	jal	ra,11b0c <__swsetup_r>
   10516:	d169                	beqz	a0,104d8 <_vfprintf_r+0x9c>
   10518:	57fd                	li	a5,-1
   1051a:	d23e                	sw	a5,36(sp)
   1051c:	bff9                	j	104fa <_vfprintf_r+0xbe>
   1051e:	67f1                	lui	a5,0x1c
   10520:	2ec78793          	addi	a5,a5,748 # 1c2ec <push_pop_regs+0x74>
   10524:	c6be                	sw	a5,76(sp)
   10526:	67f1                	lui	a5,0x1c
   10528:	0e410893          	addi	a7,sp,228
   1052c:	46878793          	addi	a5,a5,1128 # 1c468 <zeroes.4447>
   10530:	c3c6                	sw	a7,196(sp)
   10532:	c782                	sw	zero,204(sp)
   10534:	c582                	sw	zero,200(sp)
   10536:	4a01                	li	s4,0
   10538:	c082                	sw	zero,64(sp)
   1053a:	de02                	sw	zero,60(sp)
   1053c:	c802                	sw	zero,16(sp)
   1053e:	d802                	sw	zero,48(sp)
   10540:	dc02                	sw	zero,56(sp)
   10542:	d202                	sw	zero,36(sp)
   10544:	ca3e                	sw	a5,20(sp)
   10546:	8426                	mv	s0,s1
   10548:	02500713          	li	a4,37
   1054c:	00044783          	lbu	a5,0(s0)
   10550:	c399                	beqz	a5,10556 <_vfprintf_r+0x11a>
   10552:	08e79163          	bne	a5,a4,105d4 <_vfprintf_r+0x198>
   10556:	40940b33          	sub	s6,s0,s1
   1055a:	020b0c63          	beqz	s6,10592 <_vfprintf_r+0x156>
   1055e:	47be                	lw	a5,204(sp)
   10560:	0098a023          	sw	s1,0(a7)
   10564:	0168a223          	sw	s6,4(a7)
   10568:	97da                	add	a5,a5,s6
   1056a:	c7be                	sw	a5,204(sp)
   1056c:	47ae                	lw	a5,200(sp)
   1056e:	471d                	li	a4,7
   10570:	08a1                	addi	a7,a7,8
   10572:	0785                	addi	a5,a5,1
   10574:	c5be                	sw	a5,200(sp)
   10576:	00f75b63          	bge	a4,a5,1058c <_vfprintf_r+0x150>
   1057a:	01d0                	addi	a2,sp,196
   1057c:	85ca                	mv	a1,s2
   1057e:	854e                	mv	a0,s3
   10580:	6e4060ef          	jal	ra,16c64 <__sprint_r>
   10584:	38051c63          	bnez	a0,1091c <_vfprintf_r+0x4e0>
   10588:	0e410893          	addi	a7,sp,228
   1058c:	5792                	lw	a5,36(sp)
   1058e:	97da                	add	a5,a5,s6
   10590:	d23e                	sw	a5,36(sp)
   10592:	00044783          	lbu	a5,0(s0)
   10596:	e399                	bnez	a5,1059c <_vfprintf_r+0x160>
   10598:	43e0106f          	j	119d6 <_vfprintf_r+0x159a>
   1059c:	00140793          	addi	a5,s0,1
   105a0:	ce3e                	sw	a5,28(sp)
   105a2:	0a010ba3          	sb	zero,183(sp)
   105a6:	5b7d                	li	s6,-1
   105a8:	d402                	sw	zero,40(sp)
   105aa:	4401                	li	s0,0
   105ac:	4c29                	li	s8,10
   105ae:	02a00b93          	li	s7,42
   105b2:	05a00613          	li	a2,90
   105b6:	4725                	li	a4,9
   105b8:	47f2                	lw	a5,28(sp)
   105ba:	0007cd03          	lbu	s10,0(a5)
   105be:	0785                	addi	a5,a5,1
   105c0:	ce3e                	sw	a5,28(sp)
   105c2:	fe0d0793          	addi	a5,s10,-32
   105c6:	4cf66de3          	bltu	a2,a5,112a0 <_vfprintf_r+0xe64>
   105ca:	46b6                	lw	a3,76(sp)
   105cc:	078a                	slli	a5,a5,0x2
   105ce:	97b6                	add	a5,a5,a3
   105d0:	439c                	lw	a5,0(a5)
   105d2:	8782                	jr	a5
   105d4:	0405                	addi	s0,s0,1
   105d6:	bf9d                	j	1054c <_vfprintf_r+0x110>
   105d8:	67f1                	lui	a5,0x1c
   105da:	49c78793          	addi	a5,a5,1180 # 1c49c <zeroes.4447+0x34>
   105de:	c0be                	sw	a5,64(sp)
   105e0:	02047793          	andi	a5,s0,32
   105e4:	360780e3          	beqz	a5,11144 <_vfprintf_r+0xd08>
   105e8:	0a9d                	addi	s5,s5,7
   105ea:	ff8afa93          	andi	s5,s5,-8
   105ee:	000aac83          	lw	s9,0(s5)
   105f2:	004aac03          	lw	s8,4(s5)
   105f6:	008a8793          	addi	a5,s5,8
   105fa:	cc3e                	sw	a5,24(sp)
   105fc:	00147793          	andi	a5,s0,1
   10600:	cf81                	beqz	a5,10618 <_vfprintf_r+0x1dc>
   10602:	018ce7b3          	or	a5,s9,s8
   10606:	cb89                	beqz	a5,10618 <_vfprintf_r+0x1dc>
   10608:	03000793          	li	a5,48
   1060c:	12f10223          	sb	a5,292(sp)
   10610:	13a102a3          	sb	s10,293(sp)
   10614:	00246413          	ori	s0,s0,2
   10618:	bff47413          	andi	s0,s0,-1025
   1061c:	4789                	li	a5,2
   1061e:	05b0006f          	j	10e78 <_vfprintf_r+0xa3c>
   10622:	854e                	mv	a0,s3
   10624:	c646                	sw	a7,12(sp)
   10626:	460030ef          	jal	ra,13a86 <_localeconv_r>
   1062a:	415c                	lw	a5,4(a0)
   1062c:	853e                	mv	a0,a5
   1062e:	dc3e                	sw	a5,56(sp)
   10630:	33f5                	jal	1041c <strlen>
   10632:	d82a                	sw	a0,48(sp)
   10634:	854e                	mv	a0,s3
   10636:	450030ef          	jal	ra,13a86 <_localeconv_r>
   1063a:	451c                	lw	a5,8(a0)
   1063c:	48b2                	lw	a7,12(sp)
   1063e:	c83e                	sw	a5,16(sp)
   10640:	57c2                	lw	a5,48(sp)
   10642:	dba5                	beqz	a5,105b2 <_vfprintf_r+0x176>
   10644:	47c2                	lw	a5,16(sp)
   10646:	d7b5                	beqz	a5,105b2 <_vfprintf_r+0x176>
   10648:	0007c783          	lbu	a5,0(a5)
   1064c:	d3bd                	beqz	a5,105b2 <_vfprintf_r+0x176>
   1064e:	40046413          	ori	s0,s0,1024
   10652:	b785                	j	105b2 <_vfprintf_r+0x176>
   10654:	0b714783          	lbu	a5,183(sp)
   10658:	ffa9                	bnez	a5,105b2 <_vfprintf_r+0x176>
   1065a:	02000793          	li	a5,32
   1065e:	0af10ba3          	sb	a5,183(sp)
   10662:	bf81                	j	105b2 <_vfprintf_r+0x176>
   10664:	00146413          	ori	s0,s0,1
   10668:	b7a9                	j	105b2 <_vfprintf_r+0x176>
   1066a:	000aa783          	lw	a5,0(s5)
   1066e:	0a91                	addi	s5,s5,4
   10670:	d43e                	sw	a5,40(sp)
   10672:	f407d0e3          	bgez	a5,105b2 <_vfprintf_r+0x176>
   10676:	40f007b3          	neg	a5,a5
   1067a:	d43e                	sw	a5,40(sp)
   1067c:	00446413          	ori	s0,s0,4
   10680:	bf0d                	j	105b2 <_vfprintf_r+0x176>
   10682:	02b00793          	li	a5,43
   10686:	bfe1                	j	1065e <_vfprintf_r+0x222>
   10688:	46f2                	lw	a3,28(sp)
   1068a:	47f2                	lw	a5,28(sp)
   1068c:	0006cd03          	lbu	s10,0(a3) # 2000 <__stack_chk_init-0xe074>
   10690:	0785                	addi	a5,a5,1
   10692:	037d1863          	bne	s10,s7,106c2 <_vfprintf_r+0x286>
   10696:	000aab03          	lw	s6,0(s5)
   1069a:	004a8713          	addi	a4,s5,4
   1069e:	000b5363          	bgez	s6,106a4 <_vfprintf_r+0x268>
   106a2:	5b7d                	li	s6,-1
   106a4:	8aba                	mv	s5,a4
   106a6:	ce3e                	sw	a5,28(sp)
   106a8:	b729                	j	105b2 <_vfprintf_r+0x176>
   106aa:	038b0333          	mul	t1,s6,s8
   106ae:	0785                	addi	a5,a5,1
   106b0:	fff7cd03          	lbu	s10,-1(a5)
   106b4:	00d30b33          	add	s6,t1,a3
   106b8:	fd0d0693          	addi	a3,s10,-48
   106bc:	fed777e3          	bgeu	a4,a3,106aa <_vfprintf_r+0x26e>
   106c0:	b701                	j	105c0 <_vfprintf_r+0x184>
   106c2:	4b01                	li	s6,0
   106c4:	bfd5                	j	106b8 <_vfprintf_r+0x27c>
   106c6:	08046413          	ori	s0,s0,128
   106ca:	b5e5                	j	105b2 <_vfprintf_r+0x176>
   106cc:	47f2                	lw	a5,28(sp)
   106ce:	d402                	sw	zero,40(sp)
   106d0:	56a2                	lw	a3,40(sp)
   106d2:	fd0d0d13          	addi	s10,s10,-48
   106d6:	0785                	addi	a5,a5,1
   106d8:	038686b3          	mul	a3,a3,s8
   106dc:	96ea                	add	a3,a3,s10
   106de:	fff7cd03          	lbu	s10,-1(a5)
   106e2:	d436                	sw	a3,40(sp)
   106e4:	fd0d0693          	addi	a3,s10,-48
   106e8:	fed774e3          	bgeu	a4,a3,106d0 <_vfprintf_r+0x294>
   106ec:	bdd1                	j	105c0 <_vfprintf_r+0x184>
   106ee:	00846413          	ori	s0,s0,8
   106f2:	b5c1                	j	105b2 <_vfprintf_r+0x176>
   106f4:	47f2                	lw	a5,28(sp)
   106f6:	0007c703          	lbu	a4,0(a5)
   106fa:	06800793          	li	a5,104
   106fe:	00f71863          	bne	a4,a5,1070e <_vfprintf_r+0x2d2>
   10702:	47f2                	lw	a5,28(sp)
   10704:	20046413          	ori	s0,s0,512
   10708:	0785                	addi	a5,a5,1
   1070a:	ce3e                	sw	a5,28(sp)
   1070c:	b55d                	j	105b2 <_vfprintf_r+0x176>
   1070e:	04046413          	ori	s0,s0,64
   10712:	b545                	j	105b2 <_vfprintf_r+0x176>
   10714:	47f2                	lw	a5,28(sp)
   10716:	0007c703          	lbu	a4,0(a5)
   1071a:	06c00793          	li	a5,108
   1071e:	00f71863          	bne	a4,a5,1072e <_vfprintf_r+0x2f2>
   10722:	47f2                	lw	a5,28(sp)
   10724:	0785                	addi	a5,a5,1
   10726:	ce3e                	sw	a5,28(sp)
   10728:	02046413          	ori	s0,s0,32
   1072c:	b559                	j	105b2 <_vfprintf_r+0x176>
   1072e:	01046413          	ori	s0,s0,16
   10732:	b541                	j	105b2 <_vfprintf_r+0x176>
   10734:	004a8793          	addi	a5,s5,4
   10738:	cc3e                	sw	a5,24(sp)
   1073a:	000aa783          	lw	a5,0(s5)
   1073e:	0a010ba3          	sb	zero,183(sp)
   10742:	12f10c23          	sb	a5,312(sp)
   10746:	c602                	sw	zero,12(sp)
   10748:	4b05                	li	s6,1
   1074a:	4a81                	li	s5,0
   1074c:	4c01                	li	s8,0
   1074e:	4b81                	li	s7,0
   10750:	4c81                	li	s9,0
   10752:	1a24                	addi	s1,sp,312
   10754:	7e20006f          	j	10f36 <_vfprintf_r+0xafa>
   10758:	01046413          	ori	s0,s0,16
   1075c:	02047793          	andi	a5,s0,32
   10760:	cba9                	beqz	a5,107b2 <_vfprintf_r+0x376>
   10762:	0a9d                	addi	s5,s5,7
   10764:	ff8afa93          	andi	s5,s5,-8
   10768:	000aac83          	lw	s9,0(s5)
   1076c:	004aac03          	lw	s8,4(s5)
   10770:	008a8793          	addi	a5,s5,8
   10774:	cc3e                	sw	a5,24(sp)
   10776:	000c5e63          	bgez	s8,10792 <_vfprintf_r+0x356>
   1077a:	41900cb3          	neg	s9,s9
   1077e:	019037b3          	snez	a5,s9
   10782:	41800c33          	neg	s8,s8
   10786:	40fc0c33          	sub	s8,s8,a5
   1078a:	02d00793          	li	a5,45
   1078e:	0af10ba3          	sb	a5,183(sp)
   10792:	57fd                	li	a5,-1
   10794:	1cfb1fe3          	bne	s6,a5,11172 <_vfprintf_r+0xd36>
   10798:	240c11e3          	bnez	s8,111da <_vfprintf_r+0xd9e>
   1079c:	47a5                	li	a5,9
   1079e:	2397eee3          	bltu	a5,s9,111da <_vfprintf_r+0xd9e>
   107a2:	030c8c93          	addi	s9,s9,48
   107a6:	19910da3          	sb	s9,411(sp)
   107aa:	19b10493          	addi	s1,sp,411
   107ae:	2150006f          	j	111c2 <_vfprintf_r+0xd86>
   107b2:	004a8793          	addi	a5,s5,4
   107b6:	cc3e                	sw	a5,24(sp)
   107b8:	01047793          	andi	a5,s0,16
   107bc:	c791                	beqz	a5,107c8 <_vfprintf_r+0x38c>
   107be:	000aac83          	lw	s9,0(s5)
   107c2:	41fcdc13          	srai	s8,s9,0x1f
   107c6:	bf45                	j	10776 <_vfprintf_r+0x33a>
   107c8:	04047793          	andi	a5,s0,64
   107cc:	000aac83          	lw	s9,0(s5)
   107d0:	c789                	beqz	a5,107da <_vfprintf_r+0x39e>
   107d2:	0cc2                	slli	s9,s9,0x10
   107d4:	410cdc93          	srai	s9,s9,0x10
   107d8:	b7ed                	j	107c2 <_vfprintf_r+0x386>
   107da:	20047793          	andi	a5,s0,512
   107de:	d3f5                	beqz	a5,107c2 <_vfprintf_r+0x386>
   107e0:	0ce2                	slli	s9,s9,0x18
   107e2:	418cdc93          	srai	s9,s9,0x18
   107e6:	bff1                	j	107c2 <_vfprintf_r+0x386>
   107e8:	00847793          	andi	a5,s0,8
   107ec:	cfa5                	beqz	a5,10864 <_vfprintf_r+0x428>
   107ee:	004a8793          	addi	a5,s5,4
   107f2:	cc3e                	sw	a5,24(sp)
   107f4:	000aa783          	lw	a5,0(s5)
   107f8:	4390                	lw	a2,0(a5)
   107fa:	43d4                	lw	a3,4(a5)
   107fc:	4798                	lw	a4,8(a5)
   107fe:	47dc                	lw	a5,12(a5)
   10800:	c9b2                	sw	a2,208(sp)
   10802:	cbb6                	sw	a3,212(sp)
   10804:	cdba                	sw	a4,216(sp)
   10806:	cfbe                	sw	a5,220(sp)
   10808:	0988                	addi	a0,sp,208
   1080a:	c646                	sw	a7,12(sp)
   1080c:	21e030ef          	jal	ra,13a2a <_ldcheck>
   10810:	dd2a                	sw	a0,184(sp)
   10812:	4789                	li	a5,2
   10814:	48b2                	lw	a7,12(sp)
   10816:	08f51363          	bne	a0,a5,1089c <_vfprintf_r+0x460>
   1081a:	47ce                	lw	a5,208(sp)
   1081c:	090c                	addi	a1,sp,144
   1081e:	1108                	addi	a0,sp,160
   10820:	d13e                	sw	a5,160(sp)
   10822:	47de                	lw	a5,212(sp)
   10824:	c902                	sw	zero,144(sp)
   10826:	cb02                	sw	zero,148(sp)
   10828:	d33e                	sw	a5,164(sp)
   1082a:	47ee                	lw	a5,216(sp)
   1082c:	cd02                	sw	zero,152(sp)
   1082e:	cf02                	sw	zero,156(sp)
   10830:	d53e                	sw	a5,168(sp)
   10832:	47fe                	lw	a5,220(sp)
   10834:	d73e                	sw	a5,172(sp)
   10836:	07d090ef          	jal	ra,1a0b2 <__letf2>
   1083a:	48b2                	lw	a7,12(sp)
   1083c:	00055663          	bgez	a0,10848 <_vfprintf_r+0x40c>
   10840:	02d00793          	li	a5,45
   10844:	0af10ba3          	sb	a5,183(sp)
   10848:	04700793          	li	a5,71
   1084c:	05a7c463          	blt	a5,s10,10894 <_vfprintf_r+0x458>
   10850:	64f1                	lui	s1,0x1c
   10852:	47848493          	addi	s1,s1,1144 # 1c478 <zeroes.4447+0x10>
   10856:	f7f47413          	andi	s0,s0,-129
   1085a:	c602                	sw	zero,12(sp)
   1085c:	4b0d                	li	s6,3
   1085e:	4a81                	li	s5,0
   10860:	16f0006f          	j	111ce <_vfprintf_r+0xd92>
   10864:	0a9d                	addi	s5,s5,7
   10866:	ff8afa93          	andi	s5,s5,-8
   1086a:	000aa583          	lw	a1,0(s5)
   1086e:	004aa603          	lw	a2,4(s5)
   10872:	008a8793          	addi	a5,s5,8
   10876:	1108                	addi	a0,sp,160
   10878:	c646                	sw	a7,12(sp)
   1087a:	cc3e                	sw	a5,24(sp)
   1087c:	4d00b0ef          	jal	ra,1bd4c <__extenddftf2>
   10880:	578a                	lw	a5,160(sp)
   10882:	48b2                	lw	a7,12(sp)
   10884:	c9be                	sw	a5,208(sp)
   10886:	579a                	lw	a5,164(sp)
   10888:	cbbe                	sw	a5,212(sp)
   1088a:	57aa                	lw	a5,168(sp)
   1088c:	cdbe                	sw	a5,216(sp)
   1088e:	57ba                	lw	a5,172(sp)
   10890:	cfbe                	sw	a5,220(sp)
   10892:	bf9d                	j	10808 <_vfprintf_r+0x3cc>
   10894:	64f1                	lui	s1,0x1c
   10896:	47c48493          	addi	s1,s1,1148 # 1c47c <zeroes.4447+0x14>
   1089a:	bf75                	j	10856 <_vfprintf_r+0x41a>
   1089c:	4785                	li	a5,1
   1089e:	02f51563          	bne	a0,a5,108c8 <_vfprintf_r+0x48c>
   108a2:	47fe                	lw	a5,220(sp)
   108a4:	0007d663          	bgez	a5,108b0 <_vfprintf_r+0x474>
   108a8:	02d00793          	li	a5,45
   108ac:	0af10ba3          	sb	a5,183(sp)
   108b0:	04700793          	li	a5,71
   108b4:	01a7c663          	blt	a5,s10,108c0 <_vfprintf_r+0x484>
   108b8:	64f1                	lui	s1,0x1c
   108ba:	48048493          	addi	s1,s1,1152 # 1c480 <zeroes.4447+0x18>
   108be:	bf61                	j	10856 <_vfprintf_r+0x41a>
   108c0:	64f1                	lui	s1,0x1c
   108c2:	48448493          	addi	s1,s1,1156 # 1c484 <zeroes.4447+0x1c>
   108c6:	bf41                	j	10856 <_vfprintf_r+0x41a>
   108c8:	fdfd7b93          	andi	s7,s10,-33
   108cc:	04100793          	li	a5,65
   108d0:	04fb9d63          	bne	s7,a5,1092a <_vfprintf_r+0x4ee>
   108d4:	03000793          	li	a5,48
   108d8:	12f10223          	sb	a5,292(sp)
   108dc:	06100713          	li	a4,97
   108e0:	05800793          	li	a5,88
   108e4:	00ed1463          	bne	s10,a4,108ec <_vfprintf_r+0x4b0>
   108e8:	07800793          	li	a5,120
   108ec:	12f102a3          	sb	a5,293(sp)
   108f0:	06300793          	li	a5,99
   108f4:	00246413          	ori	s0,s0,2
   108f8:	3167d863          	bge	a5,s6,10c08 <_vfprintf_r+0x7cc>
   108fc:	001b0593          	addi	a1,s6,1
   10900:	854e                	mv	a0,s3
   10902:	c646                	sw	a7,12(sp)
   10904:	358030ef          	jal	ra,13c5c <_malloc_r>
   10908:	84aa                	mv	s1,a0
   1090a:	48b2                	lw	a7,12(sp)
   1090c:	30051163          	bnez	a0,10c0e <_vfprintf_r+0x7d2>
   10910:	00c95783          	lhu	a5,12(s2)
   10914:	0407e793          	ori	a5,a5,64
   10918:	00f91623          	sh	a5,12(s2)
   1091c:	00c95783          	lhu	a5,12(s2)
   10920:	0407f793          	andi	a5,a5,64
   10924:	bc078be3          	beqz	a5,104fa <_vfprintf_r+0xbe>
   10928:	bec5                	j	10518 <_vfprintf_r+0xdc>
   1092a:	57fd                	li	a5,-1
   1092c:	2efb0363          	beq	s6,a5,10c12 <_vfprintf_r+0x7d6>
   10930:	04700793          	li	a5,71
   10934:	c602                	sw	zero,12(sp)
   10936:	00fb9463          	bne	s7,a5,1093e <_vfprintf_r+0x502>
   1093a:	2c0b0f63          	beqz	s6,10c18 <_vfprintf_r+0x7dc>
   1093e:	4a7e                	lw	s4,220(sp)
   10940:	10046793          	ori	a5,s0,256
   10944:	d63e                	sw	a5,44(sp)
   10946:	c282                	sw	zero,68(sp)
   10948:	4e4e                	lw	t3,208(sp)
   1094a:	4dde                	lw	s11,212(sp)
   1094c:	4cee                	lw	s9,216(sp)
   1094e:	000a5963          	bgez	s4,10960 <_vfprintf_r+0x524>
   10952:	800007b7          	lui	a5,0x80000
   10956:	0147ca33          	xor	s4,a5,s4
   1095a:	02d00793          	li	a5,45
   1095e:	c2be                	sw	a5,68(sp)
   10960:	04100793          	li	a5,65
   10964:	2efb9763          	bne	s7,a5,10c52 <_vfprintf_r+0x816>
   10968:	1108                	addi	a0,sp,160
   1096a:	ccc6                	sw	a7,88(sp)
   1096c:	d172                	sw	t3,160(sp)
   1096e:	d566                	sw	s9,168(sp)
   10970:	d36e                	sw	s11,164(sp)
   10972:	d752                	sw	s4,172(sp)
   10974:	53c0b0ef          	jal	ra,1beb0 <__trunctfdf2>
   10978:	1930                	addi	a2,sp,184
   1097a:	4f2040ef          	jal	ra,14e6c <frexp>
   1097e:	862e                	mv	a2,a1
   10980:	85aa                	mv	a1,a0
   10982:	1108                	addi	a0,sp,160
   10984:	3c80b0ef          	jal	ra,1bd4c <__extenddftf2>
   10988:	578a                	lw	a5,160(sp)
   1098a:	1890                	addi	a2,sp,112
   1098c:	010c                	addi	a1,sp,128
   1098e:	c13e                	sw	a5,128(sp)
   10990:	579a                	lw	a5,164(sp)
   10992:	0908                	addi	a0,sp,144
   10994:	d882                	sw	zero,112(sp)
   10996:	c33e                	sw	a5,132(sp)
   10998:	57aa                	lw	a5,168(sp)
   1099a:	da82                	sw	zero,116(sp)
   1099c:	dc82                	sw	zero,120(sp)
   1099e:	c53e                	sw	a5,136(sp)
   109a0:	57ba                	lw	a5,172(sp)
   109a2:	c73e                	sw	a5,140(sp)
   109a4:	3ffc07b7          	lui	a5,0x3ffc0
   109a8:	debe                	sw	a5,124(sp)
   109aa:	01b090ef          	jal	ra,1a1c4 <__multf3>
   109ae:	484a                	lw	a6,144(sp)
   109b0:	465a                	lw	a2,148(sp)
   109b2:	46ea                	lw	a3,152(sp)
   109b4:	4cfa                	lw	s9,156(sp)
   109b6:	090c                	addi	a1,sp,144
   109b8:	1108                	addi	a0,sp,160
   109ba:	d142                	sw	a6,160(sp)
   109bc:	cac2                	sw	a6,84(sp)
   109be:	d332                	sw	a2,164(sp)
   109c0:	c8b2                	sw	a2,80(sp)
   109c2:	d536                	sw	a3,168(sp)
   109c4:	c4b6                	sw	a3,72(sp)
   109c6:	d766                	sw	s9,172(sp)
   109c8:	c902                	sw	zero,144(sp)
   109ca:	cb02                	sw	zero,148(sp)
   109cc:	cd02                	sw	zero,152(sp)
   109ce:	cf02                	sw	zero,156(sp)
   109d0:	52a090ef          	jal	ra,19efa <__eqtf2>
   109d4:	46a6                	lw	a3,72(sp)
   109d6:	4646                	lw	a2,80(sp)
   109d8:	4856                	lw	a6,84(sp)
   109da:	48e6                	lw	a7,88(sp)
   109dc:	e119                	bnez	a0,109e2 <_vfprintf_r+0x5a6>
   109de:	4705                	li	a4,1
   109e0:	dd3a                	sw	a4,184(sp)
   109e2:	06100713          	li	a4,97
   109e6:	22ed1c63          	bne	s10,a4,10c1e <_vfprintf_r+0x7e2>
   109ea:	6c71                	lui	s8,0x1c
   109ec:	488c0c13          	addi	s8,s8,1160 # 1c488 <zeroes.4447+0x20>
   109f0:	fffb0e13          	addi	t3,s6,-1
   109f4:	8da6                	mv	s11,s1
   109f6:	400307b7          	lui	a5,0x40030
   109fa:	090c                	addi	a1,sp,144
   109fc:	cb32                	sw	a2,148(sp)
   109fe:	1108                	addi	a0,sp,160
   10a00:	0110                	addi	a2,sp,128
   10a02:	ccc6                	sw	a7,88(sp)
   10a04:	caf2                	sw	t3,84(sp)
   10a06:	c942                	sw	a6,144(sp)
   10a08:	c73e                	sw	a5,140(sp)
   10a0a:	cd36                	sw	a3,152(sp)
   10a0c:	cf66                	sw	s9,156(sp)
   10a0e:	c102                	sw	zero,128(sp)
   10a10:	c302                	sw	zero,132(sp)
   10a12:	c502                	sw	zero,136(sp)
   10a14:	7b0090ef          	jal	ra,1a1c4 <__multf3>
   10a18:	560a                	lw	a2,160(sp)
   10a1a:	569a                	lw	a3,164(sp)
   10a1c:	1108                	addi	a0,sp,160
   10a1e:	c8b2                	sw	a2,80(sp)
   10a20:	c4b6                	sw	a3,72(sp)
   10a22:	1380b0ef          	jal	ra,1bb5a <__fixtfsi>
   10a26:	85aa                	mv	a1,a0
   10a28:	8a2a                	mv	s4,a0
   10a2a:	1108                	addi	a0,sp,160
   10a2c:	5caa                	lw	s9,168(sp)
   10a2e:	5aba                	lw	s5,172(sp)
   10a30:	2240b0ef          	jal	ra,1bc54 <__floatsitf>
   10a34:	578a                	lw	a5,160(sp)
   10a36:	4646                	lw	a2,80(sp)
   10a38:	46a6                	lw	a3,72(sp)
   10a3a:	d8be                	sw	a5,112(sp)
   10a3c:	579a                	lw	a5,164(sp)
   10a3e:	c132                	sw	a2,128(sp)
   10a40:	010c                	addi	a1,sp,128
   10a42:	dabe                	sw	a5,116(sp)
   10a44:	57aa                	lw	a5,168(sp)
   10a46:	1890                	addi	a2,sp,112
   10a48:	0908                	addi	a0,sp,144
   10a4a:	dcbe                	sw	a5,120(sp)
   10a4c:	57ba                	lw	a5,172(sp)
   10a4e:	c566                	sw	s9,136(sp)
   10a50:	c756                	sw	s5,140(sp)
   10a52:	debe                	sw	a5,124(sp)
   10a54:	c336                	sw	a3,132(sp)
   10a56:	2c40a0ef          	jal	ra,1ad1a <__subtf3>
   10a5a:	014c05b3          	add	a1,s8,s4
   10a5e:	0005c583          	lbu	a1,0(a1)
   10a62:	4e56                	lw	t3,84(sp)
   10a64:	4afa                	lw	s5,156(sp)
   10a66:	0d85                	addi	s11,s11,1
   10a68:	42ca                	lw	t0,144(sp)
   10a6a:	4fda                	lw	t6,148(sp)
   10a6c:	4f6a                	lw	t5,152(sp)
   10a6e:	c4f2                	sw	t3,72(sp)
   10a70:	febd8fa3          	sb	a1,-1(s11)
   10a74:	57fd                	li	a5,-1
   10a76:	8cd6                	mv	s9,s5
   10a78:	48e6                	lw	a7,88(sp)
   10a7a:	04fe0063          	beq	t3,a5,10aba <_vfprintf_r+0x67e>
   10a7e:	1e7d                	addi	t3,t3,-1
   10a80:	090c                	addi	a1,sp,144
   10a82:	1108                	addi	a0,sp,160
   10a84:	d6fa                	sw	t5,108(sp)
   10a86:	d4fe                	sw	t6,104(sp)
   10a88:	d296                	sw	t0,100(sp)
   10a8a:	d0c6                	sw	a7,96(sp)
   10a8c:	cef2                	sw	t3,92(sp)
   10a8e:	d116                	sw	t0,160(sp)
   10a90:	cc96                	sw	t0,88(sp)
   10a92:	d37e                	sw	t6,164(sp)
   10a94:	cafe                	sw	t6,84(sp)
   10a96:	d57a                	sw	t5,168(sp)
   10a98:	c8fa                	sw	t5,80(sp)
   10a9a:	d756                	sw	s5,172(sp)
   10a9c:	c902                	sw	zero,144(sp)
   10a9e:	cb02                	sw	zero,148(sp)
   10aa0:	cd02                	sw	zero,152(sp)
   10aa2:	cf02                	sw	zero,156(sp)
   10aa4:	456090ef          	jal	ra,19efa <__eqtf2>
   10aa8:	46c6                	lw	a3,80(sp)
   10aaa:	4656                	lw	a2,84(sp)
   10aac:	4866                	lw	a6,88(sp)
   10aae:	4e76                	lw	t3,92(sp)
   10ab0:	5886                	lw	a7,96(sp)
   10ab2:	5296                	lw	t0,100(sp)
   10ab4:	5fa6                	lw	t6,104(sp)
   10ab6:	5f36                	lw	t5,108(sp)
   10ab8:	fd1d                	bnez	a0,109f6 <_vfprintf_r+0x5ba>
   10aba:	3ffe0cb7          	lui	s9,0x3ffe0
   10abe:	090c                	addi	a1,sp,144
   10ac0:	1108                	addi	a0,sp,160
   10ac2:	c8c6                	sw	a7,80(sp)
   10ac4:	d116                	sw	t0,160(sp)
   10ac6:	ce96                	sw	t0,92(sp)
   10ac8:	d37e                	sw	t6,164(sp)
   10aca:	ccfe                	sw	t6,88(sp)
   10acc:	d57a                	sw	t5,168(sp)
   10ace:	cafa                	sw	t5,84(sp)
   10ad0:	d756                	sw	s5,172(sp)
   10ad2:	c902                	sw	zero,144(sp)
   10ad4:	cb02                	sw	zero,148(sp)
   10ad6:	cd02                	sw	zero,152(sp)
   10ad8:	cf66                	sw	s9,156(sp)
   10ada:	4c6090ef          	jal	ra,19fa0 <__getf2>
   10ade:	48c6                	lw	a7,80(sp)
   10ae0:	02a04863          	bgtz	a0,10b10 <_vfprintf_r+0x6d4>
   10ae4:	42f6                	lw	t0,92(sp)
   10ae6:	4fe6                	lw	t6,88(sp)
   10ae8:	4f56                	lw	t5,84(sp)
   10aea:	090c                	addi	a1,sp,144
   10aec:	1108                	addi	a0,sp,160
   10aee:	d116                	sw	t0,160(sp)
   10af0:	d37e                	sw	t6,164(sp)
   10af2:	d57a                	sw	t5,168(sp)
   10af4:	d756                	sw	s5,172(sp)
   10af6:	c902                	sw	zero,144(sp)
   10af8:	cb02                	sw	zero,148(sp)
   10afa:	cd02                	sw	zero,152(sp)
   10afc:	cf66                	sw	s9,156(sp)
   10afe:	3fc090ef          	jal	ra,19efa <__eqtf2>
   10b02:	48c6                	lw	a7,80(sp)
   10b04:	14051063          	bnez	a0,10c44 <_vfprintf_r+0x808>
   10b08:	001a7a13          	andi	s4,s4,1
   10b0c:	120a0c63          	beqz	s4,10c44 <_vfprintf_r+0x808>
   10b10:	00fc4603          	lbu	a2,15(s8)
   10b14:	c1ee                	sw	s11,192(sp)
   10b16:	03000593          	li	a1,48
   10b1a:	468e                	lw	a3,192(sp)
   10b1c:	fff68793          	addi	a5,a3,-1
   10b20:	c1be                	sw	a5,192(sp)
   10b22:	fff6c783          	lbu	a5,-1(a3)
   10b26:	10c78063          	beq	a5,a2,10c26 <_vfprintf_r+0x7ea>
   10b2a:	03900613          	li	a2,57
   10b2e:	0ec79f63          	bne	a5,a2,10c2c <_vfprintf_r+0x7f0>
   10b32:	00ac4783          	lbu	a5,10(s8)
   10b36:	fef68fa3          	sb	a5,-1(a3)
   10b3a:	8a6e                	mv	s4,s11
   10b3c:	04700713          	li	a4,71
   10b40:	409a0a33          	sub	s4,s4,s1
   10b44:	5cea                	lw	s9,184(sp)
   10b46:	1ceb9e63          	bne	s7,a4,10d22 <_vfprintf_r+0x8e6>
   10b4a:	5775                	li	a4,-3
   10b4c:	00ecc463          	blt	s9,a4,10b54 <_vfprintf_r+0x718>
   10b50:	239b5d63          	bge	s6,s9,10d8a <_vfprintf_r+0x94e>
   10b54:	1d79                	addi	s10,s10,-2
   10b56:	fffc8693          	addi	a3,s9,-1 # 3ffdffff <__BSS_END__+0x3ffc139b>
   10b5a:	dd36                	sw	a3,184(sp)
   10b5c:	fdfd7613          	andi	a2,s10,-33
   10b60:	04100513          	li	a0,65
   10b64:	0ffd7713          	andi	a4,s10,255
   10b68:	4581                	li	a1,0
   10b6a:	00a61663          	bne	a2,a0,10b76 <_vfprintf_r+0x73a>
   10b6e:	073d                	addi	a4,a4,15
   10b70:	0ff77713          	andi	a4,a4,255
   10b74:	4585                	li	a1,1
   10b76:	12e10423          	sb	a4,296(sp)
   10b7a:	02b00793          	li	a5,43
   10b7e:	0006d763          	bgez	a3,10b8c <_vfprintf_r+0x750>
   10b82:	4685                	li	a3,1
   10b84:	419686b3          	sub	a3,a3,s9
   10b88:	02d00793          	li	a5,45
   10b8c:	12f104a3          	sb	a5,297(sp)
   10b90:	47a5                	li	a5,9
   10b92:	1cd7d363          	bge	a5,a3,10d58 <_vfprintf_r+0x91c>
   10b96:	13710713          	addi	a4,sp,311
   10b9a:	853a                	mv	a0,a4
   10b9c:	45a9                	li	a1,10
   10b9e:	4825                	li	a6,9
   10ba0:	02b6e7b3          	rem	a5,a3,a1
   10ba4:	fff70613          	addi	a2,a4,-1
   10ba8:	02b6c6b3          	div	a3,a3,a1
   10bac:	03078793          	addi	a5,a5,48 # 40030030 <__BSS_END__+0x400113cc>
   10bb0:	fef70fa3          	sb	a5,-1(a4)
   10bb4:	18d84963          	blt	a6,a3,10d46 <_vfprintf_r+0x90a>
   10bb8:	03068793          	addi	a5,a3,48
   10bbc:	fef60fa3          	sb	a5,-1(a2)
   10bc0:	1779                	addi	a4,a4,-2
   10bc2:	12a10613          	addi	a2,sp,298
   10bc6:	18a76263          	bltu	a4,a0,10d4a <_vfprintf_r+0x90e>
   10bca:	123c                	addi	a5,sp,296
   10bcc:	40f607b3          	sub	a5,a2,a5
   10bd0:	de3e                	sw	a5,60(sp)
   10bd2:	01478b33          	add	s6,a5,s4
   10bd6:	4785                	li	a5,1
   10bd8:	0147c563          	blt	a5,s4,10be2 <_vfprintf_r+0x7a6>
   10bdc:	00147793          	andi	a5,s0,1
   10be0:	c399                	beqz	a5,10be6 <_vfprintf_r+0x7aa>
   10be2:	5782                	lw	a5,32(sp)
   10be4:	9b3e                	add	s6,s6,a5
   10be6:	bff47413          	andi	s0,s0,-1025
   10bea:	10046793          	ori	a5,s0,256
   10bee:	d63e                	sw	a5,44(sp)
   10bf0:	4c01                	li	s8,0
   10bf2:	4b81                	li	s7,0
   10bf4:	4c81                	li	s9,0
   10bf6:	4796                	lw	a5,68(sp)
   10bf8:	c789                	beqz	a5,10c02 <_vfprintf_r+0x7c6>
   10bfa:	02d00713          	li	a4,45
   10bfe:	0ae10ba3          	sb	a4,183(sp)
   10c02:	5432                	lw	s0,44(sp)
   10c04:	4a81                	li	s5,0
   10c06:	ae05                	j	10f36 <_vfprintf_r+0xafa>
   10c08:	c602                	sw	zero,12(sp)
   10c0a:	1a24                	addi	s1,sp,312
   10c0c:	bb0d                	j	1093e <_vfprintf_r+0x502>
   10c0e:	c62a                	sw	a0,12(sp)
   10c10:	b33d                	j	1093e <_vfprintf_r+0x502>
   10c12:	c602                	sw	zero,12(sp)
   10c14:	4b19                	li	s6,6
   10c16:	b325                	j	1093e <_vfprintf_r+0x502>
   10c18:	c65a                	sw	s6,12(sp)
   10c1a:	4b05                	li	s6,1
   10c1c:	b30d                	j	1093e <_vfprintf_r+0x502>
   10c1e:	6c71                	lui	s8,0x1c
   10c20:	49cc0c13          	addi	s8,s8,1180 # 1c49c <zeroes.4447+0x34>
   10c24:	b3f1                	j	109f0 <_vfprintf_r+0x5b4>
   10c26:	feb68fa3          	sb	a1,-1(a3)
   10c2a:	bdc5                	j	10b1a <_vfprintf_r+0x6de>
   10c2c:	0785                	addi	a5,a5,1
   10c2e:	0ff7f793          	andi	a5,a5,255
   10c32:	b711                	j	10b36 <_vfprintf_r+0x6fa>
   10c34:	0a05                	addi	s4,s4,1
   10c36:	feea0fa3          	sb	a4,-1(s4)
   10c3a:	414a87b3          	sub	a5,s5,s4
   10c3e:	fe07dbe3          	bgez	a5,10c34 <_vfprintf_r+0x7f8>
   10c42:	bded                	j	10b3c <_vfprintf_r+0x700>
   10c44:	47a6                	lw	a5,72(sp)
   10c46:	8a6e                	mv	s4,s11
   10c48:	03000713          	li	a4,48
   10c4c:	00fd8ab3          	add	s5,s11,a5
   10c50:	b7ed                	j	10c3a <_vfprintf_r+0x7fe>
   10c52:	04600793          	li	a5,70
   10c56:	00fb8b63          	beq	s7,a5,10c6c <_vfprintf_r+0x830>
   10c5a:	04500793          	li	a5,69
   10c5e:	001b0a93          	addi	s5,s6,1
   10c62:	00fb8363          	beq	s7,a5,10c68 <_vfprintf_r+0x82c>
   10c66:	8ada                	mv	s5,s6
   10c68:	4609                	li	a2,2
   10c6a:	a019                	j	10c70 <_vfprintf_r+0x834>
   10c6c:	8ada                	mv	s5,s6
   10c6e:	460d                	li	a2,3
   10c70:	197c                	addi	a5,sp,188
   10c72:	0c010813          	addi	a6,sp,192
   10c76:	1938                	addi	a4,sp,184
   10c78:	86d6                	mv	a3,s5
   10c7a:	110c                	addi	a1,sp,160
   10c7c:	854e                	mv	a0,s3
   10c7e:	c8c6                	sw	a7,80(sp)
   10c80:	d172                	sw	t3,160(sp)
   10c82:	c4f2                	sw	t3,72(sp)
   10c84:	d36e                	sw	s11,164(sp)
   10c86:	d566                	sw	s9,168(sp)
   10c88:	d752                	sw	s4,172(sp)
   10c8a:	478020ef          	jal	ra,13102 <_ldtoa_r>
   10c8e:	04700793          	li	a5,71
   10c92:	84aa                	mv	s1,a0
   10c94:	4e26                	lw	t3,72(sp)
   10c96:	48c6                	lw	a7,80(sp)
   10c98:	00fb9563          	bne	s7,a5,10ca2 <_vfprintf_r+0x866>
   10c9c:	00147793          	andi	a5,s0,1
   10ca0:	c7b5                	beqz	a5,10d0c <_vfprintf_r+0x8d0>
   10ca2:	04600793          	li	a5,70
   10ca6:	01548c33          	add	s8,s1,s5
   10caa:	02fb9f63          	bne	s7,a5,10ce8 <_vfprintf_r+0x8ac>
   10cae:	0004c703          	lbu	a4,0(s1)
   10cb2:	03000793          	li	a5,48
   10cb6:	02f71763          	bne	a4,a5,10ce4 <_vfprintf_r+0x8a8>
   10cba:	090c                	addi	a1,sp,144
   10cbc:	1108                	addi	a0,sp,160
   10cbe:	c8c6                	sw	a7,80(sp)
   10cc0:	d172                	sw	t3,160(sp)
   10cc2:	c4f2                	sw	t3,72(sp)
   10cc4:	d36e                	sw	s11,164(sp)
   10cc6:	d566                	sw	s9,168(sp)
   10cc8:	d752                	sw	s4,172(sp)
   10cca:	c902                	sw	zero,144(sp)
   10ccc:	cb02                	sw	zero,148(sp)
   10cce:	cd02                	sw	zero,152(sp)
   10cd0:	cf02                	sw	zero,156(sp)
   10cd2:	228090ef          	jal	ra,19efa <__eqtf2>
   10cd6:	4e26                	lw	t3,72(sp)
   10cd8:	48c6                	lw	a7,80(sp)
   10cda:	c509                	beqz	a0,10ce4 <_vfprintf_r+0x8a8>
   10cdc:	4785                	li	a5,1
   10cde:	41578ab3          	sub	s5,a5,s5
   10ce2:	dd56                	sw	s5,184(sp)
   10ce4:	57ea                	lw	a5,184(sp)
   10ce6:	9c3e                	add	s8,s8,a5
   10ce8:	090c                	addi	a1,sp,144
   10cea:	1108                	addi	a0,sp,160
   10cec:	c4c6                	sw	a7,72(sp)
   10cee:	d172                	sw	t3,160(sp)
   10cf0:	d36e                	sw	s11,164(sp)
   10cf2:	d566                	sw	s9,168(sp)
   10cf4:	d752                	sw	s4,172(sp)
   10cf6:	c902                	sw	zero,144(sp)
   10cf8:	cb02                	sw	zero,148(sp)
   10cfa:	cd02                	sw	zero,152(sp)
   10cfc:	cf02                	sw	zero,156(sp)
   10cfe:	1fc090ef          	jal	ra,19efa <__eqtf2>
   10d02:	48a6                	lw	a7,72(sp)
   10d04:	03000713          	li	a4,48
   10d08:	e909                	bnez	a0,10d1a <_vfprintf_r+0x8de>
   10d0a:	c1e2                	sw	s8,192(sp)
   10d0c:	4a0e                	lw	s4,192(sp)
   10d0e:	b53d                	j	10b3c <_vfprintf_r+0x700>
   10d10:	00178693          	addi	a3,a5,1
   10d14:	c1b6                	sw	a3,192(sp)
   10d16:	00e78023          	sb	a4,0(a5)
   10d1a:	478e                	lw	a5,192(sp)
   10d1c:	ff87eae3          	bltu	a5,s8,10d10 <_vfprintf_r+0x8d4>
   10d20:	b7f5                	j	10d0c <_vfprintf_r+0x8d0>
   10d22:	04600713          	li	a4,70
   10d26:	e2eb98e3          	bne	s7,a4,10b56 <_vfprintf_r+0x71a>
   10d2a:	05905763          	blez	s9,10d78 <_vfprintf_r+0x93c>
   10d2e:	000b1563          	bnez	s6,10d38 <_vfprintf_r+0x8fc>
   10d32:	00147713          	andi	a4,s0,1
   10d36:	cf41                	beqz	a4,10dce <_vfprintf_r+0x992>
   10d38:	5782                	lw	a5,32(sp)
   10d3a:	00fc8733          	add	a4,s9,a5
   10d3e:	9b3a                	add	s6,s6,a4
   10d40:	06600d13          	li	s10,102
   10d44:	a895                	j	10db8 <_vfprintf_r+0x97c>
   10d46:	8732                	mv	a4,a2
   10d48:	bda1                	j	10ba0 <_vfprintf_r+0x764>
   10d4a:	0705                	addi	a4,a4,1
   10d4c:	fff74783          	lbu	a5,-1(a4)
   10d50:	0605                	addi	a2,a2,1
   10d52:	fef60fa3          	sb	a5,-1(a2)
   10d56:	bd85                	j	10bc6 <_vfprintf_r+0x78a>
   10d58:	12a10713          	addi	a4,sp,298
   10d5c:	e599                	bnez	a1,10d6a <_vfprintf_r+0x92e>
   10d5e:	03000793          	li	a5,48
   10d62:	12f10523          	sb	a5,298(sp)
   10d66:	12b10713          	addi	a4,sp,299
   10d6a:	03068793          	addi	a5,a3,48
   10d6e:	00170613          	addi	a2,a4,1
   10d72:	00f70023          	sb	a5,0(a4)
   10d76:	bd91                	j	10bca <_vfprintf_r+0x78e>
   10d78:	000b1563          	bnez	s6,10d82 <_vfprintf_r+0x946>
   10d7c:	00147713          	andi	a4,s0,1
   10d80:	cb29                	beqz	a4,10dd2 <_vfprintf_r+0x996>
   10d82:	5782                	lw	a5,32(sp)
   10d84:	00178713          	addi	a4,a5,1
   10d88:	bf5d                	j	10d3e <_vfprintf_r+0x902>
   10d8a:	014ccc63          	blt	s9,s4,10da2 <_vfprintf_r+0x966>
   10d8e:	00147713          	andi	a4,s0,1
   10d92:	8b66                	mv	s6,s9
   10d94:	c701                	beqz	a4,10d9c <_vfprintf_r+0x960>
   10d96:	5782                	lw	a5,32(sp)
   10d98:	00fc8b33          	add	s6,s9,a5
   10d9c:	06700d13          	li	s10,103
   10da0:	a821                	j	10db8 <_vfprintf_r+0x97c>
   10da2:	5782                	lw	a5,32(sp)
   10da4:	06700d13          	li	s10,103
   10da8:	00fa0b33          	add	s6,s4,a5
   10dac:	01904663          	bgtz	s9,10db8 <_vfprintf_r+0x97c>
   10db0:	419b0333          	sub	t1,s6,s9
   10db4:	00130b13          	addi	s6,t1,1
   10db8:	40047b93          	andi	s7,s0,1024
   10dbc:	4c01                	li	s8,0
   10dbe:	e20b8ce3          	beqz	s7,10bf6 <_vfprintf_r+0x7ba>
   10dc2:	4b81                	li	s7,0
   10dc4:	e39059e3          	blez	s9,10bf6 <_vfprintf_r+0x7ba>
   10dc8:	0ff00693          	li	a3,255
   10dcc:	a015                	j	10df0 <_vfprintf_r+0x9b4>
   10dce:	8b66                	mv	s6,s9
   10dd0:	bf85                	j	10d40 <_vfprintf_r+0x904>
   10dd2:	06600d13          	li	s10,102
   10dd6:	4b05                	li	s6,1
   10dd8:	b7c5                	j	10db8 <_vfprintf_r+0x97c>
   10dda:	03975063          	bge	a4,s9,10dfa <_vfprintf_r+0x9be>
   10dde:	47c2                	lw	a5,16(sp)
   10de0:	40ec8cb3          	sub	s9,s9,a4
   10de4:	0017c703          	lbu	a4,1(a5)
   10de8:	c305                	beqz	a4,10e08 <_vfprintf_r+0x9cc>
   10dea:	0785                	addi	a5,a5,1
   10dec:	0b85                	addi	s7,s7,1
   10dee:	c83e                	sw	a5,16(sp)
   10df0:	47c2                	lw	a5,16(sp)
   10df2:	0007c703          	lbu	a4,0(a5)
   10df6:	fed712e3          	bne	a4,a3,10dda <_vfprintf_r+0x99e>
   10dfa:	57c2                	lw	a5,48(sp)
   10dfc:	018b8733          	add	a4,s7,s8
   10e00:	02f70733          	mul	a4,a4,a5
   10e04:	9b3a                	add	s6,s6,a4
   10e06:	bbc5                	j	10bf6 <_vfprintf_r+0x7ba>
   10e08:	0c05                	addi	s8,s8,1
   10e0a:	b7dd                	j	10df0 <_vfprintf_r+0x9b4>
   10e0c:	004a8713          	addi	a4,s5,4
   10e10:	cc3a                	sw	a4,24(sp)
   10e12:	02047713          	andi	a4,s0,32
   10e16:	000aa783          	lw	a5,0(s5)
   10e1a:	cb09                	beqz	a4,10e2c <_vfprintf_r+0x9f0>
   10e1c:	5712                	lw	a4,36(sp)
   10e1e:	c398                	sw	a4,0(a5)
   10e20:	877d                	srai	a4,a4,0x1f
   10e22:	c3d8                	sw	a4,4(a5)
   10e24:	4ae2                	lw	s5,24(sp)
   10e26:	44f2                	lw	s1,28(sp)
   10e28:	f1eff06f          	j	10546 <_vfprintf_r+0x10a>
   10e2c:	01047713          	andi	a4,s0,16
   10e30:	c701                	beqz	a4,10e38 <_vfprintf_r+0x9fc>
   10e32:	5712                	lw	a4,36(sp)
   10e34:	c398                	sw	a4,0(a5)
   10e36:	b7fd                	j	10e24 <_vfprintf_r+0x9e8>
   10e38:	04047713          	andi	a4,s0,64
   10e3c:	c709                	beqz	a4,10e46 <_vfprintf_r+0xa0a>
   10e3e:	5712                	lw	a4,36(sp)
   10e40:	00e79023          	sh	a4,0(a5)
   10e44:	b7c5                	j	10e24 <_vfprintf_r+0x9e8>
   10e46:	20047413          	andi	s0,s0,512
   10e4a:	d465                	beqz	s0,10e32 <_vfprintf_r+0x9f6>
   10e4c:	5712                	lw	a4,36(sp)
   10e4e:	00e78023          	sb	a4,0(a5)
   10e52:	bfc9                	j	10e24 <_vfprintf_r+0x9e8>
   10e54:	01046413          	ori	s0,s0,16
   10e58:	02047793          	andi	a5,s0,32
   10e5c:	c3a1                	beqz	a5,10e9c <_vfprintf_r+0xa60>
   10e5e:	0a9d                	addi	s5,s5,7
   10e60:	ff8afa93          	andi	s5,s5,-8
   10e64:	000aac83          	lw	s9,0(s5)
   10e68:	004aac03          	lw	s8,4(s5)
   10e6c:	008a8793          	addi	a5,s5,8
   10e70:	cc3e                	sw	a5,24(sp)
   10e72:	bff47413          	andi	s0,s0,-1025
   10e76:	4781                	li	a5,0
   10e78:	0a010ba3          	sb	zero,183(sp)
   10e7c:	577d                	li	a4,-1
   10e7e:	2eeb0d63          	beq	s6,a4,11178 <_vfprintf_r+0xd3c>
   10e82:	8722                	mv	a4,s0
   10e84:	018ce6b3          	or	a3,s9,s8
   10e88:	f7f47413          	andi	s0,s0,-129
   10e8c:	2e069663          	bnez	a3,11178 <_vfprintf_r+0xd3c>
   10e90:	3e0b0e63          	beqz	s6,1128c <_vfprintf_r+0xe50>
   10e94:	4705                	li	a4,1
   10e96:	2ee79463          	bne	a5,a4,1117e <_vfprintf_r+0xd42>
   10e9a:	b221                	j	107a2 <_vfprintf_r+0x366>
   10e9c:	004a8793          	addi	a5,s5,4
   10ea0:	cc3e                	sw	a5,24(sp)
   10ea2:	01047793          	andi	a5,s0,16
   10ea6:	c781                	beqz	a5,10eae <_vfprintf_r+0xa72>
   10ea8:	000aac83          	lw	s9,0(s5)
   10eac:	a031                	j	10eb8 <_vfprintf_r+0xa7c>
   10eae:	04047793          	andi	a5,s0,64
   10eb2:	c789                	beqz	a5,10ebc <_vfprintf_r+0xa80>
   10eb4:	000adc83          	lhu	s9,0(s5)
   10eb8:	4c01                	li	s8,0
   10eba:	bf65                	j	10e72 <_vfprintf_r+0xa36>
   10ebc:	20047793          	andi	a5,s0,512
   10ec0:	d7e5                	beqz	a5,10ea8 <_vfprintf_r+0xa6c>
   10ec2:	000acc83          	lbu	s9,0(s5)
   10ec6:	bfcd                	j	10eb8 <_vfprintf_r+0xa7c>
   10ec8:	004a8793          	addi	a5,s5,4
   10ecc:	cc3e                	sw	a5,24(sp)
   10ece:	77e1                	lui	a5,0xffff8
   10ed0:	8307c793          	xori	a5,a5,-2000
   10ed4:	12f11223          	sh	a5,292(sp)
   10ed8:	67f1                	lui	a5,0x1c
   10eda:	48878793          	addi	a5,a5,1160 # 1c488 <zeroes.4447+0x20>
   10ede:	c0be                	sw	a5,64(sp)
   10ee0:	000aac83          	lw	s9,0(s5)
   10ee4:	4c01                	li	s8,0
   10ee6:	00246413          	ori	s0,s0,2
   10eea:	4789                	li	a5,2
   10eec:	07800d13          	li	s10,120
   10ef0:	b761                	j	10e78 <_vfprintf_r+0xa3c>
   10ef2:	004a8793          	addi	a5,s5,4
   10ef6:	cc3e                	sw	a5,24(sp)
   10ef8:	0a010ba3          	sb	zero,183(sp)
   10efc:	57fd                	li	a5,-1
   10efe:	d646                	sw	a7,44(sp)
   10f00:	000aa483          	lw	s1,0(s5)
   10f04:	00fb0f63          	beq	s6,a5,10f22 <_vfprintf_r+0xae6>
   10f08:	865a                	mv	a2,s6
   10f0a:	4581                	li	a1,0
   10f0c:	8526                	mv	a0,s1
   10f0e:	228030ef          	jal	ra,14136 <memchr>
   10f12:	c62a                	sw	a0,12(sp)
   10f14:	58b2                	lw	a7,44(sp)
   10f16:	940504e3          	beqz	a0,1085e <_vfprintf_r+0x422>
   10f1a:	40950b33          	sub	s6,a0,s1
   10f1e:	c602                	sw	zero,12(sp)
   10f20:	ba3d                	j	1085e <_vfprintf_r+0x422>
   10f22:	8526                	mv	a0,s1
   10f24:	cf8ff0ef          	jal	ra,1041c <strlen>
   10f28:	58b2                	lw	a7,44(sp)
   10f2a:	8b2a                	mv	s6,a0
   10f2c:	c602                	sw	zero,12(sp)
   10f2e:	4a81                	li	s5,0
   10f30:	4c01                	li	s8,0
   10f32:	4b81                	li	s7,0
   10f34:	4c81                	li	s9,0
   10f36:	d656                	sw	s5,44(sp)
   10f38:	016ad363          	bge	s5,s6,10f3e <_vfprintf_r+0xb02>
   10f3c:	d65a                	sw	s6,44(sp)
   10f3e:	0b714703          	lbu	a4,183(sp)
   10f42:	c701                	beqz	a4,10f4a <_vfprintf_r+0xb0e>
   10f44:	57b2                	lw	a5,44(sp)
   10f46:	0785                	addi	a5,a5,1
   10f48:	d63e                	sw	a5,44(sp)
   10f4a:	00247d93          	andi	s11,s0,2
   10f4e:	000d8563          	beqz	s11,10f58 <_vfprintf_r+0xb1c>
   10f52:	57b2                	lw	a5,44(sp)
   10f54:	0789                	addi	a5,a5,2
   10f56:	d63e                	sw	a5,44(sp)
   10f58:	08447793          	andi	a5,s0,132
   10f5c:	c2be                	sw	a5,68(sp)
   10f5e:	e7b9                	bnez	a5,10fac <_vfprintf_r+0xb70>
   10f60:	57a2                	lw	a5,40(sp)
   10f62:	5732                	lw	a4,44(sp)
   10f64:	40e78733          	sub	a4,a5,a4
   10f68:	04e05263          	blez	a4,10fac <_vfprintf_r+0xb70>
   10f6c:	6e71                	lui	t3,0x1c
   10f6e:	4ec1                	li	t4,16
   10f70:	458e0e13          	addi	t3,t3,1112 # 1c458 <blanks.4446>
   10f74:	4f1d                	li	t5,7
   10f76:	46ae                	lw	a3,200(sp)
   10f78:	01c8a023          	sw	t3,0(a7)
   10f7c:	463e                	lw	a2,204(sp)
   10f7e:	0685                	addi	a3,a3,1
   10f80:	00888593          	addi	a1,a7,8
   10f84:	32eec763          	blt	t4,a4,112b2 <_vfprintf_r+0xe76>
   10f88:	00e8a223          	sw	a4,4(a7)
   10f8c:	9732                	add	a4,a4,a2
   10f8e:	c7ba                	sw	a4,204(sp)
   10f90:	c5b6                	sw	a3,200(sp)
   10f92:	471d                	li	a4,7
   10f94:	88ae                	mv	a7,a1
   10f96:	00d75b63          	bge	a4,a3,10fac <_vfprintf_r+0xb70>
   10f9a:	01d0                	addi	a2,sp,196
   10f9c:	85ca                	mv	a1,s2
   10f9e:	854e                	mv	a0,s3
   10fa0:	4c5050ef          	jal	ra,16c64 <__sprint_r>
   10fa4:	1e0518e3          	bnez	a0,11994 <_vfprintf_r+0x1558>
   10fa8:	0e410893          	addi	a7,sp,228
   10fac:	0b714703          	lbu	a4,183(sp)
   10fb0:	cb1d                	beqz	a4,10fe6 <_vfprintf_r+0xbaa>
   10fb2:	0b710713          	addi	a4,sp,183
   10fb6:	00e8a023          	sw	a4,0(a7)
   10fba:	4705                	li	a4,1
   10fbc:	00e8a223          	sw	a4,4(a7)
   10fc0:	473e                	lw	a4,204(sp)
   10fc2:	469d                	li	a3,7
   10fc4:	08a1                	addi	a7,a7,8
   10fc6:	0705                	addi	a4,a4,1
   10fc8:	c7ba                	sw	a4,204(sp)
   10fca:	472e                	lw	a4,200(sp)
   10fcc:	0705                	addi	a4,a4,1
   10fce:	c5ba                	sw	a4,200(sp)
   10fd0:	00e6db63          	bge	a3,a4,10fe6 <_vfprintf_r+0xbaa>
   10fd4:	01d0                	addi	a2,sp,196
   10fd6:	85ca                	mv	a1,s2
   10fd8:	854e                	mv	a0,s3
   10fda:	48b050ef          	jal	ra,16c64 <__sprint_r>
   10fde:	1a051be3          	bnez	a0,11994 <_vfprintf_r+0x1558>
   10fe2:	0e410893          	addi	a7,sp,228
   10fe6:	020d8b63          	beqz	s11,1101c <_vfprintf_r+0xbe0>
   10fea:	1258                	addi	a4,sp,292
   10fec:	00e8a023          	sw	a4,0(a7)
   10ff0:	4709                	li	a4,2
   10ff2:	00e8a223          	sw	a4,4(a7)
   10ff6:	473e                	lw	a4,204(sp)
   10ff8:	469d                	li	a3,7
   10ffa:	08a1                	addi	a7,a7,8
   10ffc:	0709                	addi	a4,a4,2
   10ffe:	c7ba                	sw	a4,204(sp)
   11000:	472e                	lw	a4,200(sp)
   11002:	0705                	addi	a4,a4,1
   11004:	c5ba                	sw	a4,200(sp)
   11006:	00e6db63          	bge	a3,a4,1101c <_vfprintf_r+0xbe0>
   1100a:	01d0                	addi	a2,sp,196
   1100c:	85ca                	mv	a1,s2
   1100e:	854e                	mv	a0,s3
   11010:	455050ef          	jal	ra,16c64 <__sprint_r>
   11014:	180510e3          	bnez	a0,11994 <_vfprintf_r+0x1558>
   11018:	0e410893          	addi	a7,sp,228
   1101c:	4796                	lw	a5,68(sp)
   1101e:	08000713          	li	a4,128
   11022:	04e79663          	bne	a5,a4,1106e <_vfprintf_r+0xc32>
   11026:	57a2                	lw	a5,40(sp)
   11028:	5732                	lw	a4,44(sp)
   1102a:	40e78db3          	sub	s11,a5,a4
   1102e:	05b05063          	blez	s11,1106e <_vfprintf_r+0xc32>
   11032:	47c1                	li	a5,16
   11034:	4e1d                	li	t3,7
   11036:	472e                	lw	a4,200(sp)
   11038:	46be                	lw	a3,204(sp)
   1103a:	00888613          	addi	a2,a7,8
   1103e:	0705                	addi	a4,a4,1
   11040:	2bb7c363          	blt	a5,s11,112e6 <_vfprintf_r+0xeaa>
   11044:	47d2                	lw	a5,20(sp)
   11046:	01b8a223          	sw	s11,4(a7)
   1104a:	9db6                	add	s11,s11,a3
   1104c:	00f8a023          	sw	a5,0(a7)
   11050:	c7ee                	sw	s11,204(sp)
   11052:	c5ba                	sw	a4,200(sp)
   11054:	469d                	li	a3,7
   11056:	88b2                	mv	a7,a2
   11058:	00e6db63          	bge	a3,a4,1106e <_vfprintf_r+0xc32>
   1105c:	01d0                	addi	a2,sp,196
   1105e:	85ca                	mv	a1,s2
   11060:	854e                	mv	a0,s3
   11062:	403050ef          	jal	ra,16c64 <__sprint_r>
   11066:	120517e3          	bnez	a0,11994 <_vfprintf_r+0x1558>
   1106a:	0e410893          	addi	a7,sp,228
   1106e:	416a8ab3          	sub	s5,s5,s6
   11072:	05505063          	blez	s5,110b2 <_vfprintf_r+0xc76>
   11076:	4dc1                	li	s11,16
   11078:	481d                	li	a6,7
   1107a:	47d2                	lw	a5,20(sp)
   1107c:	472e                	lw	a4,200(sp)
   1107e:	46be                	lw	a3,204(sp)
   11080:	00f8a023          	sw	a5,0(a7)
   11084:	0705                	addi	a4,a4,1
   11086:	00888613          	addi	a2,a7,8
   1108a:	295dc763          	blt	s11,s5,11318 <_vfprintf_r+0xedc>
   1108e:	0158a223          	sw	s5,4(a7)
   11092:	9ab6                	add	s5,s5,a3
   11094:	c7d6                	sw	s5,204(sp)
   11096:	c5ba                	sw	a4,200(sp)
   11098:	469d                	li	a3,7
   1109a:	88b2                	mv	a7,a2
   1109c:	00e6db63          	bge	a3,a4,110b2 <_vfprintf_r+0xc76>
   110a0:	01d0                	addi	a2,sp,196
   110a2:	85ca                	mv	a1,s2
   110a4:	854e                	mv	a0,s3
   110a6:	3bf050ef          	jal	ra,16c64 <__sprint_r>
   110aa:	0e0515e3          	bnez	a0,11994 <_vfprintf_r+0x1558>
   110ae:	0e410893          	addi	a7,sp,228
   110b2:	10047713          	andi	a4,s0,256
   110b6:	4dbe                	lw	s11,204(sp)
   110b8:	28071463          	bnez	a4,11340 <_vfprintf_r+0xf04>
   110bc:	01bb0333          	add	t1,s6,s11
   110c0:	0098a023          	sw	s1,0(a7)
   110c4:	0168a223          	sw	s6,4(a7)
   110c8:	c79a                	sw	t1,204(sp)
   110ca:	47ae                	lw	a5,200(sp)
   110cc:	471d                	li	a4,7
   110ce:	08a1                	addi	a7,a7,8
   110d0:	0785                	addi	a5,a5,1
   110d2:	c5be                	sw	a5,200(sp)
   110d4:	34f75163          	bge	a4,a5,11416 <_vfprintf_r+0xfda>
   110d8:	01d0                	addi	a2,sp,196
   110da:	85ca                	mv	a1,s2
   110dc:	854e                	mv	a0,s3
   110de:	387050ef          	jal	ra,16c64 <__sprint_r>
   110e2:	0a0519e3          	bnez	a0,11994 <_vfprintf_r+0x1558>
   110e6:	0e410893          	addi	a7,sp,228
   110ea:	a635                	j	11416 <_vfprintf_r+0xfda>
   110ec:	01046413          	ori	s0,s0,16
   110f0:	02047793          	andi	a5,s0,32
   110f4:	cf89                	beqz	a5,1110e <_vfprintf_r+0xcd2>
   110f6:	0a9d                	addi	s5,s5,7
   110f8:	ff8afa93          	andi	s5,s5,-8
   110fc:	000aac83          	lw	s9,0(s5)
   11100:	004aac03          	lw	s8,4(s5)
   11104:	008a8793          	addi	a5,s5,8
   11108:	cc3e                	sw	a5,24(sp)
   1110a:	4785                	li	a5,1
   1110c:	b3b5                	j	10e78 <_vfprintf_r+0xa3c>
   1110e:	004a8793          	addi	a5,s5,4
   11112:	cc3e                	sw	a5,24(sp)
   11114:	01047793          	andi	a5,s0,16
   11118:	c781                	beqz	a5,11120 <_vfprintf_r+0xce4>
   1111a:	000aac83          	lw	s9,0(s5)
   1111e:	a031                	j	1112a <_vfprintf_r+0xcee>
   11120:	04047793          	andi	a5,s0,64
   11124:	c789                	beqz	a5,1112e <_vfprintf_r+0xcf2>
   11126:	000adc83          	lhu	s9,0(s5)
   1112a:	4c01                	li	s8,0
   1112c:	bff9                	j	1110a <_vfprintf_r+0xcce>
   1112e:	20047793          	andi	a5,s0,512
   11132:	d7e5                	beqz	a5,1111a <_vfprintf_r+0xcde>
   11134:	000acc83          	lbu	s9,0(s5)
   11138:	bfcd                	j	1112a <_vfprintf_r+0xcee>
   1113a:	67f1                	lui	a5,0x1c
   1113c:	48878793          	addi	a5,a5,1160 # 1c488 <zeroes.4447+0x20>
   11140:	c9eff06f          	j	105de <_vfprintf_r+0x1a2>
   11144:	004a8793          	addi	a5,s5,4
   11148:	cc3e                	sw	a5,24(sp)
   1114a:	01047793          	andi	a5,s0,16
   1114e:	c781                	beqz	a5,11156 <_vfprintf_r+0xd1a>
   11150:	000aac83          	lw	s9,0(s5)
   11154:	a031                	j	11160 <_vfprintf_r+0xd24>
   11156:	04047793          	andi	a5,s0,64
   1115a:	c791                	beqz	a5,11166 <_vfprintf_r+0xd2a>
   1115c:	000adc83          	lhu	s9,0(s5)
   11160:	4c01                	li	s8,0
   11162:	c9aff06f          	j	105fc <_vfprintf_r+0x1c0>
   11166:	20047793          	andi	a5,s0,512
   1116a:	d3fd                	beqz	a5,11150 <_vfprintf_r+0xd14>
   1116c:	000acc83          	lbu	s9,0(s5)
   11170:	bfc5                	j	11160 <_vfprintf_r+0xd24>
   11172:	8722                	mv	a4,s0
   11174:	4785                	li	a5,1
   11176:	b339                	j	10e84 <_vfprintf_r+0xa48>
   11178:	4705                	li	a4,1
   1117a:	e0e78f63          	beq	a5,a4,10798 <_vfprintf_r+0x35c>
   1117e:	4709                	li	a4,2
   11180:	0ee78063          	beq	a5,a4,11260 <_vfprintf_r+0xe24>
   11184:	0b7c                	addi	a5,sp,412
   11186:	01dc1693          	slli	a3,s8,0x1d
   1118a:	007cf713          	andi	a4,s9,7
   1118e:	003cdc93          	srli	s9,s9,0x3
   11192:	03070713          	addi	a4,a4,48
   11196:	0196ecb3          	or	s9,a3,s9
   1119a:	003c5c13          	srli	s8,s8,0x3
   1119e:	fee78fa3          	sb	a4,-1(a5)
   111a2:	018ce6b3          	or	a3,s9,s8
   111a6:	fff78493          	addi	s1,a5,-1
   111aa:	e695                	bnez	a3,111d6 <_vfprintf_r+0xd9a>
   111ac:	00147693          	andi	a3,s0,1
   111b0:	ca89                	beqz	a3,111c2 <_vfprintf_r+0xd86>
   111b2:	03000693          	li	a3,48
   111b6:	00d70663          	beq	a4,a3,111c2 <_vfprintf_r+0xd86>
   111ba:	fed48fa3          	sb	a3,-1(s1)
   111be:	ffe78493          	addi	s1,a5,-2
   111c2:	19c10313          	addi	t1,sp,412
   111c6:	8ada                	mv	s5,s6
   111c8:	c602                	sw	zero,12(sp)
   111ca:	40930b33          	sub	s6,t1,s1
   111ce:	4c01                	li	s8,0
   111d0:	4b81                	li	s7,0
   111d2:	4c81                	li	s9,0
   111d4:	b38d                	j	10f36 <_vfprintf_r+0xafa>
   111d6:	87a6                	mv	a5,s1
   111d8:	b77d                	j	11186 <_vfprintf_r+0xd4a>
   111da:	4a01                	li	s4,0
   111dc:	19c10d93          	addi	s11,sp,412
   111e0:	40047a93          	andi	s5,s0,1024
   111e4:	4ba5                	li	s7,9
   111e6:	4629                	li	a2,10
   111e8:	4681                	li	a3,0
   111ea:	8566                	mv	a0,s9
   111ec:	85e2                	mv	a1,s8
   111ee:	c646                	sw	a7,12(sp)
   111f0:	032080ef          	jal	ra,19222 <__umoddi3>
   111f4:	03050513          	addi	a0,a0,48
   111f8:	fead8fa3          	sb	a0,-1(s11)
   111fc:	fffd8493          	addi	s1,s11,-1
   11200:	0a05                	addi	s4,s4,1
   11202:	48b2                	lw	a7,12(sp)
   11204:	040a8063          	beqz	s5,11244 <_vfprintf_r+0xe08>
   11208:	47c2                	lw	a5,16(sp)
   1120a:	0007c783          	lbu	a5,0(a5)
   1120e:	02fa1b63          	bne	s4,a5,11244 <_vfprintf_r+0xe08>
   11212:	0ff00793          	li	a5,255
   11216:	02fa0763          	beq	s4,a5,11244 <_vfprintf_r+0xe08>
   1121a:	000c1463          	bnez	s8,11222 <_vfprintf_r+0xde6>
   1121e:	039bf363          	bgeu	s7,s9,11244 <_vfprintf_r+0xe08>
   11222:	57c2                	lw	a5,48(sp)
   11224:	55e2                	lw	a1,56(sp)
   11226:	c646                	sw	a7,12(sp)
   11228:	8c9d                	sub	s1,s1,a5
   1122a:	863e                	mv	a2,a5
   1122c:	8526                	mv	a0,s1
   1122e:	454040ef          	jal	ra,15682 <strncpy>
   11232:	47c2                	lw	a5,16(sp)
   11234:	4a01                	li	s4,0
   11236:	48b2                	lw	a7,12(sp)
   11238:	0017c783          	lbu	a5,1(a5)
   1123c:	c781                	beqz	a5,11244 <_vfprintf_r+0xe08>
   1123e:	47c2                	lw	a5,16(sp)
   11240:	0785                	addi	a5,a5,1
   11242:	c83e                	sw	a5,16(sp)
   11244:	8566                	mv	a0,s9
   11246:	85e2                	mv	a1,s8
   11248:	4629                	li	a2,10
   1124a:	4681                	li	a3,0
   1124c:	c646                	sw	a7,12(sp)
   1124e:	47b070ef          	jal	ra,18ec8 <__udivdi3>
   11252:	8c2e                	mv	s8,a1
   11254:	8dc9                	or	a1,a1,a0
   11256:	8caa                	mv	s9,a0
   11258:	48b2                	lw	a7,12(sp)
   1125a:	d5a5                	beqz	a1,111c2 <_vfprintf_r+0xd86>
   1125c:	8da6                	mv	s11,s1
   1125e:	b761                	j	111e6 <_vfprintf_r+0xdaa>
   11260:	0b64                	addi	s1,sp,412
   11262:	4706                	lw	a4,64(sp)
   11264:	00fcf793          	andi	a5,s9,15
   11268:	14fd                	addi	s1,s1,-1
   1126a:	97ba                	add	a5,a5,a4
   1126c:	0007c783          	lbu	a5,0(a5)
   11270:	004cdc93          	srli	s9,s9,0x4
   11274:	00f48023          	sb	a5,0(s1)
   11278:	01cc1793          	slli	a5,s8,0x1c
   1127c:	0197ecb3          	or	s9,a5,s9
   11280:	004c5c13          	srli	s8,s8,0x4
   11284:	018ce7b3          	or	a5,s9,s8
   11288:	ffe9                	bnez	a5,11262 <_vfprintf_r+0xe26>
   1128a:	bf25                	j	111c2 <_vfprintf_r+0xd86>
   1128c:	0b64                	addi	s1,sp,412
   1128e:	fb95                	bnez	a5,111c2 <_vfprintf_r+0xd86>
   11290:	8b05                	andi	a4,a4,1
   11292:	db05                	beqz	a4,111c2 <_vfprintf_r+0xd86>
   11294:	03000793          	li	a5,48
   11298:	18f10da3          	sb	a5,411(sp)
   1129c:	d0eff06f          	j	107aa <_vfprintf_r+0x36e>
   112a0:	720d0b63          	beqz	s10,119d6 <_vfprintf_r+0x159a>
   112a4:	13a10c23          	sb	s10,312(sp)
   112a8:	0a010ba3          	sb	zero,183(sp)
   112ac:	cc56                	sw	s5,24(sp)
   112ae:	c98ff06f          	j	10746 <_vfprintf_r+0x30a>
   112b2:	0641                	addi	a2,a2,16
   112b4:	01d8a223          	sw	t4,4(a7)
   112b8:	c7b2                	sw	a2,204(sp)
   112ba:	c5b6                	sw	a3,200(sp)
   112bc:	02df5263          	bge	t5,a3,112e0 <_vfprintf_r+0xea4>
   112c0:	01d0                	addi	a2,sp,196
   112c2:	85ca                	mv	a1,s2
   112c4:	854e                	mv	a0,s3
   112c6:	ccfa                	sw	t5,88(sp)
   112c8:	caf2                	sw	t3,84(sp)
   112ca:	c8f6                	sw	t4,80(sp)
   112cc:	c4ba                	sw	a4,72(sp)
   112ce:	197050ef          	jal	ra,16c64 <__sprint_r>
   112d2:	6c051163          	bnez	a0,11994 <_vfprintf_r+0x1558>
   112d6:	4f66                	lw	t5,88(sp)
   112d8:	4e56                	lw	t3,84(sp)
   112da:	4ec6                	lw	t4,80(sp)
   112dc:	4726                	lw	a4,72(sp)
   112de:	11cc                	addi	a1,sp,228
   112e0:	1741                	addi	a4,a4,-16
   112e2:	88ae                	mv	a7,a1
   112e4:	b949                	j	10f76 <_vfprintf_r+0xb3a>
   112e6:	45d2                	lw	a1,20(sp)
   112e8:	06c1                	addi	a3,a3,16
   112ea:	00f8a223          	sw	a5,4(a7)
   112ee:	00b8a023          	sw	a1,0(a7)
   112f2:	c7b6                	sw	a3,204(sp)
   112f4:	c5ba                	sw	a4,200(sp)
   112f6:	00ee5e63          	bge	t3,a4,11312 <_vfprintf_r+0xed6>
   112fa:	01d0                	addi	a2,sp,196
   112fc:	85ca                	mv	a1,s2
   112fe:	854e                	mv	a0,s3
   11300:	c4f2                	sw	t3,72(sp)
   11302:	c2be                	sw	a5,68(sp)
   11304:	161050ef          	jal	ra,16c64 <__sprint_r>
   11308:	68051663          	bnez	a0,11994 <_vfprintf_r+0x1558>
   1130c:	4e26                	lw	t3,72(sp)
   1130e:	4796                	lw	a5,68(sp)
   11310:	11d0                	addi	a2,sp,228
   11312:	1dc1                	addi	s11,s11,-16
   11314:	88b2                	mv	a7,a2
   11316:	b305                	j	11036 <_vfprintf_r+0xbfa>
   11318:	06c1                	addi	a3,a3,16
   1131a:	01b8a223          	sw	s11,4(a7)
   1131e:	c7b6                	sw	a3,204(sp)
   11320:	c5ba                	sw	a4,200(sp)
   11322:	00e85c63          	bge	a6,a4,1133a <_vfprintf_r+0xefe>
   11326:	01d0                	addi	a2,sp,196
   11328:	85ca                	mv	a1,s2
   1132a:	854e                	mv	a0,s3
   1132c:	c2c2                	sw	a6,68(sp)
   1132e:	137050ef          	jal	ra,16c64 <__sprint_r>
   11332:	66051163          	bnez	a0,11994 <_vfprintf_r+0x1558>
   11336:	4816                	lw	a6,68(sp)
   11338:	11d0                	addi	a2,sp,228
   1133a:	1ac1                	addi	s5,s5,-16
   1133c:	88b2                	mv	a7,a2
   1133e:	bb35                	j	1107a <_vfprintf_r+0xc3e>
   11340:	06500713          	li	a4,101
   11344:	4da75063          	bge	a4,s10,11804 <_vfprintf_r+0x13c8>
   11348:	474e                	lw	a4,208(sp)
   1134a:	090c                	addi	a1,sp,144
   1134c:	1108                	addi	a0,sp,160
   1134e:	d13a                	sw	a4,160(sp)
   11350:	475e                	lw	a4,212(sp)
   11352:	c2c6                	sw	a7,68(sp)
   11354:	c902                	sw	zero,144(sp)
   11356:	d33a                	sw	a4,164(sp)
   11358:	476e                	lw	a4,216(sp)
   1135a:	cb02                	sw	zero,148(sp)
   1135c:	cd02                	sw	zero,152(sp)
   1135e:	d53a                	sw	a4,168(sp)
   11360:	477e                	lw	a4,220(sp)
   11362:	cf02                	sw	zero,156(sp)
   11364:	d73a                	sw	a4,172(sp)
   11366:	395080ef          	jal	ra,19efa <__eqtf2>
   1136a:	4896                	lw	a7,68(sp)
   1136c:	10051263          	bnez	a0,11470 <_vfprintf_r+0x1034>
   11370:	67f1                	lui	a5,0x1c
   11372:	4b078793          	addi	a5,a5,1200 # 1c4b0 <zeroes.4447+0x48>
   11376:	00f8a023          	sw	a5,0(a7)
   1137a:	4785                	li	a5,1
   1137c:	00f8a223          	sw	a5,4(a7)
   11380:	47ae                	lw	a5,200(sp)
   11382:	0d85                	addi	s11,s11,1
   11384:	c7ee                	sw	s11,204(sp)
   11386:	0785                	addi	a5,a5,1
   11388:	c5be                	sw	a5,200(sp)
   1138a:	471d                	li	a4,7
   1138c:	08a1                	addi	a7,a7,8
   1138e:	00f75b63          	bge	a4,a5,113a4 <_vfprintf_r+0xf68>
   11392:	01d0                	addi	a2,sp,196
   11394:	85ca                	mv	a1,s2
   11396:	854e                	mv	a0,s3
   11398:	0cd050ef          	jal	ra,16c64 <__sprint_r>
   1139c:	5e051c63          	bnez	a0,11994 <_vfprintf_r+0x1558>
   113a0:	0e410893          	addi	a7,sp,228
   113a4:	57ea                	lw	a5,184(sp)
   113a6:	0147c563          	blt	a5,s4,113b0 <_vfprintf_r+0xf74>
   113aa:	00147793          	andi	a5,s0,1
   113ae:	c7a5                	beqz	a5,11416 <_vfprintf_r+0xfda>
   113b0:	57d2                	lw	a5,52(sp)
   113b2:	5702                	lw	a4,32(sp)
   113b4:	08a1                	addi	a7,a7,8
   113b6:	fef8ac23          	sw	a5,-8(a7)
   113ba:	5782                	lw	a5,32(sp)
   113bc:	fef8ae23          	sw	a5,-4(a7)
   113c0:	47be                	lw	a5,204(sp)
   113c2:	97ba                	add	a5,a5,a4
   113c4:	c7be                	sw	a5,204(sp)
   113c6:	47ae                	lw	a5,200(sp)
   113c8:	471d                	li	a4,7
   113ca:	0785                	addi	a5,a5,1
   113cc:	c5be                	sw	a5,200(sp)
   113ce:	00f75b63          	bge	a4,a5,113e4 <_vfprintf_r+0xfa8>
   113d2:	01d0                	addi	a2,sp,196
   113d4:	85ca                	mv	a1,s2
   113d6:	854e                	mv	a0,s3
   113d8:	08d050ef          	jal	ra,16c64 <__sprint_r>
   113dc:	5a051c63          	bnez	a0,11994 <_vfprintf_r+0x1558>
   113e0:	0e410893          	addi	a7,sp,228
   113e4:	fffa0493          	addi	s1,s4,-1
   113e8:	02905763          	blez	s1,11416 <_vfprintf_r+0xfda>
   113ec:	4ac1                	li	s5,16
   113ee:	4b9d                	li	s7,7
   113f0:	4652                	lw	a2,20(sp)
   113f2:	47ae                	lw	a5,200(sp)
   113f4:	473e                	lw	a4,204(sp)
   113f6:	00c8a023          	sw	a2,0(a7)
   113fa:	0785                	addi	a5,a5,1
   113fc:	00888693          	addi	a3,a7,8
   11400:	049ac663          	blt	s5,s1,1144c <_vfprintf_r+0x1010>
   11404:	0098a223          	sw	s1,4(a7)
   11408:	94ba                	add	s1,s1,a4
   1140a:	c7a6                	sw	s1,204(sp)
   1140c:	c5be                	sw	a5,200(sp)
   1140e:	471d                	li	a4,7
   11410:	88b6                	mv	a7,a3
   11412:	ccf743e3          	blt	a4,a5,110d8 <_vfprintf_r+0xc9c>
   11416:	8811                	andi	s0,s0,4
   11418:	52041d63          	bnez	s0,11952 <_vfprintf_r+0x1516>
   1141c:	5d22                	lw	s10,40(sp)
   1141e:	57b2                	lw	a5,44(sp)
   11420:	00fd5363          	bge	s10,a5,11426 <_vfprintf_r+0xfea>
   11424:	8d3e                	mv	s10,a5
   11426:	5792                	lw	a5,36(sp)
   11428:	97ea                	add	a5,a5,s10
   1142a:	d23e                	sw	a5,36(sp)
   1142c:	47be                	lw	a5,204(sp)
   1142e:	cb81                	beqz	a5,1143e <_vfprintf_r+0x1002>
   11430:	01d0                	addi	a2,sp,196
   11432:	85ca                	mv	a1,s2
   11434:	854e                	mv	a0,s3
   11436:	02f050ef          	jal	ra,16c64 <__sprint_r>
   1143a:	54051d63          	bnez	a0,11994 <_vfprintf_r+0x1558>
   1143e:	47b2                	lw	a5,12(sp)
   11440:	c582                	sw	zero,200(sp)
   11442:	58079563          	bnez	a5,119cc <_vfprintf_r+0x1590>
   11446:	0e410893          	addi	a7,sp,228
   1144a:	bae9                	j	10e24 <_vfprintf_r+0x9e8>
   1144c:	0741                	addi	a4,a4,16
   1144e:	0158a223          	sw	s5,4(a7)
   11452:	c7ba                	sw	a4,204(sp)
   11454:	c5be                	sw	a5,200(sp)
   11456:	00fbda63          	bge	s7,a5,1146a <_vfprintf_r+0x102e>
   1145a:	01d0                	addi	a2,sp,196
   1145c:	85ca                	mv	a1,s2
   1145e:	854e                	mv	a0,s3
   11460:	005050ef          	jal	ra,16c64 <__sprint_r>
   11464:	52051863          	bnez	a0,11994 <_vfprintf_r+0x1558>
   11468:	11d4                	addi	a3,sp,228
   1146a:	14c1                	addi	s1,s1,-16
   1146c:	88b6                	mv	a7,a3
   1146e:	b749                	j	113f0 <_vfprintf_r+0xfb4>
   11470:	576a                	lw	a4,184(sp)
   11472:	0ee04963          	bgtz	a4,11564 <_vfprintf_r+0x1128>
   11476:	67f1                	lui	a5,0x1c
   11478:	4b078793          	addi	a5,a5,1200 # 1c4b0 <zeroes.4447+0x48>
   1147c:	00f8a023          	sw	a5,0(a7)
   11480:	4785                	li	a5,1
   11482:	00f8a223          	sw	a5,4(a7)
   11486:	47ae                	lw	a5,200(sp)
   11488:	0d85                	addi	s11,s11,1
   1148a:	c7ee                	sw	s11,204(sp)
   1148c:	0785                	addi	a5,a5,1
   1148e:	c5be                	sw	a5,200(sp)
   11490:	471d                	li	a4,7
   11492:	08a1                	addi	a7,a7,8
   11494:	00f75b63          	bge	a4,a5,114aa <_vfprintf_r+0x106e>
   11498:	01d0                	addi	a2,sp,196
   1149a:	85ca                	mv	a1,s2
   1149c:	854e                	mv	a0,s3
   1149e:	7c6050ef          	jal	ra,16c64 <__sprint_r>
   114a2:	4e051963          	bnez	a0,11994 <_vfprintf_r+0x1558>
   114a6:	0e410893          	addi	a7,sp,228
   114aa:	57ea                	lw	a5,184(sp)
   114ac:	e791                	bnez	a5,114b8 <_vfprintf_r+0x107c>
   114ae:	000a1563          	bnez	s4,114b8 <_vfprintf_r+0x107c>
   114b2:	00147793          	andi	a5,s0,1
   114b6:	d3a5                	beqz	a5,11416 <_vfprintf_r+0xfda>
   114b8:	57d2                	lw	a5,52(sp)
   114ba:	5702                	lw	a4,32(sp)
   114bc:	08a1                	addi	a7,a7,8
   114be:	fef8ac23          	sw	a5,-8(a7)
   114c2:	5782                	lw	a5,32(sp)
   114c4:	fef8ae23          	sw	a5,-4(a7)
   114c8:	47be                	lw	a5,204(sp)
   114ca:	97ba                	add	a5,a5,a4
   114cc:	c7be                	sw	a5,204(sp)
   114ce:	47ae                	lw	a5,200(sp)
   114d0:	471d                	li	a4,7
   114d2:	0785                	addi	a5,a5,1
   114d4:	c5be                	sw	a5,200(sp)
   114d6:	00f75b63          	bge	a4,a5,114ec <_vfprintf_r+0x10b0>
   114da:	01d0                	addi	a2,sp,196
   114dc:	85ca                	mv	a1,s2
   114de:	854e                	mv	a0,s3
   114e0:	784050ef          	jal	ra,16c64 <__sprint_r>
   114e4:	4a051863          	bnez	a0,11994 <_vfprintf_r+0x1558>
   114e8:	0e410893          	addi	a7,sp,228
   114ec:	5aea                	lw	s5,184(sp)
   114ee:	040ad063          	bgez	s5,1152e <_vfprintf_r+0x10f2>
   114f2:	41500ab3          	neg	s5,s5
   114f6:	8746                	mv	a4,a7
   114f8:	4bc1                	li	s7,16
   114fa:	4c1d                	li	s8,7
   114fc:	4652                	lw	a2,20(sp)
   114fe:	47ae                	lw	a5,200(sp)
   11500:	46be                	lw	a3,204(sp)
   11502:	c310                	sw	a2,0(a4)
   11504:	0785                	addi	a5,a5,1
   11506:	08a1                	addi	a7,a7,8
   11508:	035bcb63          	blt	s7,s5,1153e <_vfprintf_r+0x1102>
   1150c:	01572223          	sw	s5,4(a4)
   11510:	9ab6                	add	s5,s5,a3
   11512:	c7d6                	sw	s5,204(sp)
   11514:	c5be                	sw	a5,200(sp)
   11516:	471d                	li	a4,7
   11518:	00f75b63          	bge	a4,a5,1152e <_vfprintf_r+0x10f2>
   1151c:	01d0                	addi	a2,sp,196
   1151e:	85ca                	mv	a1,s2
   11520:	854e                	mv	a0,s3
   11522:	742050ef          	jal	ra,16c64 <__sprint_r>
   11526:	46051763          	bnez	a0,11994 <_vfprintf_r+0x1558>
   1152a:	0e410893          	addi	a7,sp,228
   1152e:	47be                	lw	a5,204(sp)
   11530:	0098a023          	sw	s1,0(a7)
   11534:	0148a223          	sw	s4,4(a7)
   11538:	97d2                	add	a5,a5,s4
   1153a:	c7be                	sw	a5,204(sp)
   1153c:	b679                	j	110ca <_vfprintf_r+0xc8e>
   1153e:	06c1                	addi	a3,a3,16
   11540:	01772223          	sw	s7,4(a4)
   11544:	c7b6                	sw	a3,204(sp)
   11546:	c5be                	sw	a5,200(sp)
   11548:	00fc5b63          	bge	s8,a5,1155e <_vfprintf_r+0x1122>
   1154c:	01d0                	addi	a2,sp,196
   1154e:	85ca                	mv	a1,s2
   11550:	854e                	mv	a0,s3
   11552:	712050ef          	jal	ra,16c64 <__sprint_r>
   11556:	42051f63          	bnez	a0,11994 <_vfprintf_r+0x1558>
   1155a:	0e410893          	addi	a7,sp,228
   1155e:	1ac1                	addi	s5,s5,-16
   11560:	8746                	mv	a4,a7
   11562:	bf69                	j	114fc <_vfprintf_r+0x10c0>
   11564:	8ae6                	mv	s5,s9
   11566:	019a5363          	bge	s4,s9,1156c <_vfprintf_r+0x1130>
   1156a:	8ad2                	mv	s5,s4
   1156c:	03505863          	blez	s5,1159c <_vfprintf_r+0x1160>
   11570:	472e                	lw	a4,200(sp)
   11572:	9dd6                	add	s11,s11,s5
   11574:	0098a023          	sw	s1,0(a7)
   11578:	0705                	addi	a4,a4,1
   1157a:	0158a223          	sw	s5,4(a7)
   1157e:	c7ee                	sw	s11,204(sp)
   11580:	c5ba                	sw	a4,200(sp)
   11582:	469d                	li	a3,7
   11584:	08a1                	addi	a7,a7,8
   11586:	00e6db63          	bge	a3,a4,1159c <_vfprintf_r+0x1160>
   1158a:	01d0                	addi	a2,sp,196
   1158c:	85ca                	mv	a1,s2
   1158e:	854e                	mv	a0,s3
   11590:	6d4050ef          	jal	ra,16c64 <__sprint_r>
   11594:	40051063          	bnez	a0,11994 <_vfprintf_r+0x1558>
   11598:	0e410893          	addi	a7,sp,228
   1159c:	000ad363          	bgez	s5,115a2 <_vfprintf_r+0x1166>
   115a0:	4a81                	li	s5,0
   115a2:	415c8ab3          	sub	s5,s9,s5
   115a6:	05505063          	blez	s5,115e6 <_vfprintf_r+0x11aa>
   115aa:	4d41                	li	s10,16
   115ac:	4d9d                	li	s11,7
   115ae:	47d2                	lw	a5,20(sp)
   115b0:	472e                	lw	a4,200(sp)
   115b2:	46be                	lw	a3,204(sp)
   115b4:	00f8a023          	sw	a5,0(a7)
   115b8:	0705                	addi	a4,a4,1
   115ba:	00888613          	addi	a2,a7,8
   115be:	115d4f63          	blt	s10,s5,116dc <_vfprintf_r+0x12a0>
   115c2:	0158a223          	sw	s5,4(a7)
   115c6:	9ab6                	add	s5,s5,a3
   115c8:	c7d6                	sw	s5,204(sp)
   115ca:	c5ba                	sw	a4,200(sp)
   115cc:	469d                	li	a3,7
   115ce:	88b2                	mv	a7,a2
   115d0:	00e6db63          	bge	a3,a4,115e6 <_vfprintf_r+0x11aa>
   115d4:	01d0                	addi	a2,sp,196
   115d6:	85ca                	mv	a1,s2
   115d8:	854e                	mv	a0,s3
   115da:	68a050ef          	jal	ra,16c64 <__sprint_r>
   115de:	3a051b63          	bnez	a0,11994 <_vfprintf_r+0x1558>
   115e2:	0e410893          	addi	a7,sp,228
   115e6:	40047793          	andi	a5,s0,1024
   115ea:	01948ab3          	add	s5,s1,s9
   115ee:	cf89                	beqz	a5,11608 <_vfprintf_r+0x11cc>
   115f0:	4d1d                	li	s10,7
   115f2:	01448db3          	add	s11,s1,s4
   115f6:	100b9563          	bnez	s7,11700 <_vfprintf_r+0x12c4>
   115fa:	100c1563          	bnez	s8,11704 <_vfprintf_r+0x12c8>
   115fe:	014487b3          	add	a5,s1,s4
   11602:	0157f363          	bgeu	a5,s5,11608 <_vfprintf_r+0x11cc>
   11606:	8abe                	mv	s5,a5
   11608:	57ea                	lw	a5,184(sp)
   1160a:	0147c563          	blt	a5,s4,11614 <_vfprintf_r+0x11d8>
   1160e:	00147793          	andi	a5,s0,1
   11612:	cb9d                	beqz	a5,11648 <_vfprintf_r+0x120c>
   11614:	57d2                	lw	a5,52(sp)
   11616:	5702                	lw	a4,32(sp)
   11618:	08a1                	addi	a7,a7,8
   1161a:	fef8ac23          	sw	a5,-8(a7)
   1161e:	5782                	lw	a5,32(sp)
   11620:	fef8ae23          	sw	a5,-4(a7)
   11624:	47be                	lw	a5,204(sp)
   11626:	97ba                	add	a5,a5,a4
   11628:	c7be                	sw	a5,204(sp)
   1162a:	47ae                	lw	a5,200(sp)
   1162c:	471d                	li	a4,7
   1162e:	0785                	addi	a5,a5,1
   11630:	c5be                	sw	a5,200(sp)
   11632:	00f75b63          	bge	a4,a5,11648 <_vfprintf_r+0x120c>
   11636:	01d0                	addi	a2,sp,196
   11638:	85ca                	mv	a1,s2
   1163a:	854e                	mv	a0,s3
   1163c:	628050ef          	jal	ra,16c64 <__sprint_r>
   11640:	34051a63          	bnez	a0,11994 <_vfprintf_r+0x1558>
   11644:	0e410893          	addi	a7,sp,228
   11648:	94d2                	add	s1,s1,s4
   1164a:	415487b3          	sub	a5,s1,s5
   1164e:	54ea                	lw	s1,184(sp)
   11650:	409a04b3          	sub	s1,s4,s1
   11654:	0097d363          	bge	a5,s1,1165a <_vfprintf_r+0x121e>
   11658:	84be                	mv	s1,a5
   1165a:	02905963          	blez	s1,1168c <_vfprintf_r+0x1250>
   1165e:	47be                	lw	a5,204(sp)
   11660:	0158a023          	sw	s5,0(a7)
   11664:	0098a223          	sw	s1,4(a7)
   11668:	97a6                	add	a5,a5,s1
   1166a:	c7be                	sw	a5,204(sp)
   1166c:	47ae                	lw	a5,200(sp)
   1166e:	471d                	li	a4,7
   11670:	08a1                	addi	a7,a7,8
   11672:	0785                	addi	a5,a5,1
   11674:	c5be                	sw	a5,200(sp)
   11676:	00f75b63          	bge	a4,a5,1168c <_vfprintf_r+0x1250>
   1167a:	01d0                	addi	a2,sp,196
   1167c:	85ca                	mv	a1,s2
   1167e:	854e                	mv	a0,s3
   11680:	5e4050ef          	jal	ra,16c64 <__sprint_r>
   11684:	30051863          	bnez	a0,11994 <_vfprintf_r+0x1558>
   11688:	0e410893          	addi	a7,sp,228
   1168c:	87a6                	mv	a5,s1
   1168e:	0004d363          	bgez	s1,11694 <_vfprintf_r+0x1258>
   11692:	4781                	li	a5,0
   11694:	54ea                	lw	s1,184(sp)
   11696:	409a04b3          	sub	s1,s4,s1
   1169a:	8c9d                	sub	s1,s1,a5
   1169c:	d6905de3          	blez	s1,11416 <_vfprintf_r+0xfda>
   116a0:	4ac1                	li	s5,16
   116a2:	4b9d                	li	s7,7
   116a4:	4652                	lw	a2,20(sp)
   116a6:	47ae                	lw	a5,200(sp)
   116a8:	473e                	lw	a4,204(sp)
   116aa:	00c8a023          	sw	a2,0(a7)
   116ae:	0785                	addi	a5,a5,1
   116b0:	00888693          	addi	a3,a7,8
   116b4:	d49ad8e3          	bge	s5,s1,11404 <_vfprintf_r+0xfc8>
   116b8:	0741                	addi	a4,a4,16
   116ba:	0158a223          	sw	s5,4(a7)
   116be:	c7ba                	sw	a4,204(sp)
   116c0:	c5be                	sw	a5,200(sp)
   116c2:	00fbda63          	bge	s7,a5,116d6 <_vfprintf_r+0x129a>
   116c6:	01d0                	addi	a2,sp,196
   116c8:	85ca                	mv	a1,s2
   116ca:	854e                	mv	a0,s3
   116cc:	598050ef          	jal	ra,16c64 <__sprint_r>
   116d0:	2c051263          	bnez	a0,11994 <_vfprintf_r+0x1558>
   116d4:	11d4                	addi	a3,sp,228
   116d6:	14c1                	addi	s1,s1,-16
   116d8:	88b6                	mv	a7,a3
   116da:	b7e9                	j	116a4 <_vfprintf_r+0x1268>
   116dc:	06c1                	addi	a3,a3,16
   116de:	01a8a223          	sw	s10,4(a7)
   116e2:	c7b6                	sw	a3,204(sp)
   116e4:	c5ba                	sw	a4,200(sp)
   116e6:	00edda63          	bge	s11,a4,116fa <_vfprintf_r+0x12be>
   116ea:	01d0                	addi	a2,sp,196
   116ec:	85ca                	mv	a1,s2
   116ee:	854e                	mv	a0,s3
   116f0:	574050ef          	jal	ra,16c64 <__sprint_r>
   116f4:	2a051063          	bnez	a0,11994 <_vfprintf_r+0x1558>
   116f8:	11d0                	addi	a2,sp,228
   116fa:	1ac1                	addi	s5,s5,-16
   116fc:	88b2                	mv	a7,a2
   116fe:	bd45                	j	115ae <_vfprintf_r+0x1172>
   11700:	080c0d63          	beqz	s8,1179a <_vfprintf_r+0x135e>
   11704:	1c7d                	addi	s8,s8,-1
   11706:	57e2                	lw	a5,56(sp)
   11708:	5742                	lw	a4,48(sp)
   1170a:	08a1                	addi	a7,a7,8
   1170c:	fef8ac23          	sw	a5,-8(a7)
   11710:	57c2                	lw	a5,48(sp)
   11712:	fef8ae23          	sw	a5,-4(a7)
   11716:	47be                	lw	a5,204(sp)
   11718:	97ba                	add	a5,a5,a4
   1171a:	c7be                	sw	a5,204(sp)
   1171c:	47ae                	lw	a5,200(sp)
   1171e:	0785                	addi	a5,a5,1
   11720:	c5be                	sw	a5,200(sp)
   11722:	00fd5b63          	bge	s10,a5,11738 <_vfprintf_r+0x12fc>
   11726:	01d0                	addi	a2,sp,196
   11728:	85ca                	mv	a1,s2
   1172a:	854e                	mv	a0,s3
   1172c:	538050ef          	jal	ra,16c64 <__sprint_r>
   11730:	26051263          	bnez	a0,11994 <_vfprintf_r+0x1558>
   11734:	0e410893          	addi	a7,sp,228
   11738:	47c2                	lw	a5,16(sp)
   1173a:	415d8733          	sub	a4,s11,s5
   1173e:	0007cb03          	lbu	s6,0(a5)
   11742:	01675363          	bge	a4,s6,11748 <_vfprintf_r+0x130c>
   11746:	8b3a                	mv	s6,a4
   11748:	03605863          	blez	s6,11778 <_vfprintf_r+0x133c>
   1174c:	473e                	lw	a4,204(sp)
   1174e:	0158a023          	sw	s5,0(a7)
   11752:	0168a223          	sw	s6,4(a7)
   11756:	975a                	add	a4,a4,s6
   11758:	c7ba                	sw	a4,204(sp)
   1175a:	472e                	lw	a4,200(sp)
   1175c:	08a1                	addi	a7,a7,8
   1175e:	0705                	addi	a4,a4,1
   11760:	c5ba                	sw	a4,200(sp)
   11762:	00ed5b63          	bge	s10,a4,11778 <_vfprintf_r+0x133c>
   11766:	01d0                	addi	a2,sp,196
   11768:	85ca                	mv	a1,s2
   1176a:	854e                	mv	a0,s3
   1176c:	4f8050ef          	jal	ra,16c64 <__sprint_r>
   11770:	22051263          	bnez	a0,11994 <_vfprintf_r+0x1558>
   11774:	0e410893          	addi	a7,sp,228
   11778:	875a                	mv	a4,s6
   1177a:	000b5363          	bgez	s6,11780 <_vfprintf_r+0x1344>
   1177e:	4701                	li	a4,0
   11780:	47c2                	lw	a5,16(sp)
   11782:	4841                	li	a6,16
   11784:	0007c783          	lbu	a5,0(a5)
   11788:	40e78b33          	sub	s6,a5,a4
   1178c:	03604f63          	bgtz	s6,117ca <_vfprintf_r+0x138e>
   11790:	47c2                	lw	a5,16(sp)
   11792:	0007c783          	lbu	a5,0(a5)
   11796:	9abe                	add	s5,s5,a5
   11798:	bdb9                	j	115f6 <_vfprintf_r+0x11ba>
   1179a:	47c2                	lw	a5,16(sp)
   1179c:	1bfd                	addi	s7,s7,-1
   1179e:	17fd                	addi	a5,a5,-1
   117a0:	c83e                	sw	a5,16(sp)
   117a2:	b795                	j	11706 <_vfprintf_r+0x12ca>
   117a4:	06c1                	addi	a3,a3,16
   117a6:	0108a223          	sw	a6,4(a7)
   117aa:	c7b6                	sw	a3,204(sp)
   117ac:	c5ba                	sw	a4,200(sp)
   117ae:	00ed5c63          	bge	s10,a4,117c6 <_vfprintf_r+0x138a>
   117b2:	01d0                	addi	a2,sp,196
   117b4:	85ca                	mv	a1,s2
   117b6:	854e                	mv	a0,s3
   117b8:	c2c2                	sw	a6,68(sp)
   117ba:	4aa050ef          	jal	ra,16c64 <__sprint_r>
   117be:	1c051b63          	bnez	a0,11994 <_vfprintf_r+0x1558>
   117c2:	4816                	lw	a6,68(sp)
   117c4:	11d0                	addi	a2,sp,228
   117c6:	1b41                	addi	s6,s6,-16
   117c8:	88b2                	mv	a7,a2
   117ca:	47d2                	lw	a5,20(sp)
   117cc:	472e                	lw	a4,200(sp)
   117ce:	46be                	lw	a3,204(sp)
   117d0:	00f8a023          	sw	a5,0(a7)
   117d4:	0705                	addi	a4,a4,1
   117d6:	00888613          	addi	a2,a7,8
   117da:	fd6845e3          	blt	a6,s6,117a4 <_vfprintf_r+0x1368>
   117de:	00db07b3          	add	a5,s6,a3
   117e2:	0168a223          	sw	s6,4(a7)
   117e6:	c7be                	sw	a5,204(sp)
   117e8:	c5ba                	sw	a4,200(sp)
   117ea:	88b2                	mv	a7,a2
   117ec:	faed52e3          	bge	s10,a4,11790 <_vfprintf_r+0x1354>
   117f0:	01d0                	addi	a2,sp,196
   117f2:	85ca                	mv	a1,s2
   117f4:	854e                	mv	a0,s3
   117f6:	46e050ef          	jal	ra,16c64 <__sprint_r>
   117fa:	18051d63          	bnez	a0,11994 <_vfprintf_r+0x1558>
   117fe:	0e410893          	addi	a7,sp,228
   11802:	b779                	j	11790 <_vfprintf_r+0x1354>
   11804:	47ae                	lw	a5,200(sp)
   11806:	4705                	li	a4,1
   11808:	0098a023          	sw	s1,0(a7)
   1180c:	0d85                	addi	s11,s11,1
   1180e:	0785                	addi	a5,a5,1
   11810:	00888b93          	addi	s7,a7,8
   11814:	01474663          	blt	a4,s4,11820 <_vfprintf_r+0x13e4>
   11818:	00147693          	andi	a3,s0,1
   1181c:	12068363          	beqz	a3,11942 <_vfprintf_r+0x1506>
   11820:	4705                	li	a4,1
   11822:	00e8a223          	sw	a4,4(a7)
   11826:	c7ee                	sw	s11,204(sp)
   11828:	c5be                	sw	a5,200(sp)
   1182a:	471d                	li	a4,7
   1182c:	00f75b63          	bge	a4,a5,11842 <_vfprintf_r+0x1406>
   11830:	01d0                	addi	a2,sp,196
   11832:	85ca                	mv	a1,s2
   11834:	854e                	mv	a0,s3
   11836:	42e050ef          	jal	ra,16c64 <__sprint_r>
   1183a:	14051d63          	bnez	a0,11994 <_vfprintf_r+0x1558>
   1183e:	0e410b93          	addi	s7,sp,228
   11842:	57d2                	lw	a5,52(sp)
   11844:	5702                	lw	a4,32(sp)
   11846:	0ba1                	addi	s7,s7,8
   11848:	fefbac23          	sw	a5,-8(s7)
   1184c:	5782                	lw	a5,32(sp)
   1184e:	fefbae23          	sw	a5,-4(s7)
   11852:	47be                	lw	a5,204(sp)
   11854:	97ba                	add	a5,a5,a4
   11856:	c7be                	sw	a5,204(sp)
   11858:	47ae                	lw	a5,200(sp)
   1185a:	471d                	li	a4,7
   1185c:	0785                	addi	a5,a5,1
   1185e:	c5be                	sw	a5,200(sp)
   11860:	00f75b63          	bge	a4,a5,11876 <_vfprintf_r+0x143a>
   11864:	01d0                	addi	a2,sp,196
   11866:	85ca                	mv	a1,s2
   11868:	854e                	mv	a0,s3
   1186a:	3fa050ef          	jal	ra,16c64 <__sprint_r>
   1186e:	12051363          	bnez	a0,11994 <_vfprintf_r+0x1558>
   11872:	0e410b93          	addi	s7,sp,228
   11876:	47ce                	lw	a5,208(sp)
   11878:	090c                	addi	a1,sp,144
   1187a:	1108                	addi	a0,sp,160
   1187c:	d13e                	sw	a5,160(sp)
   1187e:	47de                	lw	a5,212(sp)
   11880:	fffa0a93          	addi	s5,s4,-1
   11884:	c902                	sw	zero,144(sp)
   11886:	d33e                	sw	a5,164(sp)
   11888:	47ee                	lw	a5,216(sp)
   1188a:	cb02                	sw	zero,148(sp)
   1188c:	cd02                	sw	zero,152(sp)
   1188e:	d53e                	sw	a5,168(sp)
   11890:	47fe                	lw	a5,220(sp)
   11892:	cf02                	sw	zero,156(sp)
   11894:	d73e                	sw	a5,172(sp)
   11896:	664080ef          	jal	ra,19efa <__eqtf2>
   1189a:	cd29                	beqz	a0,118f4 <_vfprintf_r+0x14b8>
   1189c:	47be                	lw	a5,204(sp)
   1189e:	472e                	lw	a4,200(sp)
   118a0:	0485                	addi	s1,s1,1
   118a2:	17fd                	addi	a5,a5,-1
   118a4:	97d2                	add	a5,a5,s4
   118a6:	0705                	addi	a4,a4,1
   118a8:	009ba023          	sw	s1,0(s7)
   118ac:	015ba223          	sw	s5,4(s7)
   118b0:	c7be                	sw	a5,204(sp)
   118b2:	c5ba                	sw	a4,200(sp)
   118b4:	479d                	li	a5,7
   118b6:	0ba1                	addi	s7,s7,8
   118b8:	00e7da63          	bge	a5,a4,118cc <_vfprintf_r+0x1490>
   118bc:	01d0                	addi	a2,sp,196
   118be:	85ca                	mv	a1,s2
   118c0:	854e                	mv	a0,s3
   118c2:	3a2050ef          	jal	ra,16c64 <__sprint_r>
   118c6:	e579                	bnez	a0,11994 <_vfprintf_r+0x1558>
   118c8:	0e410b93          	addi	s7,sp,228
   118cc:	123c                	addi	a5,sp,296
   118ce:	00fba023          	sw	a5,0(s7)
   118d2:	57f2                	lw	a5,60(sp)
   118d4:	5772                	lw	a4,60(sp)
   118d6:	008b8893          	addi	a7,s7,8
   118da:	00fba223          	sw	a5,4(s7)
   118de:	47be                	lw	a5,204(sp)
   118e0:	97ba                	add	a5,a5,a4
   118e2:	c7be                	sw	a5,204(sp)
   118e4:	47ae                	lw	a5,200(sp)
   118e6:	471d                	li	a4,7
   118e8:	0785                	addi	a5,a5,1
   118ea:	c5be                	sw	a5,200(sp)
   118ec:	b2f755e3          	bge	a4,a5,11416 <_vfprintf_r+0xfda>
   118f0:	fe8ff06f          	j	110d8 <_vfprintf_r+0xc9c>
   118f4:	fd505ce3          	blez	s5,118cc <_vfprintf_r+0x1490>
   118f8:	44c1                	li	s1,16
   118fa:	4c1d                	li	s8,7
   118fc:	4652                	lw	a2,20(sp)
   118fe:	472e                	lw	a4,200(sp)
   11900:	47be                	lw	a5,204(sp)
   11902:	00cba023          	sw	a2,0(s7)
   11906:	0705                	addi	a4,a4,1
   11908:	008b8693          	addi	a3,s7,8
   1190c:	0154ca63          	blt	s1,s5,11920 <_vfprintf_r+0x14e4>
   11910:	97d6                	add	a5,a5,s5
   11912:	015ba223          	sw	s5,4(s7)
   11916:	c7be                	sw	a5,204(sp)
   11918:	c5ba                	sw	a4,200(sp)
   1191a:	479d                	li	a5,7
   1191c:	8bb6                	mv	s7,a3
   1191e:	bf69                	j	118b8 <_vfprintf_r+0x147c>
   11920:	07c1                	addi	a5,a5,16
   11922:	009ba223          	sw	s1,4(s7)
   11926:	c7be                	sw	a5,204(sp)
   11928:	c5ba                	sw	a4,200(sp)
   1192a:	00ec5963          	bge	s8,a4,1193c <_vfprintf_r+0x1500>
   1192e:	01d0                	addi	a2,sp,196
   11930:	85ca                	mv	a1,s2
   11932:	854e                	mv	a0,s3
   11934:	330050ef          	jal	ra,16c64 <__sprint_r>
   11938:	ed31                	bnez	a0,11994 <_vfprintf_r+0x1558>
   1193a:	11d4                	addi	a3,sp,228
   1193c:	1ac1                	addi	s5,s5,-16
   1193e:	8bb6                	mv	s7,a3
   11940:	bf75                	j	118fc <_vfprintf_r+0x14c0>
   11942:	00e8a223          	sw	a4,4(a7)
   11946:	c7ee                	sw	s11,204(sp)
   11948:	c5be                	sw	a5,200(sp)
   1194a:	471d                	li	a4,7
   1194c:	f8f750e3          	bge	a4,a5,118cc <_vfprintf_r+0x1490>
   11950:	b7b5                	j	118bc <_vfprintf_r+0x1480>
   11952:	57a2                	lw	a5,40(sp)
   11954:	5732                	lw	a4,44(sp)
   11956:	40e78433          	sub	s0,a5,a4
   1195a:	ac8051e3          	blez	s0,1141c <_vfprintf_r+0xfe0>
   1195e:	64f1                	lui	s1,0x1c
   11960:	4ac1                	li	s5,16
   11962:	45848493          	addi	s1,s1,1112 # 1c458 <blanks.4446>
   11966:	4b9d                	li	s7,7
   11968:	47ae                	lw	a5,200(sp)
   1196a:	0098a023          	sw	s1,0(a7)
   1196e:	473e                	lw	a4,204(sp)
   11970:	0785                	addi	a5,a5,1
   11972:	028acb63          	blt	s5,s0,119a8 <_vfprintf_r+0x156c>
   11976:	0088a223          	sw	s0,4(a7)
   1197a:	943a                	add	s0,s0,a4
   1197c:	c7a2                	sw	s0,204(sp)
   1197e:	c5be                	sw	a5,200(sp)
   11980:	471d                	li	a4,7
   11982:	a8f75de3          	bge	a4,a5,1141c <_vfprintf_r+0xfe0>
   11986:	01d0                	addi	a2,sp,196
   11988:	85ca                	mv	a1,s2
   1198a:	854e                	mv	a0,s3
   1198c:	2d8050ef          	jal	ra,16c64 <__sprint_r>
   11990:	a80506e3          	beqz	a0,1141c <_vfprintf_r+0xfe0>
   11994:	47b2                	lw	a5,12(sp)
   11996:	e399                	bnez	a5,1199c <_vfprintf_r+0x1560>
   11998:	f85fe06f          	j	1091c <_vfprintf_r+0x4e0>
   1199c:	85be                	mv	a1,a5
   1199e:	854e                	mv	a0,s3
   119a0:	768000ef          	jal	ra,12108 <_free_r>
   119a4:	f79fe06f          	j	1091c <_vfprintf_r+0x4e0>
   119a8:	0741                	addi	a4,a4,16
   119aa:	0158a223          	sw	s5,4(a7)
   119ae:	c7ba                	sw	a4,204(sp)
   119b0:	c5be                	sw	a5,200(sp)
   119b2:	08a1                	addi	a7,a7,8
   119b4:	00fbda63          	bge	s7,a5,119c8 <_vfprintf_r+0x158c>
   119b8:	01d0                	addi	a2,sp,196
   119ba:	85ca                	mv	a1,s2
   119bc:	854e                	mv	a0,s3
   119be:	2a6050ef          	jal	ra,16c64 <__sprint_r>
   119c2:	f969                	bnez	a0,11994 <_vfprintf_r+0x1558>
   119c4:	0e410893          	addi	a7,sp,228
   119c8:	1441                	addi	s0,s0,-16
   119ca:	bf79                	j	11968 <_vfprintf_r+0x152c>
   119cc:	45b2                	lw	a1,12(sp)
   119ce:	854e                	mv	a0,s3
   119d0:	738000ef          	jal	ra,12108 <_free_r>
   119d4:	bc8d                	j	11446 <_vfprintf_r+0x100a>
   119d6:	47be                	lw	a5,204(sp)
   119d8:	e399                	bnez	a5,119de <_vfprintf_r+0x15a2>
   119da:	f43fe06f          	j	1091c <_vfprintf_r+0x4e0>
   119de:	01d0                	addi	a2,sp,196
   119e0:	85ca                	mv	a1,s2
   119e2:	854e                	mv	a0,s3
   119e4:	280050ef          	jal	ra,16c64 <__sprint_r>
   119e8:	f35fe06f          	j	1091c <_vfprintf_r+0x4e0>
   119ec:	1dc12083          	lw	ra,476(sp)
   119f0:	1d812403          	lw	s0,472(sp)
   119f4:	1d412483          	lw	s1,468(sp)
   119f8:	1d012903          	lw	s2,464(sp)
   119fc:	1cc12983          	lw	s3,460(sp)
   11a00:	1c812a03          	lw	s4,456(sp)
   11a04:	1c412a83          	lw	s5,452(sp)
   11a08:	1c012b03          	lw	s6,448(sp)
   11a0c:	1bc12b83          	lw	s7,444(sp)
   11a10:	1b812c03          	lw	s8,440(sp)
   11a14:	1b412c83          	lw	s9,436(sp)
   11a18:	1b012d03          	lw	s10,432(sp)
   11a1c:	1ac12d83          	lw	s11,428(sp)
   11a20:	613d                	addi	sp,sp,480
   11a22:	8082                	ret

00011a24 <vfprintf>:
   11a24:	86b2                	mv	a3,a2
   11a26:	862e                	mv	a2,a1
   11a28:	85aa                	mv	a1,a0
   11a2a:	1c01a503          	lw	a0,448(gp) # 1ebf8 <_impure_ptr>
   11a2e:	a0ffe06f          	j	1043c <_vfprintf_r>

00011a32 <__sbprintf>:
   11a32:	b7010113          	addi	sp,sp,-1168
   11a36:	48912223          	sw	s1,1156(sp)
   11a3a:	1cc1a783          	lw	a5,460(gp) # 1ec04 <__stack_chk_guard>
   11a3e:	48812423          	sw	s0,1160(sp)
   11a42:	842e                	mv	s0,a1
   11a44:	46f12623          	sw	a5,1132(sp)
   11a48:	00c5d783          	lhu	a5,12(a1)
   11a4c:	49212023          	sw	s2,1152(sp)
   11a50:	47312e23          	sw	s3,1148(sp)
   11a54:	9bf5                	andi	a5,a5,-3
   11a56:	00f11823          	sh	a5,16(sp)
   11a5a:	51fc                	lw	a5,100(a1)
   11a5c:	48112623          	sw	ra,1164(sp)
   11a60:	89aa                	mv	s3,a0
   11a62:	d4be                	sw	a5,104(sp)
   11a64:	00e5d783          	lhu	a5,14(a1)
   11a68:	ce02                	sw	zero,28(sp)
   11a6a:	00f11923          	sh	a5,18(sp)
   11a6e:	4ddc                	lw	a5,28(a1)
   11a70:	d03e                	sw	a5,32(sp)
   11a72:	51dc                	lw	a5,36(a1)
   11a74:	004c                	addi	a1,sp,4
   11a76:	d43e                	sw	a5,40(sp)
   11a78:	10fc                	addi	a5,sp,108
   11a7a:	c23e                	sw	a5,4(sp)
   11a7c:	ca3e                	sw	a5,20(sp)
   11a7e:	40000793          	li	a5,1024
   11a82:	c63e                	sw	a5,12(sp)
   11a84:	cc3e                	sw	a5,24(sp)
   11a86:	9b7fe0ef          	jal	ra,1043c <_vfprintf_r>
   11a8a:	892a                	mv	s2,a0
   11a8c:	00054763          	bltz	a0,11a9a <__sbprintf+0x68>
   11a90:	004c                	addi	a1,sp,4
   11a92:	854e                	mv	a0,s3
   11a94:	2e4d                	jal	11e46 <_fflush_r>
   11a96:	c111                	beqz	a0,11a9a <__sbprintf+0x68>
   11a98:	597d                	li	s2,-1
   11a9a:	01015783          	lhu	a5,16(sp)
   11a9e:	0407f793          	andi	a5,a5,64
   11aa2:	c799                	beqz	a5,11ab0 <__sbprintf+0x7e>
   11aa4:	00c45783          	lhu	a5,12(s0)
   11aa8:	0407e793          	ori	a5,a5,64
   11aac:	00f41623          	sh	a5,12(s0)
   11ab0:	46c12703          	lw	a4,1132(sp)
   11ab4:	1cc1a783          	lw	a5,460(gp) # 1ec04 <__stack_chk_guard>
   11ab8:	854a                	mv	a0,s2
   11aba:	00f70463          	beq	a4,a5,11ac2 <__sbprintf+0x90>
   11abe:	925fe0ef          	jal	ra,103e2 <__stack_chk_fail>
   11ac2:	48c12083          	lw	ra,1164(sp)
   11ac6:	48812403          	lw	s0,1160(sp)
   11aca:	48412483          	lw	s1,1156(sp)
   11ace:	48012903          	lw	s2,1152(sp)
   11ad2:	47c12983          	lw	s3,1148(sp)
   11ad6:	49010113          	addi	sp,sp,1168
   11ada:	8082                	ret

00011adc <_write_r>:
   11adc:	1141                	addi	sp,sp,-16
   11ade:	c422                	sw	s0,8(sp)
   11ae0:	c226                	sw	s1,4(sp)
   11ae2:	84aa                	mv	s1,a0
   11ae4:	852e                	mv	a0,a1
   11ae6:	85b2                	mv	a1,a2
   11ae8:	8636                	mv	a2,a3
   11aea:	c606                	sw	ra,12(sp)
   11aec:	2201a423          	sw	zero,552(gp) # 1ec60 <errno>
   11af0:	356070ef          	jal	ra,18e46 <_write>
   11af4:	57fd                	li	a5,-1
   11af6:	00f51663          	bne	a0,a5,11b02 <_write_r+0x26>
   11afa:	2281a783          	lw	a5,552(gp) # 1ec60 <errno>
   11afe:	c391                	beqz	a5,11b02 <_write_r+0x26>
   11b00:	c09c                	sw	a5,0(s1)
   11b02:	40b2                	lw	ra,12(sp)
   11b04:	4422                	lw	s0,8(sp)
   11b06:	4492                	lw	s1,4(sp)
   11b08:	0141                	addi	sp,sp,16
   11b0a:	8082                	ret

00011b0c <__swsetup_r>:
   11b0c:	1141                	addi	sp,sp,-16
   11b0e:	c226                	sw	s1,4(sp)
   11b10:	84aa                	mv	s1,a0
   11b12:	1c01a503          	lw	a0,448(gp) # 1ebf8 <_impure_ptr>
   11b16:	c422                	sw	s0,8(sp)
   11b18:	c606                	sw	ra,12(sp)
   11b1a:	842e                	mv	s0,a1
   11b1c:	c501                	beqz	a0,11b24 <__swsetup_r+0x18>
   11b1e:	5d1c                	lw	a5,56(a0)
   11b20:	e391                	bnez	a5,11b24 <__swsetup_r+0x18>
   11b22:	2125                	jal	11f4a <__sinit>
   11b24:	00c41703          	lh	a4,12(s0)
   11b28:	01071793          	slli	a5,a4,0x10
   11b2c:	83c1                	srli	a5,a5,0x10
   11b2e:	0087f693          	andi	a3,a5,8
   11b32:	eea1                	bnez	a3,11b8a <__swsetup_r+0x7e>
   11b34:	0107f693          	andi	a3,a5,16
   11b38:	ee89                	bnez	a3,11b52 <__swsetup_r+0x46>
   11b3a:	47a5                	li	a5,9
   11b3c:	c09c                	sw	a5,0(s1)
   11b3e:	04076713          	ori	a4,a4,64
   11b42:	00e41623          	sh	a4,12(s0)
   11b46:	557d                	li	a0,-1
   11b48:	40b2                	lw	ra,12(sp)
   11b4a:	4422                	lw	s0,8(sp)
   11b4c:	4492                	lw	s1,4(sp)
   11b4e:	0141                	addi	sp,sp,16
   11b50:	8082                	ret
   11b52:	8b91                	andi	a5,a5,4
   11b54:	c78d                	beqz	a5,11b7e <__swsetup_r+0x72>
   11b56:	580c                	lw	a1,48(s0)
   11b58:	c989                	beqz	a1,11b6a <__swsetup_r+0x5e>
   11b5a:	04040793          	addi	a5,s0,64
   11b5e:	00f58463          	beq	a1,a5,11b66 <__swsetup_r+0x5a>
   11b62:	8526                	mv	a0,s1
   11b64:	2355                	jal	12108 <_free_r>
   11b66:	02042823          	sw	zero,48(s0)
   11b6a:	00c45783          	lhu	a5,12(s0)
   11b6e:	00042223          	sw	zero,4(s0)
   11b72:	fdb7f793          	andi	a5,a5,-37
   11b76:	00f41623          	sh	a5,12(s0)
   11b7a:	481c                	lw	a5,16(s0)
   11b7c:	c01c                	sw	a5,0(s0)
   11b7e:	00c45783          	lhu	a5,12(s0)
   11b82:	0087e793          	ori	a5,a5,8
   11b86:	00f41623          	sh	a5,12(s0)
   11b8a:	481c                	lw	a5,16(s0)
   11b8c:	ef89                	bnez	a5,11ba6 <__swsetup_r+0x9a>
   11b8e:	00c45783          	lhu	a5,12(s0)
   11b92:	20000713          	li	a4,512
   11b96:	2807f793          	andi	a5,a5,640
   11b9a:	00e78663          	beq	a5,a4,11ba6 <__swsetup_r+0x9a>
   11b9e:	85a2                	mv	a1,s0
   11ba0:	8526                	mv	a0,s1
   11ba2:	004020ef          	jal	ra,13ba6 <__smakebuf_r>
   11ba6:	00c45783          	lhu	a5,12(s0)
   11baa:	0017f713          	andi	a4,a5,1
   11bae:	c705                	beqz	a4,11bd6 <__swsetup_r+0xca>
   11bb0:	485c                	lw	a5,20(s0)
   11bb2:	00042423          	sw	zero,8(s0)
   11bb6:	40f007b3          	neg	a5,a5
   11bba:	cc1c                	sw	a5,24(s0)
   11bbc:	481c                	lw	a5,16(s0)
   11bbe:	4501                	li	a0,0
   11bc0:	f7c1                	bnez	a5,11b48 <__swsetup_r+0x3c>
   11bc2:	00c41783          	lh	a5,12(s0)
   11bc6:	0807f713          	andi	a4,a5,128
   11bca:	df3d                	beqz	a4,11b48 <__swsetup_r+0x3c>
   11bcc:	0407e793          	ori	a5,a5,64
   11bd0:	00f41623          	sh	a5,12(s0)
   11bd4:	bf8d                	j	11b46 <__swsetup_r+0x3a>
   11bd6:	8b89                	andi	a5,a5,2
   11bd8:	4701                	li	a4,0
   11bda:	e391                	bnez	a5,11bde <__swsetup_r+0xd2>
   11bdc:	4858                	lw	a4,20(s0)
   11bde:	c418                	sw	a4,8(s0)
   11be0:	bff1                	j	11bbc <__swsetup_r+0xb0>

00011be2 <__register_exitproc>:
   11be2:	1bc1a703          	lw	a4,444(gp) # 1ebf4 <_global_impure_ptr>
   11be6:	832a                	mv	t1,a0
   11be8:	14872783          	lw	a5,328(a4)
   11bec:	e789                	bnez	a5,11bf6 <__register_exitproc+0x14>
   11bee:	14c70793          	addi	a5,a4,332
   11bf2:	14f72423          	sw	a5,328(a4)
   11bf6:	43d8                	lw	a4,4(a5)
   11bf8:	487d                	li	a6,31
   11bfa:	557d                	li	a0,-1
   11bfc:	04e84263          	blt	a6,a4,11c40 <__register_exitproc+0x5e>
   11c00:	00271893          	slli	a7,a4,0x2
   11c04:	02030963          	beqz	t1,11c36 <__register_exitproc+0x54>
   11c08:	01178533          	add	a0,a5,a7
   11c0c:	08c52423          	sw	a2,136(a0)
   11c10:	1887a803          	lw	a6,392(a5)
   11c14:	4605                	li	a2,1
   11c16:	00e61633          	sll	a2,a2,a4
   11c1a:	00c86833          	or	a6,a6,a2
   11c1e:	1907a423          	sw	a6,392(a5)
   11c22:	10d52423          	sw	a3,264(a0)
   11c26:	4689                	li	a3,2
   11c28:	00d31763          	bne	t1,a3,11c36 <__register_exitproc+0x54>
   11c2c:	18c7a683          	lw	a3,396(a5)
   11c30:	8e55                	or	a2,a2,a3
   11c32:	18c7a623          	sw	a2,396(a5)
   11c36:	0705                	addi	a4,a4,1
   11c38:	c3d8                	sw	a4,4(a5)
   11c3a:	97c6                	add	a5,a5,a7
   11c3c:	c78c                	sw	a1,8(a5)
   11c3e:	4501                	li	a0,0
   11c40:	8082                	ret

00011c42 <__call_exitprocs>:
   11c42:	7179                	addi	sp,sp,-48
   11c44:	ce4e                	sw	s3,28(sp)
   11c46:	1bc1a983          	lw	s3,444(gp) # 1ebf4 <_global_impure_ptr>
   11c4a:	cc52                	sw	s4,24(sp)
   11c4c:	ca56                	sw	s5,20(sp)
   11c4e:	c85a                	sw	s6,16(sp)
   11c50:	d606                	sw	ra,44(sp)
   11c52:	d422                	sw	s0,40(sp)
   11c54:	d226                	sw	s1,36(sp)
   11c56:	d04a                	sw	s2,32(sp)
   11c58:	c65e                	sw	s7,12(sp)
   11c5a:	8aaa                	mv	s5,a0
   11c5c:	8a2e                	mv	s4,a1
   11c5e:	4b05                	li	s6,1
   11c60:	1489a483          	lw	s1,328(s3)
   11c64:	c881                	beqz	s1,11c74 <__call_exitprocs+0x32>
   11c66:	40c0                	lw	s0,4(s1)
   11c68:	fff40913          	addi	s2,s0,-1
   11c6c:	040a                	slli	s0,s0,0x2
   11c6e:	9426                	add	s0,s0,s1
   11c70:	00095d63          	bgez	s2,11c8a <__call_exitprocs+0x48>
   11c74:	50b2                	lw	ra,44(sp)
   11c76:	5422                	lw	s0,40(sp)
   11c78:	5492                	lw	s1,36(sp)
   11c7a:	5902                	lw	s2,32(sp)
   11c7c:	49f2                	lw	s3,28(sp)
   11c7e:	4a62                	lw	s4,24(sp)
   11c80:	4ad2                	lw	s5,20(sp)
   11c82:	4b42                	lw	s6,16(sp)
   11c84:	4bb2                	lw	s7,12(sp)
   11c86:	6145                	addi	sp,sp,48
   11c88:	8082                	ret
   11c8a:	000a0963          	beqz	s4,11c9c <__call_exitprocs+0x5a>
   11c8e:	10442783          	lw	a5,260(s0)
   11c92:	01478563          	beq	a5,s4,11c9c <__call_exitprocs+0x5a>
   11c96:	197d                	addi	s2,s2,-1
   11c98:	1471                	addi	s0,s0,-4
   11c9a:	bfd9                	j	11c70 <__call_exitprocs+0x2e>
   11c9c:	40d8                	lw	a4,4(s1)
   11c9e:	405c                	lw	a5,4(s0)
   11ca0:	177d                	addi	a4,a4,-1
   11ca2:	03271663          	bne	a4,s2,11cce <__call_exitprocs+0x8c>
   11ca6:	0124a223          	sw	s2,4(s1)
   11caa:	d7f5                	beqz	a5,11c96 <__call_exitprocs+0x54>
   11cac:	1884a683          	lw	a3,392(s1)
   11cb0:	012b1733          	sll	a4,s6,s2
   11cb4:	0044ab83          	lw	s7,4(s1)
   11cb8:	8ef9                	and	a3,a3,a4
   11cba:	ee89                	bnez	a3,11cd4 <__call_exitprocs+0x92>
   11cbc:	9782                	jalr	a5
   11cbe:	40d8                	lw	a4,4(s1)
   11cc0:	1489a783          	lw	a5,328(s3)
   11cc4:	f9771ee3          	bne	a4,s7,11c60 <__call_exitprocs+0x1e>
   11cc8:	fcf487e3          	beq	s1,a5,11c96 <__call_exitprocs+0x54>
   11ccc:	bf51                	j	11c60 <__call_exitprocs+0x1e>
   11cce:	00042223          	sw	zero,4(s0)
   11cd2:	bfe1                	j	11caa <__call_exitprocs+0x68>
   11cd4:	18c4a683          	lw	a3,396(s1)
   11cd8:	08442583          	lw	a1,132(s0)
   11cdc:	8f75                	and	a4,a4,a3
   11cde:	e701                	bnez	a4,11ce6 <__call_exitprocs+0xa4>
   11ce0:	8556                	mv	a0,s5
   11ce2:	9782                	jalr	a5
   11ce4:	bfe9                	j	11cbe <__call_exitprocs+0x7c>
   11ce6:	852e                	mv	a0,a1
   11ce8:	9782                	jalr	a5
   11cea:	bfd1                	j	11cbe <__call_exitprocs+0x7c>

00011cec <__sflush_r>:
   11cec:	00c59783          	lh	a5,12(a1)
   11cf0:	1101                	addi	sp,sp,-32
   11cf2:	cc22                	sw	s0,24(sp)
   11cf4:	01079713          	slli	a4,a5,0x10
   11cf8:	8341                	srli	a4,a4,0x10
   11cfa:	ca26                	sw	s1,20(sp)
   11cfc:	ce06                	sw	ra,28(sp)
   11cfe:	c84a                	sw	s2,16(sp)
   11d00:	c64e                	sw	s3,12(sp)
   11d02:	00877693          	andi	a3,a4,8
   11d06:	84aa                	mv	s1,a0
   11d08:	842e                	mv	s0,a1
   11d0a:	eee5                	bnez	a3,11e02 <__sflush_r+0x116>
   11d0c:	6705                	lui	a4,0x1
   11d0e:	80070713          	addi	a4,a4,-2048 # 800 <__stack_chk_init-0xf874>
   11d12:	8fd9                	or	a5,a5,a4
   11d14:	41d8                	lw	a4,4(a1)
   11d16:	00f59623          	sh	a5,12(a1)
   11d1a:	00e04d63          	bgtz	a4,11d34 <__sflush_r+0x48>
   11d1e:	5dd8                	lw	a4,60(a1)
   11d20:	00e04a63          	bgtz	a4,11d34 <__sflush_r+0x48>
   11d24:	4501                	li	a0,0
   11d26:	40f2                	lw	ra,28(sp)
   11d28:	4462                	lw	s0,24(sp)
   11d2a:	44d2                	lw	s1,20(sp)
   11d2c:	4942                	lw	s2,16(sp)
   11d2e:	49b2                	lw	s3,12(sp)
   11d30:	6105                	addi	sp,sp,32
   11d32:	8082                	ret
   11d34:	5418                	lw	a4,40(s0)
   11d36:	d77d                	beqz	a4,11d24 <__sflush_r+0x38>
   11d38:	0004a903          	lw	s2,0(s1)
   11d3c:	01379693          	slli	a3,a5,0x13
   11d40:	0004a023          	sw	zero,0(s1)
   11d44:	4c4c                	lw	a1,28(s0)
   11d46:	0806d563          	bgez	a3,11dd0 <__sflush_r+0xe4>
   11d4a:	4830                	lw	a2,80(s0)
   11d4c:	00c45783          	lhu	a5,12(s0)
   11d50:	8b91                	andi	a5,a5,4
   11d52:	c799                	beqz	a5,11d60 <__sflush_r+0x74>
   11d54:	405c                	lw	a5,4(s0)
   11d56:	8e1d                	sub	a2,a2,a5
   11d58:	581c                	lw	a5,48(s0)
   11d5a:	c399                	beqz	a5,11d60 <__sflush_r+0x74>
   11d5c:	5c5c                	lw	a5,60(s0)
   11d5e:	8e1d                	sub	a2,a2,a5
   11d60:	541c                	lw	a5,40(s0)
   11d62:	4c4c                	lw	a1,28(s0)
   11d64:	4681                	li	a3,0
   11d66:	8526                	mv	a0,s1
   11d68:	9782                	jalr	a5
   11d6a:	57fd                	li	a5,-1
   11d6c:	00c45683          	lhu	a3,12(s0)
   11d70:	00f51d63          	bne	a0,a5,11d8a <__sflush_r+0x9e>
   11d74:	409c                	lw	a5,0(s1)
   11d76:	4775                	li	a4,29
   11d78:	06f76f63          	bltu	a4,a5,11df6 <__sflush_r+0x10a>
   11d7c:	20400737          	lui	a4,0x20400
   11d80:	0705                	addi	a4,a4,1
   11d82:	00f75733          	srl	a4,a4,a5
   11d86:	8b05                	andi	a4,a4,1
   11d88:	c73d                	beqz	a4,11df6 <__sflush_r+0x10a>
   11d8a:	77fd                	lui	a5,0xfffff
   11d8c:	7ff78793          	addi	a5,a5,2047 # fffff7ff <__BSS_END__+0xfffe0b9b>
   11d90:	4818                	lw	a4,16(s0)
   11d92:	8ff5                	and	a5,a5,a3
   11d94:	07c2                	slli	a5,a5,0x10
   11d96:	87c1                	srai	a5,a5,0x10
   11d98:	c018                	sw	a4,0(s0)
   11d9a:	00f41623          	sh	a5,12(s0)
   11d9e:	00042223          	sw	zero,4(s0)
   11da2:	01379713          	slli	a4,a5,0x13
   11da6:	00075863          	bgez	a4,11db6 <__sflush_r+0xca>
   11daa:	57fd                	li	a5,-1
   11dac:	00f51463          	bne	a0,a5,11db4 <__sflush_r+0xc8>
   11db0:	409c                	lw	a5,0(s1)
   11db2:	e391                	bnez	a5,11db6 <__sflush_r+0xca>
   11db4:	c828                	sw	a0,80(s0)
   11db6:	580c                	lw	a1,48(s0)
   11db8:	0124a023          	sw	s2,0(s1)
   11dbc:	d5a5                	beqz	a1,11d24 <__sflush_r+0x38>
   11dbe:	04040793          	addi	a5,s0,64
   11dc2:	00f58463          	beq	a1,a5,11dca <__sflush_r+0xde>
   11dc6:	8526                	mv	a0,s1
   11dc8:	2681                	jal	12108 <_free_r>
   11dca:	02042823          	sw	zero,48(s0)
   11dce:	bf99                	j	11d24 <__sflush_r+0x38>
   11dd0:	4601                	li	a2,0
   11dd2:	4685                	li	a3,1
   11dd4:	8526                	mv	a0,s1
   11dd6:	9702                	jalr	a4
   11dd8:	57fd                	li	a5,-1
   11dda:	862a                	mv	a2,a0
   11ddc:	f6f518e3          	bne	a0,a5,11d4c <__sflush_r+0x60>
   11de0:	409c                	lw	a5,0(s1)
   11de2:	d7ad                	beqz	a5,11d4c <__sflush_r+0x60>
   11de4:	4775                	li	a4,29
   11de6:	00e78563          	beq	a5,a4,11df0 <__sflush_r+0x104>
   11dea:	4759                	li	a4,22
   11dec:	04e79463          	bne	a5,a4,11e34 <__sflush_r+0x148>
   11df0:	0124a023          	sw	s2,0(s1)
   11df4:	bf05                	j	11d24 <__sflush_r+0x38>
   11df6:	0406e793          	ori	a5,a3,64
   11dfa:	00f41623          	sh	a5,12(s0)
   11dfe:	557d                	li	a0,-1
   11e00:	b71d                	j	11d26 <__sflush_r+0x3a>
   11e02:	0105a983          	lw	s3,16(a1)
   11e06:	f0098fe3          	beqz	s3,11d24 <__sflush_r+0x38>
   11e0a:	0005a903          	lw	s2,0(a1)
   11e0e:	8b0d                	andi	a4,a4,3
   11e10:	0135a023          	sw	s3,0(a1)
   11e14:	41390933          	sub	s2,s2,s3
   11e18:	4781                	li	a5,0
   11e1a:	e311                	bnez	a4,11e1e <__sflush_r+0x132>
   11e1c:	49dc                	lw	a5,20(a1)
   11e1e:	c41c                	sw	a5,8(s0)
   11e20:	f12052e3          	blez	s2,11d24 <__sflush_r+0x38>
   11e24:	505c                	lw	a5,36(s0)
   11e26:	4c4c                	lw	a1,28(s0)
   11e28:	86ca                	mv	a3,s2
   11e2a:	864e                	mv	a2,s3
   11e2c:	8526                	mv	a0,s1
   11e2e:	9782                	jalr	a5
   11e30:	00a04763          	bgtz	a0,11e3e <__sflush_r+0x152>
   11e34:	00c45783          	lhu	a5,12(s0)
   11e38:	0407e793          	ori	a5,a5,64
   11e3c:	bf7d                	j	11dfa <__sflush_r+0x10e>
   11e3e:	99aa                	add	s3,s3,a0
   11e40:	40a90933          	sub	s2,s2,a0
   11e44:	bff1                	j	11e20 <__sflush_r+0x134>

00011e46 <_fflush_r>:
   11e46:	1101                	addi	sp,sp,-32
   11e48:	cc22                	sw	s0,24(sp)
   11e4a:	ce06                	sw	ra,28(sp)
   11e4c:	842a                	mv	s0,a0
   11e4e:	c511                	beqz	a0,11e5a <_fflush_r+0x14>
   11e50:	5d1c                	lw	a5,56(a0)
   11e52:	e781                	bnez	a5,11e5a <_fflush_r+0x14>
   11e54:	c62e                	sw	a1,12(sp)
   11e56:	28d5                	jal	11f4a <__sinit>
   11e58:	45b2                	lw	a1,12(sp)
   11e5a:	00c59783          	lh	a5,12(a1)
   11e5e:	c791                	beqz	a5,11e6a <_fflush_r+0x24>
   11e60:	8522                	mv	a0,s0
   11e62:	4462                	lw	s0,24(sp)
   11e64:	40f2                	lw	ra,28(sp)
   11e66:	6105                	addi	sp,sp,32
   11e68:	b551                	j	11cec <__sflush_r>
   11e6a:	40f2                	lw	ra,28(sp)
   11e6c:	4462                	lw	s0,24(sp)
   11e6e:	4501                	li	a0,0
   11e70:	6105                	addi	sp,sp,32
   11e72:	8082                	ret

00011e74 <fflush>:
   11e74:	85aa                	mv	a1,a0
   11e76:	e519                	bnez	a0,11e84 <fflush+0x10>
   11e78:	1bc1a503          	lw	a0,444(gp) # 1ebf4 <_global_impure_ptr>
   11e7c:	65c9                	lui	a1,0x12
   11e7e:	e4658593          	addi	a1,a1,-442 # 11e46 <_fflush_r>
   11e82:	a159                	j	12308 <_fwalk_reent>
   11e84:	1c01a503          	lw	a0,448(gp) # 1ebf8 <_impure_ptr>
   11e88:	bf7d                	j	11e46 <_fflush_r>

00011e8a <__fp_lock>:
   11e8a:	4501                	li	a0,0
   11e8c:	8082                	ret

00011e8e <std>:
   11e8e:	1141                	addi	sp,sp,-16
   11e90:	c422                	sw	s0,8(sp)
   11e92:	c606                	sw	ra,12(sp)
   11e94:	842a                	mv	s0,a0
   11e96:	00b51623          	sh	a1,12(a0)
   11e9a:	00c51723          	sh	a2,14(a0)
   11e9e:	00052023          	sw	zero,0(a0)
   11ea2:	00052223          	sw	zero,4(a0)
   11ea6:	00052423          	sw	zero,8(a0)
   11eaa:	06052223          	sw	zero,100(a0)
   11eae:	00052823          	sw	zero,16(a0)
   11eb2:	00052a23          	sw	zero,20(a0)
   11eb6:	00052c23          	sw	zero,24(a0)
   11eba:	4621                	li	a2,8
   11ebc:	4581                	li	a1,0
   11ebe:	05c50513          	addi	a0,a0,92
   11ec2:	c04fe0ef          	jal	ra,102c6 <memset>
   11ec6:	67d5                	lui	a5,0x15
   11ec8:	12478793          	addi	a5,a5,292 # 15124 <__sread>
   11ecc:	d01c                	sw	a5,32(s0)
   11ece:	67d5                	lui	a5,0x15
   11ed0:	15a78793          	addi	a5,a5,346 # 1515a <__swrite>
   11ed4:	d05c                	sw	a5,36(s0)
   11ed6:	67d5                	lui	a5,0x15
   11ed8:	1ac78793          	addi	a5,a5,428 # 151ac <__sseek>
   11edc:	d41c                	sw	a5,40(s0)
   11ede:	67d5                	lui	a5,0x15
   11ee0:	1e478793          	addi	a5,a5,484 # 151e4 <__sclose>
   11ee4:	cc40                	sw	s0,28(s0)
   11ee6:	d45c                	sw	a5,44(s0)
   11ee8:	40b2                	lw	ra,12(sp)
   11eea:	4422                	lw	s0,8(sp)
   11eec:	0141                	addi	sp,sp,16
   11eee:	8082                	ret

00011ef0 <_cleanup_r>:
   11ef0:	65dd                	lui	a1,0x17
   11ef2:	7c058593          	addi	a1,a1,1984 # 177c0 <_fclose_r>
   11ef6:	a909                	j	12308 <_fwalk_reent>

00011ef8 <__fp_unlock>:
   11ef8:	4501                	li	a0,0
   11efa:	8082                	ret

00011efc <__sfmoreglue>:
   11efc:	1141                	addi	sp,sp,-16
   11efe:	c226                	sw	s1,4(sp)
   11f00:	06800613          	li	a2,104
   11f04:	fff58493          	addi	s1,a1,-1
   11f08:	02c484b3          	mul	s1,s1,a2
   11f0c:	c04a                	sw	s2,0(sp)
   11f0e:	892e                	mv	s2,a1
   11f10:	c422                	sw	s0,8(sp)
   11f12:	c606                	sw	ra,12(sp)
   11f14:	07448593          	addi	a1,s1,116
   11f18:	545010ef          	jal	ra,13c5c <_malloc_r>
   11f1c:	842a                	mv	s0,a0
   11f1e:	cd01                	beqz	a0,11f36 <__sfmoreglue+0x3a>
   11f20:	00052023          	sw	zero,0(a0)
   11f24:	01252223          	sw	s2,4(a0)
   11f28:	0531                	addi	a0,a0,12
   11f2a:	c408                	sw	a0,8(s0)
   11f2c:	06848613          	addi	a2,s1,104
   11f30:	4581                	li	a1,0
   11f32:	b94fe0ef          	jal	ra,102c6 <memset>
   11f36:	8522                	mv	a0,s0
   11f38:	40b2                	lw	ra,12(sp)
   11f3a:	4422                	lw	s0,8(sp)
   11f3c:	4492                	lw	s1,4(sp)
   11f3e:	4902                	lw	s2,0(sp)
   11f40:	0141                	addi	sp,sp,16
   11f42:	8082                	ret

00011f44 <_cleanup>:
   11f44:	1bc1a503          	lw	a0,444(gp) # 1ebf4 <_global_impure_ptr>
   11f48:	b765                	j	11ef0 <_cleanup_r>

00011f4a <__sinit>:
   11f4a:	5d1c                	lw	a5,56(a0)
   11f4c:	e7a1                	bnez	a5,11f94 <__sinit+0x4a>
   11f4e:	1141                	addi	sp,sp,-16
   11f50:	67c9                	lui	a5,0x12
   11f52:	c606                	sw	ra,12(sp)
   11f54:	c422                	sw	s0,8(sp)
   11f56:	ef078793          	addi	a5,a5,-272 # 11ef0 <_cleanup_r>
   11f5a:	dd5c                	sw	a5,60(a0)
   11f5c:	478d                	li	a5,3
   11f5e:	2ef52223          	sw	a5,740(a0)
   11f62:	2ec50793          	addi	a5,a0,748
   11f66:	842a                	mv	s0,a0
   11f68:	2ef52423          	sw	a5,744(a0)
   11f6c:	2e052023          	sw	zero,736(a0)
   11f70:	4148                	lw	a0,4(a0)
   11f72:	4601                	li	a2,0
   11f74:	4591                	li	a1,4
   11f76:	3f21                	jal	11e8e <std>
   11f78:	4408                	lw	a0,8(s0)
   11f7a:	4605                	li	a2,1
   11f7c:	45a5                	li	a1,9
   11f7e:	3f01                	jal	11e8e <std>
   11f80:	4448                	lw	a0,12(s0)
   11f82:	4609                	li	a2,2
   11f84:	45c9                	li	a1,18
   11f86:	3721                	jal	11e8e <std>
   11f88:	4785                	li	a5,1
   11f8a:	dc1c                	sw	a5,56(s0)
   11f8c:	40b2                	lw	ra,12(sp)
   11f8e:	4422                	lw	s0,8(sp)
   11f90:	0141                	addi	sp,sp,16
   11f92:	8082                	ret
   11f94:	8082                	ret

00011f96 <__sfp>:
   11f96:	1141                	addi	sp,sp,-16
   11f98:	c226                	sw	s1,4(sp)
   11f9a:	1bc1a483          	lw	s1,444(gp) # 1ebf4 <_global_impure_ptr>
   11f9e:	c04a                	sw	s2,0(sp)
   11fa0:	c606                	sw	ra,12(sp)
   11fa2:	5c9c                	lw	a5,56(s1)
   11fa4:	c422                	sw	s0,8(sp)
   11fa6:	892a                	mv	s2,a0
   11fa8:	e399                	bnez	a5,11fae <__sfp+0x18>
   11faa:	8526                	mv	a0,s1
   11fac:	3f79                	jal	11f4a <__sinit>
   11fae:	2e048493          	addi	s1,s1,736
   11fb2:	4480                	lw	s0,8(s1)
   11fb4:	40dc                	lw	a5,4(s1)
   11fb6:	17fd                	addi	a5,a5,-1
   11fb8:	0007d663          	bgez	a5,11fc4 <__sfp+0x2e>
   11fbc:	409c                	lw	a5,0(s1)
   11fbe:	cb89                	beqz	a5,11fd0 <__sfp+0x3a>
   11fc0:	4084                	lw	s1,0(s1)
   11fc2:	bfc5                	j	11fb2 <__sfp+0x1c>
   11fc4:	00c41703          	lh	a4,12(s0)
   11fc8:	c705                	beqz	a4,11ff0 <__sfp+0x5a>
   11fca:	06840413          	addi	s0,s0,104
   11fce:	b7e5                	j	11fb6 <__sfp+0x20>
   11fd0:	4591                	li	a1,4
   11fd2:	854a                	mv	a0,s2
   11fd4:	3725                	jal	11efc <__sfmoreglue>
   11fd6:	c088                	sw	a0,0(s1)
   11fd8:	f565                	bnez	a0,11fc0 <__sfp+0x2a>
   11fda:	47b1                	li	a5,12
   11fdc:	00f92023          	sw	a5,0(s2)
   11fe0:	4401                	li	s0,0
   11fe2:	8522                	mv	a0,s0
   11fe4:	40b2                	lw	ra,12(sp)
   11fe6:	4422                	lw	s0,8(sp)
   11fe8:	4492                	lw	s1,4(sp)
   11fea:	4902                	lw	s2,0(sp)
   11fec:	0141                	addi	sp,sp,16
   11fee:	8082                	ret
   11ff0:	77c1                	lui	a5,0xffff0
   11ff2:	0785                	addi	a5,a5,1
   11ff4:	06042223          	sw	zero,100(s0)
   11ff8:	00042023          	sw	zero,0(s0)
   11ffc:	00042223          	sw	zero,4(s0)
   12000:	00042423          	sw	zero,8(s0)
   12004:	c45c                	sw	a5,12(s0)
   12006:	00042823          	sw	zero,16(s0)
   1200a:	00042a23          	sw	zero,20(s0)
   1200e:	00042c23          	sw	zero,24(s0)
   12012:	4621                	li	a2,8
   12014:	4581                	li	a1,0
   12016:	05c40513          	addi	a0,s0,92
   1201a:	aacfe0ef          	jal	ra,102c6 <memset>
   1201e:	02042823          	sw	zero,48(s0)
   12022:	02042a23          	sw	zero,52(s0)
   12026:	04042223          	sw	zero,68(s0)
   1202a:	04042423          	sw	zero,72(s0)
   1202e:	bf55                	j	11fe2 <__sfp+0x4c>

00012030 <__sfp_lock_acquire>:
   12030:	8082                	ret

00012032 <__sfp_lock_release>:
   12032:	8082                	ret

00012034 <__sinit_lock_acquire>:
   12034:	8082                	ret

00012036 <__sinit_lock_release>:
   12036:	8082                	ret

00012038 <__fp_lock_all>:
   12038:	1c01a503          	lw	a0,448(gp) # 1ebf8 <_impure_ptr>
   1203c:	65c9                	lui	a1,0x12
   1203e:	e8a58593          	addi	a1,a1,-374 # 11e8a <__fp_lock>
   12042:	a495                	j	122a6 <_fwalk>

00012044 <__fp_unlock_all>:
   12044:	1c01a503          	lw	a0,448(gp) # 1ebf8 <_impure_ptr>
   12048:	65c9                	lui	a1,0x12
   1204a:	ef858593          	addi	a1,a1,-264 # 11ef8 <__fp_unlock>
   1204e:	aca1                	j	122a6 <_fwalk>

00012050 <_malloc_trim_r>:
   12050:	7179                	addi	sp,sp,-48
   12052:	d04a                	sw	s2,32(sp)
   12054:	d422                	sw	s0,40(sp)
   12056:	d226                	sw	s1,36(sp)
   12058:	ce4e                	sw	s3,28(sp)
   1205a:	c62e                	sw	a1,12(sp)
   1205c:	d606                	sw	ra,44(sp)
   1205e:	89aa                	mv	s3,a0
   12060:	d9418913          	addi	s2,gp,-620 # 1e7cc <__malloc_av_>
   12064:	2a6020ef          	jal	ra,1430a <__malloc_lock>
   12068:	00892783          	lw	a5,8(s2)
   1206c:	45b2                	lw	a1,12(sp)
   1206e:	43c4                	lw	s1,4(a5)
   12070:	6785                	lui	a5,0x1
   12072:	fef78413          	addi	s0,a5,-17 # fef <__stack_chk_init-0xf085>
   12076:	98f1                	andi	s1,s1,-4
   12078:	8c0d                	sub	s0,s0,a1
   1207a:	9426                	add	s0,s0,s1
   1207c:	8031                	srli	s0,s0,0xc
   1207e:	147d                	addi	s0,s0,-1
   12080:	0432                	slli	s0,s0,0xc
   12082:	00f45d63          	bge	s0,a5,1209c <_malloc_trim_r+0x4c>
   12086:	854e                	mv	a0,s3
   12088:	284020ef          	jal	ra,1430c <__malloc_unlock>
   1208c:	4501                	li	a0,0
   1208e:	50b2                	lw	ra,44(sp)
   12090:	5422                	lw	s0,40(sp)
   12092:	5492                	lw	s1,36(sp)
   12094:	5902                	lw	s2,32(sp)
   12096:	49f2                	lw	s3,28(sp)
   12098:	6145                	addi	sp,sp,48
   1209a:	8082                	ret
   1209c:	4581                	li	a1,0
   1209e:	854e                	mv	a0,s3
   120a0:	5a1020ef          	jal	ra,14e40 <_sbrk_r>
   120a4:	00892783          	lw	a5,8(s2)
   120a8:	97a6                	add	a5,a5,s1
   120aa:	fcf51ee3          	bne	a0,a5,12086 <_malloc_trim_r+0x36>
   120ae:	408005b3          	neg	a1,s0
   120b2:	854e                	mv	a0,s3
   120b4:	58d020ef          	jal	ra,14e40 <_sbrk_r>
   120b8:	57fd                	li	a5,-1
   120ba:	02f51663          	bne	a0,a5,120e6 <_malloc_trim_r+0x96>
   120be:	4581                	li	a1,0
   120c0:	854e                	mv	a0,s3
   120c2:	57f020ef          	jal	ra,14e40 <_sbrk_r>
   120c6:	00892703          	lw	a4,8(s2)
   120ca:	46bd                	li	a3,15
   120cc:	40e507b3          	sub	a5,a0,a4
   120d0:	faf6dbe3          	bge	a3,a5,12086 <_malloc_trim_r+0x36>
   120d4:	1c41a683          	lw	a3,452(gp) # 1ebfc <__malloc_sbrk_base>
   120d8:	0017e793          	ori	a5,a5,1
   120dc:	c35c                	sw	a5,4(a4)
   120de:	8d15                	sub	a0,a0,a3
   120e0:	20a1a023          	sw	a0,512(gp) # 1ec38 <__malloc_current_mallinfo>
   120e4:	b74d                	j	12086 <_malloc_trim_r+0x36>
   120e6:	00892783          	lw	a5,8(s2)
   120ea:	8c81                	sub	s1,s1,s0
   120ec:	0014e493          	ori	s1,s1,1
   120f0:	c3c4                	sw	s1,4(a5)
   120f2:	20018793          	addi	a5,gp,512 # 1ec38 <__malloc_current_mallinfo>
   120f6:	4398                	lw	a4,0(a5)
   120f8:	854e                	mv	a0,s3
   120fa:	40870433          	sub	s0,a4,s0
   120fe:	c380                	sw	s0,0(a5)
   12100:	20c020ef          	jal	ra,1430c <__malloc_unlock>
   12104:	4505                	li	a0,1
   12106:	b761                	j	1208e <_malloc_trim_r+0x3e>

00012108 <_free_r>:
   12108:	18058e63          	beqz	a1,122a4 <_free_r+0x19c>
   1210c:	1141                	addi	sp,sp,-16
   1210e:	c422                	sw	s0,8(sp)
   12110:	c226                	sw	s1,4(sp)
   12112:	842a                	mv	s0,a0
   12114:	84ae                	mv	s1,a1
   12116:	c606                	sw	ra,12(sp)
   12118:	1f2020ef          	jal	ra,1430a <__malloc_lock>
   1211c:	ffc4a503          	lw	a0,-4(s1)
   12120:	ff848693          	addi	a3,s1,-8
   12124:	ffe57793          	andi	a5,a0,-2
   12128:	d9418813          	addi	a6,gp,-620 # 1e7cc <__malloc_av_>
   1212c:	00f685b3          	add	a1,a3,a5
   12130:	41d8                	lw	a4,4(a1)
   12132:	00882803          	lw	a6,8(a6)
   12136:	d9418613          	addi	a2,gp,-620 # 1e7cc <__malloc_av_>
   1213a:	9b71                	andi	a4,a4,-4
   1213c:	8905                	andi	a0,a0,1
   1213e:	02b81f63          	bne	a6,a1,1217c <_free_r+0x74>
   12142:	97ba                	add	a5,a5,a4
   12144:	e909                	bnez	a0,12156 <_free_r+0x4e>
   12146:	ff84a703          	lw	a4,-8(s1)
   1214a:	8e99                	sub	a3,a3,a4
   1214c:	468c                	lw	a1,8(a3)
   1214e:	97ba                	add	a5,a5,a4
   12150:	46d8                	lw	a4,12(a3)
   12152:	c5d8                	sw	a4,12(a1)
   12154:	c70c                	sw	a1,8(a4)
   12156:	0017e713          	ori	a4,a5,1
   1215a:	c2d8                	sw	a4,4(a3)
   1215c:	1c81a703          	lw	a4,456(gp) # 1ec00 <__malloc_trim_threshold>
   12160:	c614                	sw	a3,8(a2)
   12162:	00e7e663          	bltu	a5,a4,1216e <_free_r+0x66>
   12166:	1dc1a583          	lw	a1,476(gp) # 1ec14 <__malloc_top_pad>
   1216a:	8522                	mv	a0,s0
   1216c:	35d5                	jal	12050 <_malloc_trim_r>
   1216e:	8522                	mv	a0,s0
   12170:	4422                	lw	s0,8(sp)
   12172:	40b2                	lw	ra,12(sp)
   12174:	4492                	lw	s1,4(sp)
   12176:	0141                	addi	sp,sp,16
   12178:	1940206f          	j	1430c <__malloc_unlock>
   1217c:	c1d8                	sw	a4,4(a1)
   1217e:	4801                	li	a6,0
   12180:	e105                	bnez	a0,121a0 <_free_r+0x98>
   12182:	ff84a503          	lw	a0,-8(s1)
   12186:	d9c18893          	addi	a7,gp,-612 # 1e7d4 <__malloc_av_+0x8>
   1218a:	8e89                	sub	a3,a3,a0
   1218c:	97aa                	add	a5,a5,a0
   1218e:	4688                	lw	a0,8(a3)
   12190:	07150a63          	beq	a0,a7,12204 <_free_r+0xfc>
   12194:	00c6a883          	lw	a7,12(a3)
   12198:	01152623          	sw	a7,12(a0)
   1219c:	00a8a423          	sw	a0,8(a7)
   121a0:	00e58533          	add	a0,a1,a4
   121a4:	4148                	lw	a0,4(a0)
   121a6:	8905                	andi	a0,a0,1
   121a8:	ed11                	bnez	a0,121c4 <_free_r+0xbc>
   121aa:	97ba                	add	a5,a5,a4
   121ac:	4598                	lw	a4,8(a1)
   121ae:	04081d63          	bnez	a6,12208 <_free_r+0x100>
   121b2:	d9c18513          	addi	a0,gp,-612 # 1e7d4 <__malloc_av_+0x8>
   121b6:	04a71963          	bne	a4,a0,12208 <_free_r+0x100>
   121ba:	ca54                	sw	a3,20(a2)
   121bc:	ca14                	sw	a3,16(a2)
   121be:	c6d8                	sw	a4,12(a3)
   121c0:	c698                	sw	a4,8(a3)
   121c2:	4805                	li	a6,1
   121c4:	0017e713          	ori	a4,a5,1
   121c8:	c2d8                	sw	a4,4(a3)
   121ca:	00f68733          	add	a4,a3,a5
   121ce:	c31c                	sw	a5,0(a4)
   121d0:	f8081fe3          	bnez	a6,1216e <_free_r+0x66>
   121d4:	1ff00713          	li	a4,511
   121d8:	02f76c63          	bltu	a4,a5,12210 <_free_r+0x108>
   121dc:	838d                	srli	a5,a5,0x3
   121de:	4027d593          	srai	a1,a5,0x2
   121e2:	4705                	li	a4,1
   121e4:	00b71733          	sll	a4,a4,a1
   121e8:	424c                	lw	a1,4(a2)
   121ea:	0785                	addi	a5,a5,1
   121ec:	078e                	slli	a5,a5,0x3
   121ee:	97b2                	add	a5,a5,a2
   121f0:	8f4d                	or	a4,a4,a1
   121f2:	c258                	sw	a4,4(a2)
   121f4:	4398                	lw	a4,0(a5)
   121f6:	ff878613          	addi	a2,a5,-8
   121fa:	c6d0                	sw	a2,12(a3)
   121fc:	c698                	sw	a4,8(a3)
   121fe:	c394                	sw	a3,0(a5)
   12200:	c754                	sw	a3,12(a4)
   12202:	b7b5                	j	1216e <_free_r+0x66>
   12204:	4805                	li	a6,1
   12206:	bf69                	j	121a0 <_free_r+0x98>
   12208:	45cc                	lw	a1,12(a1)
   1220a:	c74c                	sw	a1,12(a4)
   1220c:	c598                	sw	a4,8(a1)
   1220e:	bf5d                	j	121c4 <_free_r+0xbc>
   12210:	0097d593          	srli	a1,a5,0x9
   12214:	4711                	li	a4,4
   12216:	02b76b63          	bltu	a4,a1,1224c <_free_r+0x144>
   1221a:	0067d713          	srli	a4,a5,0x6
   1221e:	03870713          	addi	a4,a4,56 # 20400038 <__BSS_END__+0x203e13d4>
   12222:	00170593          	addi	a1,a4,1
   12226:	058e                	slli	a1,a1,0x3
   12228:	95b2                	add	a1,a1,a2
   1222a:	ff858513          	addi	a0,a1,-8
   1222e:	418c                	lw	a1,0(a1)
   12230:	06b51463          	bne	a0,a1,12298 <_free_r+0x190>
   12234:	4785                	li	a5,1
   12236:	8709                	srai	a4,a4,0x2
   12238:	00e79733          	sll	a4,a5,a4
   1223c:	425c                	lw	a5,4(a2)
   1223e:	8f5d                	or	a4,a4,a5
   12240:	c258                	sw	a4,4(a2)
   12242:	c6c8                	sw	a0,12(a3)
   12244:	c68c                	sw	a1,8(a3)
   12246:	c514                	sw	a3,8(a0)
   12248:	c5d4                	sw	a3,12(a1)
   1224a:	b715                	j	1216e <_free_r+0x66>
   1224c:	4751                	li	a4,20
   1224e:	00b76563          	bltu	a4,a1,12258 <_free_r+0x150>
   12252:	05b58713          	addi	a4,a1,91
   12256:	b7f1                	j	12222 <_free_r+0x11a>
   12258:	05400713          	li	a4,84
   1225c:	00b76763          	bltu	a4,a1,1226a <_free_r+0x162>
   12260:	00c7d713          	srli	a4,a5,0xc
   12264:	06e70713          	addi	a4,a4,110
   12268:	bf6d                	j	12222 <_free_r+0x11a>
   1226a:	15400713          	li	a4,340
   1226e:	00b76763          	bltu	a4,a1,1227c <_free_r+0x174>
   12272:	00f7d713          	srli	a4,a5,0xf
   12276:	07770713          	addi	a4,a4,119
   1227a:	b765                	j	12222 <_free_r+0x11a>
   1227c:	55400513          	li	a0,1364
   12280:	07e00713          	li	a4,126
   12284:	f8b56fe3          	bltu	a0,a1,12222 <_free_r+0x11a>
   12288:	0127d713          	srli	a4,a5,0x12
   1228c:	07c70713          	addi	a4,a4,124
   12290:	bf49                	j	12222 <_free_r+0x11a>
   12292:	458c                	lw	a1,8(a1)
   12294:	00b50663          	beq	a0,a1,122a0 <_free_r+0x198>
   12298:	41d8                	lw	a4,4(a1)
   1229a:	9b71                	andi	a4,a4,-4
   1229c:	fee7ebe3          	bltu	a5,a4,12292 <_free_r+0x18a>
   122a0:	45c8                	lw	a0,12(a1)
   122a2:	b745                	j	12242 <_free_r+0x13a>
   122a4:	8082                	ret

000122a6 <_fwalk>:
   122a6:	7179                	addi	sp,sp,-48
   122a8:	d422                	sw	s0,40(sp)
   122aa:	d04a                	sw	s2,32(sp)
   122ac:	cc52                	sw	s4,24(sp)
   122ae:	ca56                	sw	s5,20(sp)
   122b0:	d606                	sw	ra,44(sp)
   122b2:	d226                	sw	s1,36(sp)
   122b4:	ce4e                	sw	s3,28(sp)
   122b6:	2e050413          	addi	s0,a0,736
   122ba:	4901                	li	s2,0
   122bc:	4a05                	li	s4,1
   122be:	5afd                	li	s5,-1
   122c0:	e819                	bnez	s0,122d6 <_fwalk+0x30>
   122c2:	50b2                	lw	ra,44(sp)
   122c4:	5422                	lw	s0,40(sp)
   122c6:	854a                	mv	a0,s2
   122c8:	5492                	lw	s1,36(sp)
   122ca:	5902                	lw	s2,32(sp)
   122cc:	49f2                	lw	s3,28(sp)
   122ce:	4a62                	lw	s4,24(sp)
   122d0:	4ad2                	lw	s5,20(sp)
   122d2:	6145                	addi	sp,sp,48
   122d4:	8082                	ret
   122d6:	4404                	lw	s1,8(s0)
   122d8:	00442983          	lw	s3,4(s0)
   122dc:	19fd                	addi	s3,s3,-1
   122de:	0009d463          	bgez	s3,122e6 <_fwalk+0x40>
   122e2:	4000                	lw	s0,0(s0)
   122e4:	bff1                	j	122c0 <_fwalk+0x1a>
   122e6:	00c4d783          	lhu	a5,12(s1)
   122ea:	00fa7c63          	bgeu	s4,a5,12302 <_fwalk+0x5c>
   122ee:	00e49783          	lh	a5,14(s1)
   122f2:	01578863          	beq	a5,s5,12302 <_fwalk+0x5c>
   122f6:	8526                	mv	a0,s1
   122f8:	c62e                	sw	a1,12(sp)
   122fa:	9582                	jalr	a1
   122fc:	45b2                	lw	a1,12(sp)
   122fe:	00a96933          	or	s2,s2,a0
   12302:	06848493          	addi	s1,s1,104
   12306:	bfd9                	j	122dc <_fwalk+0x36>

00012308 <_fwalk_reent>:
   12308:	7179                	addi	sp,sp,-48
   1230a:	d422                	sw	s0,40(sp)
   1230c:	d04a                	sw	s2,32(sp)
   1230e:	cc52                	sw	s4,24(sp)
   12310:	ca56                	sw	s5,20(sp)
   12312:	c85a                	sw	s6,16(sp)
   12314:	c65e                	sw	s7,12(sp)
   12316:	d606                	sw	ra,44(sp)
   12318:	d226                	sw	s1,36(sp)
   1231a:	ce4e                	sw	s3,28(sp)
   1231c:	8a2a                	mv	s4,a0
   1231e:	8aae                	mv	s5,a1
   12320:	2e050413          	addi	s0,a0,736
   12324:	4901                	li	s2,0
   12326:	4b05                	li	s6,1
   12328:	5bfd                	li	s7,-1
   1232a:	ec09                	bnez	s0,12344 <_fwalk_reent+0x3c>
   1232c:	50b2                	lw	ra,44(sp)
   1232e:	5422                	lw	s0,40(sp)
   12330:	854a                	mv	a0,s2
   12332:	5492                	lw	s1,36(sp)
   12334:	5902                	lw	s2,32(sp)
   12336:	49f2                	lw	s3,28(sp)
   12338:	4a62                	lw	s4,24(sp)
   1233a:	4ad2                	lw	s5,20(sp)
   1233c:	4b42                	lw	s6,16(sp)
   1233e:	4bb2                	lw	s7,12(sp)
   12340:	6145                	addi	sp,sp,48
   12342:	8082                	ret
   12344:	4404                	lw	s1,8(s0)
   12346:	00442983          	lw	s3,4(s0)
   1234a:	19fd                	addi	s3,s3,-1
   1234c:	0009d463          	bgez	s3,12354 <_fwalk_reent+0x4c>
   12350:	4000                	lw	s0,0(s0)
   12352:	bfe1                	j	1232a <_fwalk_reent+0x22>
   12354:	00c4d783          	lhu	a5,12(s1)
   12358:	00fb7b63          	bgeu	s6,a5,1236e <_fwalk_reent+0x66>
   1235c:	00e49783          	lh	a5,14(s1)
   12360:	01778763          	beq	a5,s7,1236e <_fwalk_reent+0x66>
   12364:	85a6                	mv	a1,s1
   12366:	8552                	mv	a0,s4
   12368:	9a82                	jalr	s5
   1236a:	00a96933          	or	s2,s2,a0
   1236e:	06848493          	addi	s1,s1,104
   12372:	bfe1                	j	1234a <_fwalk_reent+0x42>

00012374 <eclear>:
   12374:	01450793          	addi	a5,a0,20
   12378:	0509                	addi	a0,a0,2
   1237a:	fe051f23          	sh	zero,-2(a0)
   1237e:	fef51de3          	bne	a0,a5,12378 <eclear+0x4>
   12382:	8082                	ret

00012384 <emov>:
   12384:	01450793          	addi	a5,a0,20
   12388:	0509                	addi	a0,a0,2
   1238a:	ffe55703          	lhu	a4,-2(a0)
   1238e:	0589                	addi	a1,a1,2
   12390:	fee59f23          	sh	a4,-2(a1)
   12394:	fea79ae3          	bne	a5,a0,12388 <emov+0x4>
   12398:	8082                	ret

0001239a <ecleaz>:
   1239a:	01a50793          	addi	a5,a0,26
   1239e:	0509                	addi	a0,a0,2
   123a0:	fe051f23          	sh	zero,-2(a0)
   123a4:	fef51de3          	bne	a0,a5,1239e <ecleaz+0x4>
   123a8:	8082                	ret

000123aa <emovz>:
   123aa:	01850713          	addi	a4,a0,24
   123ae:	87ae                	mv	a5,a1
   123b0:	0509                	addi	a0,a0,2
   123b2:	ffe55683          	lhu	a3,-2(a0)
   123b6:	0789                	addi	a5,a5,2
   123b8:	fed79f23          	sh	a3,-2(a5)
   123bc:	fea71ae3          	bne	a4,a0,123b0 <emovz+0x6>
   123c0:	00059c23          	sh	zero,24(a1)
   123c4:	8082                	ret

000123c6 <ecmpm>:
   123c6:	00450793          	addi	a5,a0,4
   123ca:	0591                	addi	a1,a1,4
   123cc:	0569                	addi	a0,a0,26
   123ce:	0789                	addi	a5,a5,2
   123d0:	0589                	addi	a1,a1,2
   123d2:	ffe7d683          	lhu	a3,-2(a5)
   123d6:	ffe5d703          	lhu	a4,-2(a1)
   123da:	00e69663          	bne	a3,a4,123e6 <ecmpm+0x20>
   123de:	fef518e3          	bne	a0,a5,123ce <ecmpm+0x8>
   123e2:	4501                	li	a0,0
   123e4:	8082                	ret
   123e6:	4505                	li	a0,1
   123e8:	00d76363          	bltu	a4,a3,123ee <ecmpm+0x28>
   123ec:	557d                	li	a0,-1
   123ee:	8082                	ret

000123f0 <eshdn1>:
   123f0:	00450693          	addi	a3,a0,4
   123f4:	4781                	li	a5,0
   123f6:	0569                	addi	a0,a0,26
   123f8:	7661                	lui	a2,0xffff8
   123fa:	0006d703          	lhu	a4,0(a3)
   123fe:	00177593          	andi	a1,a4,1
   12402:	c199                	beqz	a1,12408 <eshdn1+0x18>
   12404:	0017e793          	ori	a5,a5,1
   12408:	0027f593          	andi	a1,a5,2
   1240c:	8305                	srli	a4,a4,0x1
   1240e:	e991                	bnez	a1,12422 <eshdn1+0x32>
   12410:	0786                	slli	a5,a5,0x1
   12412:	00e69023          	sh	a4,0(a3)
   12416:	07c2                	slli	a5,a5,0x10
   12418:	0689                	addi	a3,a3,2
   1241a:	83c1                	srli	a5,a5,0x10
   1241c:	fcd51fe3          	bne	a0,a3,123fa <eshdn1+0xa>
   12420:	8082                	ret
   12422:	8f51                	or	a4,a4,a2
   12424:	b7f5                	j	12410 <eshdn1+0x20>

00012426 <eshup1>:
   12426:	01650693          	addi	a3,a0,22
   1242a:	4701                	li	a4,0
   1242c:	0026d783          	lhu	a5,2(a3)
   12430:	01079613          	slli	a2,a5,0x10
   12434:	8641                	srai	a2,a2,0x10
   12436:	00065463          	bgez	a2,1243e <eshup1+0x18>
   1243a:	00176713          	ori	a4,a4,1
   1243e:	0786                	slli	a5,a5,0x1
   12440:	07c2                	slli	a5,a5,0x10
   12442:	00277613          	andi	a2,a4,2
   12446:	83c1                	srli	a5,a5,0x10
   12448:	ea11                	bnez	a2,1245c <eshup1+0x36>
   1244a:	0706                	slli	a4,a4,0x1
   1244c:	00f69123          	sh	a5,2(a3)
   12450:	0742                	slli	a4,a4,0x10
   12452:	16f9                	addi	a3,a3,-2
   12454:	8341                	srli	a4,a4,0x10
   12456:	fcd51be3          	bne	a0,a3,1242c <eshup1+0x6>
   1245a:	8082                	ret
   1245c:	0017e793          	ori	a5,a5,1
   12460:	b7ed                	j	1244a <eshup1+0x24>

00012462 <eshdn8>:
   12462:	00450793          	addi	a5,a0,4
   12466:	4701                	li	a4,0
   12468:	0569                	addi	a0,a0,26
   1246a:	0007d683          	lhu	a3,0(a5)
   1246e:	0789                	addi	a5,a5,2
   12470:	0086d613          	srli	a2,a3,0x8
   12474:	8f51                	or	a4,a4,a2
   12476:	fee79f23          	sh	a4,-2(a5)
   1247a:	00869713          	slli	a4,a3,0x8
   1247e:	0742                	slli	a4,a4,0x10
   12480:	8341                	srli	a4,a4,0x10
   12482:	fef514e3          	bne	a0,a5,1246a <eshdn8+0x8>
   12486:	8082                	ret

00012488 <eshup8>:
   12488:	01650793          	addi	a5,a0,22
   1248c:	4701                	li	a4,0
   1248e:	0027d683          	lhu	a3,2(a5)
   12492:	17f9                	addi	a5,a5,-2
   12494:	00869613          	slli	a2,a3,0x8
   12498:	8f51                	or	a4,a4,a2
   1249a:	00e79223          	sh	a4,4(a5)
   1249e:	0086d713          	srli	a4,a3,0x8
   124a2:	fef516e3          	bne	a0,a5,1248e <eshup8+0x6>
   124a6:	8082                	ret

000124a8 <eshup6>:
   124a8:	00450793          	addi	a5,a0,4
   124ac:	01850713          	addi	a4,a0,24
   124b0:	0789                	addi	a5,a5,2
   124b2:	0007d683          	lhu	a3,0(a5)
   124b6:	fed79f23          	sh	a3,-2(a5)
   124ba:	fef71be3          	bne	a4,a5,124b0 <eshup6+0x8>
   124be:	00051c23          	sh	zero,24(a0)
   124c2:	8082                	ret

000124c4 <eshdn6>:
   124c4:	01850793          	addi	a5,a0,24
   124c8:	01a50713          	addi	a4,a0,26
   124cc:	00450693          	addi	a3,a0,4
   124d0:	17f9                	addi	a5,a5,-2
   124d2:	0007d603          	lhu	a2,0(a5)
   124d6:	1779                	addi	a4,a4,-2
   124d8:	00c71023          	sh	a2,0(a4)
   124dc:	fef69ae3          	bne	a3,a5,124d0 <eshdn6+0xc>
   124e0:	00051223          	sh	zero,4(a0)
   124e4:	8082                	ret

000124e6 <eaddm>:
   124e6:	05e1                	addi	a1,a1,24
   124e8:	01650713          	addi	a4,a0,22
   124ec:	4681                	li	a3,0
   124ee:	00275783          	lhu	a5,2(a4)
   124f2:	0005d603          	lhu	a2,0(a1)
   124f6:	1779                	addi	a4,a4,-2
   124f8:	15f9                	addi	a1,a1,-2
   124fa:	97b2                	add	a5,a5,a2
   124fc:	97b6                	add	a5,a5,a3
   124fe:	00f59123          	sh	a5,2(a1)
   12502:	83c1                	srli	a5,a5,0x10
   12504:	0017f693          	andi	a3,a5,1
   12508:	fee513e3          	bne	a0,a4,124ee <eaddm+0x8>
   1250c:	8082                	ret

0001250e <esubm>:
   1250e:	05e1                	addi	a1,a1,24
   12510:	01650713          	addi	a4,a0,22
   12514:	4681                	li	a3,0
   12516:	0005d783          	lhu	a5,0(a1)
   1251a:	00275603          	lhu	a2,2(a4)
   1251e:	1779                	addi	a4,a4,-2
   12520:	15f9                	addi	a1,a1,-2
   12522:	8f91                	sub	a5,a5,a2
   12524:	8f95                	sub	a5,a5,a3
   12526:	00f59123          	sh	a5,2(a1)
   1252a:	83c1                	srli	a5,a5,0x10
   1252c:	0017f693          	andi	a3,a5,1
   12530:	fee513e3          	bne	a0,a4,12516 <esubm+0x8>
   12534:	8082                	ret

00012536 <m16m>:
   12536:	1cc1a703          	lw	a4,460(gp) # 1ec04 <__stack_chk_guard>
   1253a:	7179                	addi	sp,sp,-48
   1253c:	6e41                	lui	t3,0x10
   1253e:	01858313          	addi	t1,a1,24
   12542:	d606                	sw	ra,44(sp)
   12544:	ce3a                	sw	a4,28(sp)
   12546:	00011b23          	sh	zero,22(sp)
   1254a:	00011c23          	sh	zero,24(sp)
   1254e:	0591                	addi	a1,a1,4
   12550:	0834                	addi	a3,sp,24
   12552:	88be                	mv	a7,a5
   12554:	1e7d                	addi	t3,t3,-1
   12556:	00035703          	lhu	a4,0(t1)
   1255a:	16f9                	addi	a3,a3,-2
   1255c:	1379                	addi	t1,t1,-2
   1255e:	eb0d                	bnez	a4,12590 <m16m+0x5a>
   12560:	fe069f23          	sh	zero,-2(a3)
   12564:	fe6599e3          	bne	a1,t1,12556 <m16m+0x20>
   12568:	4791                	li	a5,4
   1256a:	4769                	li	a4,26
   1256c:	00f105b3          	add	a1,sp,a5
   12570:	0005d583          	lhu	a1,0(a1)
   12574:	00f606b3          	add	a3,a2,a5
   12578:	0789                	addi	a5,a5,2
   1257a:	00b69023          	sh	a1,0(a3)
   1257e:	fee797e3          	bne	a5,a4,1256c <m16m+0x36>
   12582:	4772                	lw	a4,28(sp)
   12584:	1cc1a783          	lw	a5,460(gp) # 1ec04 <__stack_chk_guard>
   12588:	02f70b63          	beq	a4,a5,125be <m16m+0x88>
   1258c:	e57fd0ef          	jal	ra,103e2 <__stack_chk_fail>
   12590:	02a70733          	mul	a4,a4,a0
   12594:	0026d803          	lhu	a6,2(a3)
   12598:	01c777b3          	and	a5,a4,t3
   1259c:	97c2                	add	a5,a5,a6
   1259e:	0107d813          	srli	a6,a5,0x10
   125a2:	00f69123          	sh	a5,2(a3)
   125a6:	01075793          	srli	a5,a4,0x10
   125aa:	0006d703          	lhu	a4,0(a3)
   125ae:	97ba                	add	a5,a5,a4
   125b0:	97c2                	add	a5,a5,a6
   125b2:	00f69023          	sh	a5,0(a3)
   125b6:	83c1                	srli	a5,a5,0x10
   125b8:	fef69f23          	sh	a5,-2(a3)
   125bc:	b765                	j	12564 <m16m+0x2e>
   125be:	50b2                	lw	ra,44(sp)
   125c0:	6145                	addi	sp,sp,48
   125c2:	8082                	ret

000125c4 <eisnan>:
   125c4:	01255783          	lhu	a5,18(a0)
   125c8:	fff7c793          	not	a5,a5
   125cc:	01179713          	slli	a4,a5,0x11
   125d0:	eb09                	bnez	a4,125e2 <eisnan+0x1e>
   125d2:	01250793          	addi	a5,a0,18
   125d6:	0509                	addi	a0,a0,2
   125d8:	ffe55703          	lhu	a4,-2(a0)
   125dc:	e709                	bnez	a4,125e6 <eisnan+0x22>
   125de:	fea79ce3          	bne	a5,a0,125d6 <eisnan+0x12>
   125e2:	4501                	li	a0,0
   125e4:	8082                	ret
   125e6:	4505                	li	a0,1
   125e8:	8082                	ret

000125ea <eisneg>:
   125ea:	1141                	addi	sp,sp,-16
   125ec:	c422                	sw	s0,8(sp)
   125ee:	c606                	sw	ra,12(sp)
   125f0:	842a                	mv	s0,a0
   125f2:	3fc9                	jal	125c4 <eisnan>
   125f4:	e901                	bnez	a0,12604 <eisneg+0x1a>
   125f6:	01241503          	lh	a0,18(s0)
   125fa:	817d                	srli	a0,a0,0x1f
   125fc:	40b2                	lw	ra,12(sp)
   125fe:	4422                	lw	s0,8(sp)
   12600:	0141                	addi	sp,sp,16
   12602:	8082                	ret
   12604:	4501                	li	a0,0
   12606:	bfdd                	j	125fc <eisneg+0x12>

00012608 <emovi>:
   12608:	01251783          	lh	a5,18(a0)
   1260c:	1141                	addi	sp,sp,-16
   1260e:	c606                	sw	ra,12(sp)
   12610:	c422                	sw	s0,8(sp)
   12612:	c226                	sw	s1,4(sp)
   12614:	c04a                	sw	s2,0(sp)
   12616:	0407d863          	bgez	a5,12666 <emovi+0x5e>
   1261a:	57fd                	li	a5,-1
   1261c:	00f59023          	sh	a5,0(a1)
   12620:	01255703          	lhu	a4,18(a0)
   12624:	67a1                	lui	a5,0x8
   12626:	17fd                	addi	a5,a5,-1
   12628:	8f7d                	and	a4,a4,a5
   1262a:	00e59123          	sh	a4,2(a1)
   1262e:	01050913          	addi	s2,a0,16
   12632:	04f71763          	bne	a4,a5,12680 <emovi+0x78>
   12636:	842e                	mv	s0,a1
   12638:	84aa                	mv	s1,a0
   1263a:	3769                	jal	125c4 <eisnan>
   1263c:	c905                	beqz	a0,1266c <emovi+0x64>
   1263e:	00640793          	addi	a5,s0,6
   12642:	00041223          	sh	zero,4(s0)
   12646:	ffc48513          	addi	a0,s1,-4
   1264a:	1979                	addi	s2,s2,-2
   1264c:	00295703          	lhu	a4,2(s2)
   12650:	0789                	addi	a5,a5,2
   12652:	fee79f23          	sh	a4,-2(a5) # 7ffe <__stack_chk_init-0x8076>
   12656:	fea91ae3          	bne	s2,a0,1264a <emovi+0x42>
   1265a:	40b2                	lw	ra,12(sp)
   1265c:	4422                	lw	s0,8(sp)
   1265e:	4492                	lw	s1,4(sp)
   12660:	4902                	lw	s2,0(sp)
   12662:	0141                	addi	sp,sp,16
   12664:	8082                	ret
   12666:	00059023          	sh	zero,0(a1)
   1266a:	bf5d                	j	12620 <emovi+0x18>
   1266c:	00440793          	addi	a5,s0,4
   12670:	01a40593          	addi	a1,s0,26
   12674:	0789                	addi	a5,a5,2
   12676:	fe079f23          	sh	zero,-2(a5)
   1267a:	feb79de3          	bne	a5,a1,12674 <emovi+0x6c>
   1267e:	bff1                	j	1265a <emovi+0x52>
   12680:	00658793          	addi	a5,a1,6
   12684:	00059223          	sh	zero,4(a1)
   12688:	1579                	addi	a0,a0,-2
   1268a:	1979                	addi	s2,s2,-2
   1268c:	00295703          	lhu	a4,2(s2)
   12690:	0789                	addi	a5,a5,2
   12692:	fee79f23          	sh	a4,-2(a5)
   12696:	fea91ae3          	bne	s2,a0,1268a <emovi+0x82>
   1269a:	00059c23          	sh	zero,24(a1)
   1269e:	bf75                	j	1265a <emovi+0x52>

000126a0 <ecmp>:
   126a0:	711d                	addi	sp,sp,-96
   126a2:	c8ca                	sw	s2,80(sp)
   126a4:	1cc1a783          	lw	a5,460(gp) # 1ec04 <__stack_chk_guard>
   126a8:	cca2                	sw	s0,88(sp)
   126aa:	caa6                	sw	s1,84(sp)
   126ac:	c6ce                	sw	s3,76(sp)
   126ae:	ce86                	sw	ra,92(sp)
   126b0:	89aa                	mv	s3,a0
   126b2:	84ae                	mv	s1,a1
   126b4:	de3e                	sw	a5,60(sp)
   126b6:	3739                	jal	125c4 <eisnan>
   126b8:	5479                	li	s0,-2
   126ba:	e121                	bnez	a0,126fa <ecmp+0x5a>
   126bc:	8526                	mv	a0,s1
   126be:	3719                	jal	125c4 <eisnan>
   126c0:	842a                	mv	s0,a0
   126c2:	e149                	bnez	a0,12744 <ecmp+0xa4>
   126c4:	004c                	addi	a1,sp,4
   126c6:	854e                	mv	a0,s3
   126c8:	3781                	jal	12608 <emovi>
   126ca:	100c                	addi	a1,sp,32
   126cc:	8526                	mv	a0,s1
   126ce:	3f2d                	jal	12608 <emovi>
   126d0:	00415703          	lhu	a4,4(sp)
   126d4:	02015783          	lhu	a5,32(sp)
   126d8:	02e78d63          	beq	a5,a4,12712 <ecmp+0x72>
   126dc:	4789                	li	a5,2
   126de:	46e1                	li	a3,24
   126e0:	0050                	addi	a2,sp,4
   126e2:	963e                	add	a2,a2,a5
   126e4:	00065603          	lhu	a2,0(a2) # ffff8000 <__BSS_END__+0xfffd939c>
   126e8:	e20d                	bnez	a2,1270a <ecmp+0x6a>
   126ea:	1010                	addi	a2,sp,32
   126ec:	963e                	add	a2,a2,a5
   126ee:	00065603          	lhu	a2,0(a2)
   126f2:	ee01                	bnez	a2,1270a <ecmp+0x6a>
   126f4:	0789                	addi	a5,a5,2
   126f6:	fed795e3          	bne	a5,a3,126e0 <ecmp+0x40>
   126fa:	5772                	lw	a4,60(sp)
   126fc:	1cc1a783          	lw	a5,460(gp) # 1ec04 <__stack_chk_guard>
   12700:	8522                	mv	a0,s0
   12702:	04f70363          	beq	a4,a5,12748 <ecmp+0xa8>
   12706:	cddfd0ef          	jal	ra,103e2 <__stack_chk_fail>
   1270a:	4405                	li	s0,1
   1270c:	d77d                	beqz	a4,126fa <ecmp+0x5a>
   1270e:	547d                	li	s0,-1
   12710:	b7ed                	j	126fa <ecmp+0x5a>
   12712:	4605                	li	a2,1
   12714:	c391                	beqz	a5,12718 <ecmp+0x78>
   12716:	567d                	li	a2,-1
   12718:	4781                	li	a5,0
   1271a:	45e1                	li	a1,24
   1271c:	0058                	addi	a4,sp,4
   1271e:	973e                	add	a4,a4,a5
   12720:	00075683          	lhu	a3,0(a4)
   12724:	1018                	addi	a4,sp,32
   12726:	973e                	add	a4,a4,a5
   12728:	00075703          	lhu	a4,0(a4)
   1272c:	00e69663          	bne	a3,a4,12738 <ecmp+0x98>
   12730:	0789                	addi	a5,a5,2
   12732:	feb795e3          	bne	a5,a1,1271c <ecmp+0x7c>
   12736:	b7d1                	j	126fa <ecmp+0x5a>
   12738:	8432                	mv	s0,a2
   1273a:	fcd760e3          	bltu	a4,a3,126fa <ecmp+0x5a>
   1273e:	40c00433          	neg	s0,a2
   12742:	bf65                	j	126fa <ecmp+0x5a>
   12744:	5479                	li	s0,-2
   12746:	bf55                	j	126fa <ecmp+0x5a>
   12748:	40f6                	lw	ra,92(sp)
   1274a:	4466                	lw	s0,88(sp)
   1274c:	44d6                	lw	s1,84(sp)
   1274e:	4946                	lw	s2,80(sp)
   12750:	49b6                	lw	s3,76(sp)
   12752:	6125                	addi	sp,sp,96
   12754:	8082                	ret

00012756 <eisinf>:
   12756:	01255783          	lhu	a5,18(a0)
   1275a:	fff7c793          	not	a5,a5
   1275e:	01179713          	slli	a4,a5,0x11
   12762:	eb09                	bnez	a4,12774 <eisinf+0x1e>
   12764:	1141                	addi	sp,sp,-16
   12766:	c606                	sw	ra,12(sp)
   12768:	3db1                	jal	125c4 <eisnan>
   1276a:	40b2                	lw	ra,12(sp)
   1276c:	00153513          	seqz	a0,a0
   12770:	0141                	addi	sp,sp,16
   12772:	8082                	ret
   12774:	4501                	li	a0,0
   12776:	8082                	ret

00012778 <einfin.isra.2>:
   12778:	01250793          	addi	a5,a0,18
   1277c:	0509                	addi	a0,a0,2
   1277e:	fe051f23          	sh	zero,-2(a0)
   12782:	fef51de3          	bne	a0,a5,1277c <einfin.isra.2+0x4>
   12786:	00055783          	lhu	a5,0(a0)
   1278a:	6721                	lui	a4,0x8
   1278c:	177d                	addi	a4,a4,-1
   1278e:	8fd9                	or	a5,a5,a4
   12790:	00f51023          	sh	a5,0(a0)
   12794:	8082                	ret

00012796 <eshift.part.3>:
   12796:	1101                	addi	sp,sp,-32
   12798:	cc22                	sw	s0,24(sp)
   1279a:	c64e                	sw	s3,12(sp)
   1279c:	ce06                	sw	ra,28(sp)
   1279e:	ca26                	sw	s1,20(sp)
   127a0:	c84a                	sw	s2,16(sp)
   127a2:	c452                	sw	s4,8(sp)
   127a4:	c256                	sw	s5,4(sp)
   127a6:	89aa                	mv	s3,a0
   127a8:	842e                	mv	s0,a1
   127aa:	0a05d463          	bgez	a1,12852 <eshift.part.3+0xbc>
   127ae:	40b00933          	neg	s2,a1
   127b2:	8a4a                	mv	s4,s2
   127b4:	4481                	li	s1,0
   127b6:	4abd                	li	s5,15
   127b8:	034ac763          	blt	s5,s4,127e6 <eshift.part.3+0x50>
   127bc:	00495913          	srli	s2,s2,0x4
   127c0:	55c1                	li	a1,-16
   127c2:	02b905b3          	mul	a1,s2,a1
   127c6:	4a1d                	li	s4,7
   127c8:	40858433          	sub	s0,a1,s0
   127cc:	8922                	mv	s2,s0
   127ce:	032a4363          	blt	s4,s2,127f4 <eshift.part.3+0x5e>
   127d2:	00345593          	srli	a1,s0,0x3
   127d6:	57e1                	li	a5,-8
   127d8:	02f585b3          	mul	a1,a1,a5
   127dc:	942e                	add	s0,s0,a1
   127de:	e015                	bnez	s0,12802 <eshift.part.3+0x6c>
   127e0:	00903533          	snez	a0,s1
   127e4:	a8b1                	j	12840 <eshift.part.3+0xaa>
   127e6:	0189d783          	lhu	a5,24(s3)
   127ea:	854e                	mv	a0,s3
   127ec:	1a41                	addi	s4,s4,-16
   127ee:	8cdd                	or	s1,s1,a5
   127f0:	39d1                	jal	124c4 <eshdn6>
   127f2:	b7d9                	j	127b8 <eshift.part.3+0x22>
   127f4:	0189c783          	lbu	a5,24(s3)
   127f8:	854e                	mv	a0,s3
   127fa:	1961                	addi	s2,s2,-8
   127fc:	8cdd                	or	s1,s1,a5
   127fe:	3195                	jal	12462 <eshdn8>
   12800:	b7f9                	j	127ce <eshift.part.3+0x38>
   12802:	0189d783          	lhu	a5,24(s3)
   12806:	854e                	mv	a0,s3
   12808:	147d                	addi	s0,s0,-1
   1280a:	8b85                	andi	a5,a5,1
   1280c:	8cdd                	or	s1,s1,a5
   1280e:	36cd                	jal	123f0 <eshdn1>
   12810:	b7f9                	j	127de <eshift.part.3+0x48>
   12812:	854e                	mv	a0,s3
   12814:	3951                	jal	124a8 <eshup6>
   12816:	14c1                	addi	s1,s1,-16
   12818:	fe994de3          	blt	s2,s1,12812 <eshift.part.3+0x7c>
   1281c:	00445593          	srli	a1,s0,0x4
   12820:	57c1                	li	a5,-16
   12822:	02f585b3          	mul	a1,a1,a5
   12826:	491d                	li	s2,7
   12828:	942e                	add	s0,s0,a1
   1282a:	84a2                	mv	s1,s0
   1282c:	02994663          	blt	s2,s1,12858 <eshift.part.3+0xc2>
   12830:	00345593          	srli	a1,s0,0x3
   12834:	57e1                	li	a5,-8
   12836:	02f585b3          	mul	a1,a1,a5
   1283a:	942e                	add	s0,s0,a1
   1283c:	e015                	bnez	s0,12860 <eshift.part.3+0xca>
   1283e:	4501                	li	a0,0
   12840:	40f2                	lw	ra,28(sp)
   12842:	4462                	lw	s0,24(sp)
   12844:	44d2                	lw	s1,20(sp)
   12846:	4942                	lw	s2,16(sp)
   12848:	49b2                	lw	s3,12(sp)
   1284a:	4a22                	lw	s4,8(sp)
   1284c:	4a92                	lw	s5,4(sp)
   1284e:	6105                	addi	sp,sp,32
   12850:	8082                	ret
   12852:	84ae                	mv	s1,a1
   12854:	493d                	li	s2,15
   12856:	b7c9                	j	12818 <eshift.part.3+0x82>
   12858:	854e                	mv	a0,s3
   1285a:	313d                	jal	12488 <eshup8>
   1285c:	14e1                	addi	s1,s1,-8
   1285e:	b7f9                	j	1282c <eshift.part.3+0x96>
   12860:	854e                	mv	a0,s3
   12862:	36d1                	jal	12426 <eshup1>
   12864:	147d                	addi	s0,s0,-1
   12866:	bfd9                	j	1283c <eshift.part.3+0xa6>

00012868 <enormlz>:
   12868:	00455783          	lhu	a5,4(a0)
   1286c:	1141                	addi	sp,sp,-16
   1286e:	c226                	sw	s1,4(sp)
   12870:	c606                	sw	ra,12(sp)
   12872:	c422                	sw	s0,8(sp)
   12874:	c04a                	sw	s2,0(sp)
   12876:	84aa                	mv	s1,a0
   12878:	efa1                	bnez	a5,128d0 <enormlz+0x68>
   1287a:	00651783          	lh	a5,6(a0)
   1287e:	4401                	li	s0,0
   12880:	0a000913          	li	s2,160
   12884:	0007de63          	bgez	a5,128a0 <enormlz+0x38>
   12888:	8522                	mv	a0,s0
   1288a:	40b2                	lw	ra,12(sp)
   1288c:	4422                	lw	s0,8(sp)
   1288e:	4492                	lw	s1,4(sp)
   12890:	4902                	lw	s2,0(sp)
   12892:	0141                	addi	sp,sp,16
   12894:	8082                	ret
   12896:	8526                	mv	a0,s1
   12898:	0441                	addi	s0,s0,16
   1289a:	3139                	jal	124a8 <eshup6>
   1289c:	ff2406e3          	beq	s0,s2,12888 <enormlz+0x20>
   128a0:	0064d783          	lhu	a5,6(s1)
   128a4:	dbed                	beqz	a5,12896 <enormlz+0x2e>
   128a6:	0064d783          	lhu	a5,6(s1)
   128aa:	f007f793          	andi	a5,a5,-256
   128ae:	cf89                	beqz	a5,128c8 <enormlz+0x60>
   128b0:	0a000913          	li	s2,160
   128b4:	00649783          	lh	a5,6(s1)
   128b8:	fc07c8e3          	bltz	a5,12888 <enormlz+0x20>
   128bc:	8526                	mv	a0,s1
   128be:	0405                	addi	s0,s0,1
   128c0:	369d                	jal	12426 <eshup1>
   128c2:	fe8959e3          	bge	s2,s0,128b4 <enormlz+0x4c>
   128c6:	b7c9                	j	12888 <enormlz+0x20>
   128c8:	8526                	mv	a0,s1
   128ca:	3e7d                	jal	12488 <eshup8>
   128cc:	0421                	addi	s0,s0,8
   128ce:	bfe1                	j	128a6 <enormlz+0x3e>
   128d0:	f007f793          	andi	a5,a5,-256
   128d4:	4401                	li	s0,0
   128d6:	c399                	beqz	a5,128dc <enormlz+0x74>
   128d8:	3669                	jal	12462 <eshdn8>
   128da:	5461                	li	s0,-8
   128dc:	f7000913          	li	s2,-144
   128e0:	a031                	j	128ec <enormlz+0x84>
   128e2:	8526                	mv	a0,s1
   128e4:	147d                	addi	s0,s0,-1
   128e6:	3629                	jal	123f0 <eshdn1>
   128e8:	fb2440e3          	blt	s0,s2,12888 <enormlz+0x20>
   128ec:	0044d783          	lhu	a5,4(s1)
   128f0:	fbed                	bnez	a5,128e2 <enormlz+0x7a>
   128f2:	bf59                	j	12888 <enormlz+0x20>

000128f4 <enan.constprop.12>:
   128f4:	01050793          	addi	a5,a0,16
   128f8:	0509                	addi	a0,a0,2
   128fa:	fe051f23          	sh	zero,-2(a0)
   128fe:	fef51de3          	bne	a0,a5,128f8 <enan.constprop.12+0x4>
   12902:	77f1                	lui	a5,0xffffc
   12904:	00f51023          	sh	a5,0(a0)
   12908:	77e1                	lui	a5,0xffff8
   1290a:	fff7c793          	not	a5,a5
   1290e:	00f51123          	sh	a5,2(a0)
   12912:	8082                	ret

00012914 <emovo.isra.6>:
   12914:	872a                	mv	a4,a0
   12916:	00075683          	lhu	a3,0(a4) # 8000 <__stack_chk_init-0x8074>
   1291a:	852e                	mv	a0,a1
   1291c:	00275783          	lhu	a5,2(a4)
   12920:	c299                	beqz	a3,12926 <emovo.isra.6+0x12>
   12922:	76e1                	lui	a3,0xffff8
   12924:	8fd5                	or	a5,a5,a3
   12926:	00f51923          	sh	a5,18(a0)
   1292a:	00275603          	lhu	a2,2(a4)
   1292e:	66a1                	lui	a3,0x8
   12930:	16fd                	addi	a3,a3,-1
   12932:	00670793          	addi	a5,a4,6
   12936:	00d61a63          	bne	a2,a3,1294a <emovo.isra.6+0x36>
   1293a:	0769                	addi	a4,a4,26
   1293c:	0007d683          	lhu	a3,0(a5) # ffff8000 <__BSS_END__+0xfffd939c>
   12940:	e285                	bnez	a3,12960 <emovo.isra.6+0x4c>
   12942:	0789                	addi	a5,a5,2
   12944:	fee79ce3          	bne	a5,a4,1293c <emovo.isra.6+0x28>
   12948:	bd05                	j	12778 <einfin.isra.2>
   1294a:	0541                	addi	a0,a0,16
   1294c:	0761                	addi	a4,a4,24
   1294e:	0789                	addi	a5,a5,2
   12950:	ffe7d683          	lhu	a3,-2(a5)
   12954:	1579                	addi	a0,a0,-2
   12956:	00d51123          	sh	a3,2(a0)
   1295a:	fee79ae3          	bne	a5,a4,1294e <emovo.isra.6+0x3a>
   1295e:	8082                	ret
   12960:	bf51                	j	128f4 <enan.constprop.12>

00012962 <e113toe.isra.8>:
   12962:	7179                	addi	sp,sp,-48
   12964:	d04a                	sw	s2,32(sp)
   12966:	1cc1a783          	lw	a5,460(gp) # 1ec04 <__stack_chk_guard>
   1296a:	d226                	sw	s1,36(sp)
   1296c:	84aa                	mv	s1,a0
   1296e:	850a                	mv	a0,sp
   12970:	d422                	sw	s0,40(sp)
   12972:	ce3e                	sw	a5,28(sp)
   12974:	d606                	sw	ra,44(sp)
   12976:	842e                	mv	s0,a1
   12978:	340d                	jal	1239a <ecleaz>
   1297a:	00e4d703          	lhu	a4,14(s1)
   1297e:	01071793          	slli	a5,a4,0x10
   12982:	87c1                	srai	a5,a5,0x10
   12984:	0207c863          	bltz	a5,129b4 <e113toe.isra.8+0x52>
   12988:	00011023          	sh	zero,0(sp)
   1298c:	66a1                	lui	a3,0x8
   1298e:	16fd                	addi	a3,a3,-1
   12990:	8f75                	and	a4,a4,a3
   12992:	00e48793          	addi	a5,s1,14
   12996:	04d71863          	bne	a4,a3,129e6 <e113toe.isra.8+0x84>
   1299a:	8726                	mv	a4,s1
   1299c:	00075683          	lhu	a3,0(a4)
   129a0:	ce91                	beqz	a3,129bc <e113toe.isra.8+0x5a>
   129a2:	8522                	mv	a0,s0
   129a4:	3f81                	jal	128f4 <enan.constprop.12>
   129a6:	4772                	lw	a4,28(sp)
   129a8:	1cc1a783          	lw	a5,460(gp) # 1ec04 <__stack_chk_guard>
   129ac:	06f70663          	beq	a4,a5,12a18 <e113toe.isra.8+0xb6>
   129b0:	a33fd0ef          	jal	ra,103e2 <__stack_chk_fail>
   129b4:	57fd                	li	a5,-1
   129b6:	00f11023          	sh	a5,0(sp)
   129ba:	bfc9                	j	1298c <e113toe.isra.8+0x2a>
   129bc:	0709                	addi	a4,a4,2
   129be:	fce79fe3          	bne	a5,a4,1299c <e113toe.isra.8+0x3a>
   129c2:	8522                	mv	a0,s0
   129c4:	3a45                	jal	12374 <eclear>
   129c6:	8522                	mv	a0,s0
   129c8:	3b45                	jal	12778 <einfin.isra.2>
   129ca:	00e49783          	lh	a5,14(s1)
   129ce:	fc07dce3          	bgez	a5,129a6 <e113toe.isra.8+0x44>
   129d2:	8522                	mv	a0,s0
   129d4:	3ec5                	jal	125c4 <eisnan>
   129d6:	f961                	bnez	a0,129a6 <e113toe.isra.8+0x44>
   129d8:	01245783          	lhu	a5,18(s0)
   129dc:	7761                	lui	a4,0xffff8
   129de:	8fb9                	xor	a5,a5,a4
   129e0:	00f41923          	sh	a5,18(s0)
   129e4:	b7c9                	j	129a6 <e113toe.isra.8+0x44>
   129e6:	00e11123          	sh	a4,2(sp)
   129ea:	868a                	mv	a3,sp
   129ec:	17f9                	addi	a5,a5,-2
   129ee:	0007d603          	lhu	a2,0(a5)
   129f2:	0689                	addi	a3,a3,2
   129f4:	00c69223          	sh	a2,4(a3) # 8004 <__stack_chk_init-0x8070>
   129f8:	fef49ae3          	bne	s1,a5,129ec <e113toe.isra.8+0x8a>
   129fc:	e719                	bnez	a4,12a0a <e113toe.isra.8+0xa8>
   129fe:	00011223          	sh	zero,4(sp)
   12a02:	85a2                	mv	a1,s0
   12a04:	850a                	mv	a0,sp
   12a06:	3739                	jal	12914 <emovo.isra.6>
   12a08:	bf79                	j	129a6 <e113toe.isra.8+0x44>
   12a0a:	4785                	li	a5,1
   12a0c:	55fd                	li	a1,-1
   12a0e:	850a                	mv	a0,sp
   12a10:	00f11223          	sh	a5,4(sp)
   12a14:	3349                	jal	12796 <eshift.part.3>
   12a16:	b7f5                	j	12a02 <e113toe.isra.8+0xa0>
   12a18:	50b2                	lw	ra,44(sp)
   12a1a:	5422                	lw	s0,40(sp)
   12a1c:	5492                	lw	s1,36(sp)
   12a1e:	5902                	lw	s2,32(sp)
   12a20:	6145                	addi	sp,sp,48
   12a22:	8082                	ret

00012a24 <emdnorm>:
   12a24:	1101                	addi	sp,sp,-32
   12a26:	cc22                	sw	s0,24(sp)
   12a28:	ca26                	sw	s1,20(sp)
   12a2a:	c84a                	sw	s2,16(sp)
   12a2c:	c64e                	sw	s3,12(sp)
   12a2e:	c452                	sw	s4,8(sp)
   12a30:	c256                	sw	s5,4(sp)
   12a32:	8936                	mv	s2,a3
   12a34:	843e                	mv	s0,a5
   12a36:	ce06                	sw	ra,28(sp)
   12a38:	84aa                	mv	s1,a0
   12a3a:	89ae                	mv	s3,a1
   12a3c:	8a32                	mv	s4,a2
   12a3e:	8aba                	mv	s5,a4
   12a40:	3525                	jal	12868 <enormlz>
   12a42:	09000793          	li	a5,144
   12a46:	40a90933          	sub	s2,s2,a0
   12a4a:	02a7d763          	bge	a5,a0,12a78 <emdnorm+0x54>
   12a4e:	67a1                	lui	a5,0x8
   12a50:	17f9                	addi	a5,a5,-2
   12a52:	2127c263          	blt	a5,s2,12c56 <emdnorm+0x232>
   12a56:	00248793          	addi	a5,s1,2
   12a5a:	04e9                	addi	s1,s1,26
   12a5c:	0789                	addi	a5,a5,2
   12a5e:	fe079f23          	sh	zero,-2(a5) # 7ffe <__stack_chk_init-0x8076>
   12a62:	fe979de3          	bne	a5,s1,12a5c <emdnorm+0x38>
   12a66:	40f2                	lw	ra,28(sp)
   12a68:	4462                	lw	s0,24(sp)
   12a6a:	44d2                	lw	s1,20(sp)
   12a6c:	4942                	lw	s2,16(sp)
   12a6e:	49b2                	lw	s3,12(sp)
   12a70:	4a22                	lw	s4,8(sp)
   12a72:	4a92                	lw	s5,4(sp)
   12a74:	6105                	addi	sp,sp,32
   12a76:	8082                	ret
   12a78:	00095b63          	bgez	s2,12a8e <emdnorm+0x6a>
   12a7c:	f7000793          	li	a5,-144
   12a80:	0ef94363          	blt	s2,a5,12b66 <emdnorm+0x142>
   12a84:	85ca                	mv	a1,s2
   12a86:	8526                	mv	a0,s1
   12a88:	3339                	jal	12796 <eshift.part.3>
   12a8a:	0e051763          	bnez	a0,12b78 <emdnorm+0x154>
   12a8e:	180a8863          	beqz	s5,12c1e <emdnorm+0x1fa>
   12a92:	4058                	lw	a4,4(s0)
   12a94:	401c                	lw	a5,0(s0)
   12a96:	04f70763          	beq	a4,a5,12ae4 <emdnorm+0xc0>
   12a9a:	01a40513          	addi	a0,s0,26
   12a9e:	38f5                	jal	1239a <ecleaz>
   12aa0:	405c                	lw	a5,4(s0)
   12aa2:	03800713          	li	a4,56
   12aa6:	10e78963          	beq	a5,a4,12bb8 <emdnorm+0x194>
   12aaa:	0cf74963          	blt	a4,a5,12b7c <emdnorm+0x158>
   12aae:	4761                	li	a4,24
   12ab0:	12e78963          	beq	a5,a4,12be2 <emdnorm+0x1be>
   12ab4:	03500713          	li	a4,53
   12ab8:	10e78a63          	beq	a5,a4,12bcc <emdnorm+0x1a8>
   12abc:	4731                	li	a4,12
   12abe:	c418                	sw	a4,8(s0)
   12ac0:	80010737          	lui	a4,0x80010
   12ac4:	177d                	addi	a4,a4,-1
   12ac6:	c858                	sw	a4,20(s0)
   12ac8:	4705                	li	a4,1
   12aca:	00e41c23          	sh	a4,24(s0)
   12ace:	472d                	li	a4,11
   12ad0:	c458                	sw	a4,12(s0)
   12ad2:	4458                	lw	a4,12(s0)
   12ad4:	01845683          	lhu	a3,24(s0)
   12ad8:	0721                	addi	a4,a4,8
   12ada:	0706                	slli	a4,a4,0x1
   12adc:	9722                	add	a4,a4,s0
   12ade:	00d71523          	sh	a3,10(a4) # 8001000a <__BSS_END__+0x7fff13a6>
   12ae2:	c01c                	sw	a5,0(s0)
   12ae4:	01204e63          	bgtz	s2,12b00 <emdnorm+0xdc>
   12ae8:	4058                	lw	a4,4(s0)
   12aea:	09000793          	li	a5,144
   12aee:	00f70963          	beq	a4,a5,12b00 <emdnorm+0xdc>
   12af2:	0184d783          	lhu	a5,24(s1)
   12af6:	8526                	mv	a0,s1
   12af8:	8b85                	andi	a5,a5,1
   12afa:	00f9e9b3          	or	s3,s3,a5
   12afe:	38cd                	jal	123f0 <eshdn1>
   12b00:	4414                	lw	a3,8(s0)
   12b02:	01445603          	lhu	a2,20(s0)
   12b06:	404c                	lw	a1,4(s0)
   12b08:	00169713          	slli	a4,a3,0x1
   12b0c:	9726                	add	a4,a4,s1
   12b0e:	00075783          	lhu	a5,0(a4)
   12b12:	8ff1                	and	a5,a5,a2
   12b14:	08f00613          	li	a2,143
   12b18:	00b64763          	blt	a2,a1,12b26 <emdnorm+0x102>
   12b1c:	0685                	addi	a3,a3,1
   12b1e:	863a                	mv	a2,a4
   12b20:	45b1                	li	a1,12
   12b22:	0cd5d263          	bge	a1,a3,12be6 <emdnorm+0x1c2>
   12b26:	01445683          	lhu	a3,20(s0)
   12b2a:	00075603          	lhu	a2,0(a4)
   12b2e:	fff6c693          	not	a3,a3
   12b32:	8ef1                	and	a3,a3,a2
   12b34:	00d71023          	sh	a3,0(a4)
   12b38:	01645703          	lhu	a4,22(s0)
   12b3c:	00f776b3          	and	a3,a4,a5
   12b40:	cedd                	beqz	a3,12bfe <emdnorm+0x1da>
   12b42:	00f71d63          	bne	a4,a5,12b5c <emdnorm+0x138>
   12b46:	0a099a63          	bnez	s3,12bfa <emdnorm+0x1d6>
   12b4a:	445c                	lw	a5,12(s0)
   12b4c:	01845703          	lhu	a4,24(s0)
   12b50:	0786                	slli	a5,a5,0x1
   12b52:	97a6                	add	a5,a5,s1
   12b54:	0007d783          	lhu	a5,0(a5)
   12b58:	8ff9                	and	a5,a5,a4
   12b5a:	c3d5                	beqz	a5,12bfe <emdnorm+0x1da>
   12b5c:	85a6                	mv	a1,s1
   12b5e:	01a40513          	addi	a0,s0,26
   12b62:	3251                	jal	124e6 <eaddm>
   12b64:	a869                	j	12bfe <emdnorm+0x1da>
   12b66:	00248793          	addi	a5,s1,2
   12b6a:	04e9                	addi	s1,s1,26
   12b6c:	0789                	addi	a5,a5,2
   12b6e:	fe079f23          	sh	zero,-2(a5)
   12b72:	fe979de3          	bne	a5,s1,12b6c <emdnorm+0x148>
   12b76:	bdc5                	j	12a66 <emdnorm+0x42>
   12b78:	4985                	li	s3,1
   12b7a:	bf11                	j	12a8e <emdnorm+0x6a>
   12b7c:	04000713          	li	a4,64
   12b80:	02e78163          	beq	a5,a4,12ba2 <emdnorm+0x17e>
   12b84:	07100713          	li	a4,113
   12b88:	f2e79ae3          	bne	a5,a4,12abc <emdnorm+0x98>
   12b8c:	40008737          	lui	a4,0x40008
   12b90:	177d                	addi	a4,a4,-1
   12b92:	46a9                	li	a3,10
   12b94:	c858                	sw	a4,20(s0)
   12b96:	c414                	sw	a3,8(s0)
   12b98:	7761                	lui	a4,0xffff8
   12b9a:	00e41c23          	sh	a4,24(s0)
   12b9e:	c454                	sw	a3,12(s0)
   12ba0:	bf0d                	j	12ad2 <emdnorm+0xae>
   12ba2:	471d                	li	a4,7
   12ba4:	c418                	sw	a4,8(s0)
   12ba6:	80010737          	lui	a4,0x80010
   12baa:	177d                	addi	a4,a4,-1
   12bac:	c858                	sw	a4,20(s0)
   12bae:	4705                	li	a4,1
   12bb0:	00e41c23          	sh	a4,24(s0)
   12bb4:	4719                	li	a4,6
   12bb6:	bf29                	j	12ad0 <emdnorm+0xac>
   12bb8:	4699                	li	a3,6
   12bba:	00800737          	lui	a4,0x800
   12bbe:	0ff70713          	addi	a4,a4,255 # 8000ff <__BSS_END__+0x7e149b>
   12bc2:	c858                	sw	a4,20(s0)
   12bc4:	c414                	sw	a3,8(s0)
   12bc6:	10000713          	li	a4,256
   12bca:	bfc1                	j	12b9a <emdnorm+0x176>
   12bcc:	04000737          	lui	a4,0x4000
   12bd0:	7ff70713          	addi	a4,a4,2047 # 40007ff <__BSS_END__+0x3fe1b9b>
   12bd4:	4699                	li	a3,6
   12bd6:	c858                	sw	a4,20(s0)
   12bd8:	6705                	lui	a4,0x1
   12bda:	c414                	sw	a3,8(s0)
   12bdc:	80070713          	addi	a4,a4,-2048 # 800 <__stack_chk_init-0xf874>
   12be0:	bf6d                	j	12b9a <emdnorm+0x176>
   12be2:	4691                	li	a3,4
   12be4:	bfd9                	j	12bba <emdnorm+0x196>
   12be6:	00265503          	lhu	a0,2(a2)
   12bea:	c119                	beqz	a0,12bf0 <emdnorm+0x1cc>
   12bec:	0017e793          	ori	a5,a5,1
   12bf0:	00061123          	sh	zero,2(a2)
   12bf4:	0685                	addi	a3,a3,1
   12bf6:	0609                	addi	a2,a2,2
   12bf8:	b72d                	j	12b22 <emdnorm+0xfe>
   12bfa:	f60a01e3          	beqz	s4,12b5c <emdnorm+0x138>
   12bfe:	01204963          	bgtz	s2,12c10 <emdnorm+0x1ec>
   12c02:	4058                	lw	a4,4(s0)
   12c04:	09000793          	li	a5,144
   12c08:	00f70463          	beq	a4,a5,12c10 <emdnorm+0x1ec>
   12c0c:	8526                	mv	a0,s1
   12c0e:	3821                	jal	12426 <eshup1>
   12c10:	0044d783          	lhu	a5,4(s1)
   12c14:	c789                	beqz	a5,12c1e <emdnorm+0x1fa>
   12c16:	8526                	mv	a0,s1
   12c18:	fd8ff0ef          	jal	ra,123f0 <eshdn1>
   12c1c:	0905                	addi	s2,s2,1
   12c1e:	67a1                	lui	a5,0x8
   12c20:	00049c23          	sh	zero,24(s1)
   12c24:	17f9                	addi	a5,a5,-2
   12c26:	0327d063          	bge	a5,s2,12c46 <emdnorm+0x222>
   12c2a:	77e1                	lui	a5,0xffff8
   12c2c:	fff7c793          	not	a5,a5
   12c30:	00f49123          	sh	a5,2(s1)
   12c34:	00448793          	addi	a5,s1,4
   12c38:	04e1                	addi	s1,s1,24
   12c3a:	00079023          	sh	zero,0(a5) # ffff8000 <__BSS_END__+0xfffd939c>
   12c3e:	0789                	addi	a5,a5,2
   12c40:	fef49de3          	bne	s1,a5,12c3a <emdnorm+0x216>
   12c44:	b50d                	j	12a66 <emdnorm+0x42>
   12c46:	00095563          	bgez	s2,12c50 <emdnorm+0x22c>
   12c4a:	00049123          	sh	zero,2(s1)
   12c4e:	bd21                	j	12a66 <emdnorm+0x42>
   12c50:	01249123          	sh	s2,2(s1)
   12c54:	bd09                	j	12a66 <emdnorm+0x42>
   12c56:	e20a9ee3          	bnez	s5,12a92 <emdnorm+0x6e>
   12c5a:	00049c23          	sh	zero,24(s1)
   12c5e:	b7f1                	j	12c2a <emdnorm+0x206>

00012c60 <eiremain>:
   12c60:	1101                	addi	sp,sp,-32
   12c62:	c452                	sw	s4,8(sp)
   12c64:	00255a03          	lhu	s4,2(a0)
   12c68:	cc22                	sw	s0,24(sp)
   12c6a:	842e                	mv	s0,a1
   12c6c:	ce06                	sw	ra,28(sp)
   12c6e:	ca26                	sw	s1,20(sp)
   12c70:	c84a                	sw	s2,16(sp)
   12c72:	c256                	sw	s5,4(sp)
   12c74:	c05a                	sw	s6,0(sp)
   12c76:	8932                	mv	s2,a2
   12c78:	03460b13          	addi	s6,a2,52
   12c7c:	c64e                	sw	s3,12(sp)
   12c7e:	8aaa                	mv	s5,a0
   12c80:	36e5                	jal	12868 <enormlz>
   12c82:	00245483          	lhu	s1,2(s0)
   12c86:	40aa0a33          	sub	s4,s4,a0
   12c8a:	8522                	mv	a0,s0
   12c8c:	3ef1                	jal	12868 <enormlz>
   12c8e:	8c89                	sub	s1,s1,a0
   12c90:	855a                	mv	a0,s6
   12c92:	f08ff0ef          	jal	ra,1239a <ecleaz>
   12c96:	0344d263          	bge	s1,s4,12cba <eiremain+0x5a>
   12c9a:	8522                	mv	a0,s0
   12c9c:	4462                	lw	s0,24(sp)
   12c9e:	40f2                	lw	ra,28(sp)
   12ca0:	49b2                	lw	s3,12(sp)
   12ca2:	4a22                	lw	s4,8(sp)
   12ca4:	4a92                	lw	s5,4(sp)
   12ca6:	4b02                	lw	s6,0(sp)
   12ca8:	87ca                	mv	a5,s2
   12caa:	86a6                	mv	a3,s1
   12cac:	4942                	lw	s2,16(sp)
   12cae:	44d2                	lw	s1,20(sp)
   12cb0:	4701                	li	a4,0
   12cb2:	4601                	li	a2,0
   12cb4:	4581                	li	a1,0
   12cb6:	6105                	addi	sp,sp,32
   12cb8:	b3b5                	j	12a24 <emdnorm>
   12cba:	85a2                	mv	a1,s0
   12cbc:	8556                	mv	a0,s5
   12cbe:	f08ff0ef          	jal	ra,123c6 <ecmpm>
   12cc2:	4981                	li	s3,0
   12cc4:	00a04663          	bgtz	a0,12cd0 <eiremain+0x70>
   12cc8:	85a2                	mv	a1,s0
   12cca:	8556                	mv	a0,s5
   12ccc:	3089                	jal	1250e <esubm>
   12cce:	4985                	li	s3,1
   12cd0:	855a                	mv	a0,s6
   12cd2:	f54ff0ef          	jal	ra,12426 <eshup1>
   12cd6:	04c95783          	lhu	a5,76(s2)
   12cda:	8522                	mv	a0,s0
   12cdc:	14fd                	addi	s1,s1,-1
   12cde:	00f9e9b3          	or	s3,s3,a5
   12ce2:	05391623          	sh	s3,76(s2)
   12ce6:	f40ff0ef          	jal	ra,12426 <eshup1>
   12cea:	b775                	j	12c96 <eiremain+0x36>

00012cec <emul>:
   12cec:	7175                	addi	sp,sp,-144
   12cee:	dcd2                	sw	s4,120(sp)
   12cf0:	1cc1a783          	lw	a5,460(gp) # 1ec04 <__stack_chk_guard>
   12cf4:	c522                	sw	s0,136(sp)
   12cf6:	c326                	sw	s1,132(sp)
   12cf8:	c14a                	sw	s2,128(sp)
   12cfa:	dece                	sw	s3,124(sp)
   12cfc:	c706                	sw	ra,140(sp)
   12cfe:	dad6                	sw	s5,116(sp)
   12d00:	d8da                	sw	s6,112(sp)
   12d02:	d6de                	sw	s7,108(sp)
   12d04:	d4e2                	sw	s8,104(sp)
   12d06:	d2e6                	sw	s9,100(sp)
   12d08:	d0ea                	sw	s10,96(sp)
   12d0a:	84aa                	mv	s1,a0
   12d0c:	842e                	mv	s0,a1
   12d0e:	8932                	mv	s2,a2
   12d10:	89b6                	mv	s3,a3
   12d12:	cebe                	sw	a5,92(sp)
   12d14:	3845                	jal	125c4 <eisnan>
   12d16:	cd01                	beqz	a0,12d2e <emul+0x42>
   12d18:	85ca                	mv	a1,s2
   12d1a:	8526                	mv	a0,s1
   12d1c:	e68ff0ef          	jal	ra,12384 <emov>
   12d20:	4776                	lw	a4,92(sp)
   12d22:	1cc1a783          	lw	a5,460(gp) # 1ec04 <__stack_chk_guard>
   12d26:	16f70663          	beq	a4,a5,12e92 <emul+0x1a6>
   12d2a:	eb8fd0ef          	jal	ra,103e2 <__stack_chk_fail>
   12d2e:	8522                	mv	a0,s0
   12d30:	3851                	jal	125c4 <eisnan>
   12d32:	c501                	beqz	a0,12d3a <emul+0x4e>
   12d34:	85ca                	mv	a1,s2
   12d36:	8522                	mv	a0,s0
   12d38:	b7d5                	j	12d1c <emul+0x30>
   12d3a:	8526                	mv	a0,s1
   12d3c:	3c29                	jal	12756 <eisinf>
   12d3e:	ed0d                	bnez	a0,12d78 <emul+0x8c>
   12d40:	8522                	mv	a0,s0
   12d42:	3c11                	jal	12756 <eisinf>
   12d44:	c519                	beqz	a0,12d52 <emul+0x66>
   12d46:	65f1                	lui	a1,0x1c
   12d48:	4b458593          	addi	a1,a1,1204 # 1c4b4 <ezero>
   12d4c:	8526                	mv	a0,s1
   12d4e:	3a89                	jal	126a0 <ecmp>
   12d50:	c915                	beqz	a0,12d84 <emul+0x98>
   12d52:	8526                	mv	a0,s1
   12d54:	3409                	jal	12756 <eisinf>
   12d56:	e501                	bnez	a0,12d5e <emul+0x72>
   12d58:	8522                	mv	a0,s0
   12d5a:	3af5                	jal	12756 <eisinf>
   12d5c:	c915                	beqz	a0,12d90 <emul+0xa4>
   12d5e:	8526                	mv	a0,s1
   12d60:	3069                	jal	125ea <eisneg>
   12d62:	84aa                	mv	s1,a0
   12d64:	8522                	mv	a0,s0
   12d66:	3051                	jal	125ea <eisneg>
   12d68:	02a48163          	beq	s1,a0,12d8a <emul+0x9e>
   12d6c:	77e1                	lui	a5,0xffff8
   12d6e:	00f91923          	sh	a5,18(s2)
   12d72:	854a                	mv	a0,s2
   12d74:	3411                	jal	12778 <einfin.isra.2>
   12d76:	b76d                	j	12d20 <emul+0x34>
   12d78:	65f1                	lui	a1,0x1c
   12d7a:	4b458593          	addi	a1,a1,1204 # 1c4b4 <ezero>
   12d7e:	8522                	mv	a0,s0
   12d80:	3205                	jal	126a0 <ecmp>
   12d82:	fd5d                	bnez	a0,12d40 <emul+0x54>
   12d84:	854a                	mv	a0,s2
   12d86:	36bd                	jal	128f4 <enan.constprop.12>
   12d88:	bf61                	j	12d20 <emul+0x34>
   12d8a:	00091923          	sh	zero,18(s2)
   12d8e:	b7d5                	j	12d72 <emul+0x86>
   12d90:	8526                	mv	a0,s1
   12d92:	002c                	addi	a1,sp,8
   12d94:	3895                	jal	12608 <emovi>
   12d96:	8522                	mv	a0,s0
   12d98:	104c                	addi	a1,sp,36
   12d9a:	30bd                	jal	12608 <emovi>
   12d9c:	00a15403          	lhu	s0,10(sp)
   12da0:	02615483          	lhu	s1,38(sp)
   12da4:	ec01                	bnez	s0,12dbc <emul+0xd0>
   12da6:	4781                	li	a5,0
   12da8:	4759                	li	a4,22
   12daa:	0034                	addi	a3,sp,8
   12dac:	96be                	add	a3,a3,a5
   12dae:	0026d683          	lhu	a3,2(a3)
   12db2:	c2e9                	beqz	a3,12e74 <emul+0x188>
   12db4:	0028                	addi	a0,sp,8
   12db6:	3c4d                	jal	12868 <enormlz>
   12db8:	40a00433          	neg	s0,a0
   12dbc:	02615783          	lhu	a5,38(sp)
   12dc0:	8ca6                	mv	s9,s1
   12dc2:	eb99                	bnez	a5,12dd8 <emul+0xec>
   12dc4:	4759                	li	a4,22
   12dc6:	1054                	addi	a3,sp,36
   12dc8:	96be                	add	a3,a3,a5
   12dca:	0026d683          	lhu	a3,2(a3)
   12dce:	cad5                	beqz	a3,12e82 <emul+0x196>
   12dd0:	1048                	addi	a0,sp,36
   12dd2:	3c59                	jal	12868 <enormlz>
   12dd4:	40a48cb3          	sub	s9,s1,a0
   12dd8:	02415783          	lhu	a5,36(sp)
   12ddc:	03498c13          	addi	s8,s3,52
   12de0:	03898493          	addi	s1,s3,56
   12de4:	02f99a23          	sh	a5,52(s3)
   12de8:	02615783          	lhu	a5,38(sp)
   12dec:	8ae2                	mv	s5,s8
   12dee:	02f99b23          	sh	a5,54(s3)
   12df2:	04e98793          	addi	a5,s3,78
   12df6:	00049023          	sh	zero,0(s1)
   12dfa:	0489                	addi	s1,s1,2
   12dfc:	fe979de3          	bne	a5,s1,12df6 <emul+0x10a>
   12e00:	4b01                	li	s6,0
   12e02:	4b81                	li	s7,0
   12e04:	5d31                	li	s10,-20
   12e06:	003c                	addi	a5,sp,8
   12e08:	97da                	add	a5,a5,s6
   12e0a:	0187d503          	lhu	a0,24(a5) # ffff8018 <__BSS_END__+0xfffd93b4>
   12e0e:	c909                	beqz	a0,12e20 <emul+0x134>
   12e10:	104c                	addi	a1,sp,36
   12e12:	0090                	addi	a2,sp,64
   12e14:	f22ff0ef          	jal	ra,12536 <m16m>
   12e18:	85e2                	mv	a1,s8
   12e1a:	0088                	addi	a0,sp,64
   12e1c:	ecaff0ef          	jal	ra,124e6 <eaddm>
   12e20:	04c9d783          	lhu	a5,76(s3)
   12e24:	8562                	mv	a0,s8
   12e26:	1b79                	addi	s6,s6,-2
   12e28:	00fbebb3          	or	s7,s7,a5
   12e2c:	e98ff0ef          	jal	ra,124c4 <eshdn6>
   12e30:	fdab1be3          	bne	s6,s10,12e06 <emul+0x11a>
   12e34:	105c                	addi	a5,sp,36
   12e36:	000ad703          	lhu	a4,0(s5)
   12e3a:	0a89                	addi	s5,s5,2
   12e3c:	0789                	addi	a5,a5,2
   12e3e:	fee79f23          	sh	a4,-2(a5)
   12e42:	fe9a9ae3          	bne	s5,s1,12e36 <emul+0x14a>
   12e46:	76f1                	lui	a3,0xffffc
   12e48:	9466                	add	s0,s0,s9
   12e4a:	0689                	addi	a3,a3,2
   12e4c:	87ce                	mv	a5,s3
   12e4e:	04000713          	li	a4,64
   12e52:	96a2                	add	a3,a3,s0
   12e54:	4601                	li	a2,0
   12e56:	85de                	mv	a1,s7
   12e58:	1048                	addi	a0,sp,36
   12e5a:	36e9                	jal	12a24 <emdnorm>
   12e5c:	00815703          	lhu	a4,8(sp)
   12e60:	02415783          	lhu	a5,36(sp)
   12e64:	02f71363          	bne	a4,a5,12e8a <emul+0x19e>
   12e68:	02011223          	sh	zero,36(sp)
   12e6c:	85ca                	mv	a1,s2
   12e6e:	1048                	addi	a0,sp,36
   12e70:	3455                	jal	12914 <emovo.isra.6>
   12e72:	b57d                	j	12d20 <emul+0x34>
   12e74:	0789                	addi	a5,a5,2
   12e76:	f2e79ae3          	bne	a5,a4,12daa <emul+0xbe>
   12e7a:	854a                	mv	a0,s2
   12e7c:	cf8ff0ef          	jal	ra,12374 <eclear>
   12e80:	b545                	j	12d20 <emul+0x34>
   12e82:	0789                	addi	a5,a5,2
   12e84:	f4e791e3          	bne	a5,a4,12dc6 <emul+0xda>
   12e88:	bfcd                	j	12e7a <emul+0x18e>
   12e8a:	57fd                	li	a5,-1
   12e8c:	02f11223          	sh	a5,36(sp)
   12e90:	bff1                	j	12e6c <emul+0x180>
   12e92:	40ba                	lw	ra,140(sp)
   12e94:	442a                	lw	s0,136(sp)
   12e96:	449a                	lw	s1,132(sp)
   12e98:	490a                	lw	s2,128(sp)
   12e9a:	59f6                	lw	s3,124(sp)
   12e9c:	5a66                	lw	s4,120(sp)
   12e9e:	5ad6                	lw	s5,116(sp)
   12ea0:	5b46                	lw	s6,112(sp)
   12ea2:	5bb6                	lw	s7,108(sp)
   12ea4:	5c26                	lw	s8,104(sp)
   12ea6:	5c96                	lw	s9,100(sp)
   12ea8:	5d06                	lw	s10,96(sp)
   12eaa:	6149                	addi	sp,sp,144
   12eac:	8082                	ret

00012eae <ediv>:
   12eae:	7135                	addi	sp,sp,-160
   12eb0:	dede                	sw	s7,124(sp)
   12eb2:	1cc1a783          	lw	a5,460(gp) # 1ec04 <__stack_chk_guard>
   12eb6:	cd22                	sw	s0,152(sp)
   12eb8:	cb26                	sw	s1,148(sp)
   12eba:	c94a                	sw	s2,144(sp)
   12ebc:	c356                	sw	s5,132(sp)
   12ebe:	cf06                	sw	ra,156(sp)
   12ec0:	c74e                	sw	s3,140(sp)
   12ec2:	c552                	sw	s4,136(sp)
   12ec4:	c15a                	sw	s6,128(sp)
   12ec6:	dce2                	sw	s8,120(sp)
   12ec8:	dae6                	sw	s9,116(sp)
   12eca:	d8ea                	sw	s10,112(sp)
   12ecc:	d6ee                	sw	s11,108(sp)
   12ece:	84aa                	mv	s1,a0
   12ed0:	842e                	mv	s0,a1
   12ed2:	8932                	mv	s2,a2
   12ed4:	8ab6                	mv	s5,a3
   12ed6:	cebe                	sw	a5,92(sp)
   12ed8:	eecff0ef          	jal	ra,125c4 <eisnan>
   12edc:	cd01                	beqz	a0,12ef4 <ediv+0x46>
   12ede:	85ca                	mv	a1,s2
   12ee0:	8526                	mv	a0,s1
   12ee2:	ca2ff0ef          	jal	ra,12384 <emov>
   12ee6:	4776                	lw	a4,92(sp)
   12ee8:	1cc1a783          	lw	a5,460(gp) # 1ec04 <__stack_chk_guard>
   12eec:	1ef70c63          	beq	a4,a5,130e4 <ediv+0x236>
   12ef0:	cf2fd0ef          	jal	ra,103e2 <__stack_chk_fail>
   12ef4:	8522                	mv	a0,s0
   12ef6:	eceff0ef          	jal	ra,125c4 <eisnan>
   12efa:	c501                	beqz	a0,12f02 <ediv+0x54>
   12efc:	85ca                	mv	a1,s2
   12efe:	8522                	mv	a0,s0
   12f00:	b7cd                	j	12ee2 <ediv+0x34>
   12f02:	69f1                	lui	s3,0x1c
   12f04:	4b498593          	addi	a1,s3,1204 # 1c4b4 <ezero>
   12f08:	8526                	mv	a0,s1
   12f0a:	f96ff0ef          	jal	ra,126a0 <ecmp>
   12f0e:	16050063          	beqz	a0,1306e <ediv+0x1c0>
   12f12:	8526                	mv	a0,s1
   12f14:	3089                	jal	12756 <eisinf>
   12f16:	89aa                	mv	s3,a0
   12f18:	8522                	mv	a0,s0
   12f1a:	3835                	jal	12756 <eisinf>
   12f1c:	16099363          	bnez	s3,13082 <ediv+0x1d4>
   12f20:	16051663          	bnez	a0,1308c <ediv+0x1de>
   12f24:	8526                	mv	a0,s1
   12f26:	002c                	addi	a1,sp,8
   12f28:	ee0ff0ef          	jal	ra,12608 <emovi>
   12f2c:	8522                	mv	a0,s0
   12f2e:	104c                	addi	a1,sp,36
   12f30:	ed8ff0ef          	jal	ra,12608 <emovi>
   12f34:	02615483          	lhu	s1,38(sp)
   12f38:	00a15403          	lhu	s0,10(sp)
   12f3c:	ec89                	bnez	s1,12f56 <ediv+0xa8>
   12f3e:	4781                	li	a5,0
   12f40:	4759                	li	a4,22
   12f42:	1054                	addi	a3,sp,36
   12f44:	96be                	add	a3,a3,a5
   12f46:	0026d683          	lhu	a3,2(a3) # ffffc002 <__BSS_END__+0xfffdd39e>
   12f4a:	16068163          	beqz	a3,130ac <ediv+0x1fe>
   12f4e:	1048                	addi	a0,sp,36
   12f50:	3a21                	jal	12868 <enormlz>
   12f52:	40a004b3          	neg	s1,a0
   12f56:	00a15783          	lhu	a5,10(sp)
   12f5a:	8c22                	mv	s8,s0
   12f5c:	ef81                	bnez	a5,12f74 <ediv+0xc6>
   12f5e:	4759                	li	a4,22
   12f60:	0034                	addi	a3,sp,8
   12f62:	96be                	add	a3,a3,a5
   12f64:	0026d683          	lhu	a3,2(a3)
   12f68:	14068663          	beqz	a3,130b4 <ediv+0x206>
   12f6c:	0028                	addi	a0,sp,8
   12f6e:	38ed                	jal	12868 <enormlz>
   12f70:	40a40c33          	sub	s8,s0,a0
   12f74:	02415783          	lhu	a5,36(sp)
   12f78:	02615703          	lhu	a4,38(sp)
   12f7c:	034a8993          	addi	s3,s5,52
   12f80:	02fa9a23          	sh	a5,52(s5)
   12f84:	038a8793          	addi	a5,s5,56
   12f88:	02ea9b23          	sh	a4,54(s5)
   12f8c:	8a3e                	mv	s4,a5
   12f8e:	04ea8713          	addi	a4,s5,78
   12f92:	0789                	addi	a5,a5,2
   12f94:	fe079f23          	sh	zero,-2(a5)
   12f98:	fee79de3          	bne	a5,a4,12f92 <ediv+0xe4>
   12f9c:	1048                	addi	a0,sp,36
   12f9e:	c52ff0ef          	jal	ra,123f0 <eshdn1>
   12fa2:	00e15c83          	lhu	s9,14(sp)
   12fa6:	6b41                	lui	s6,0x10
   12fa8:	1b7d                	addi	s6,s6,-1
   12faa:	036c8db3          	mul	s11,s9,s6
   12fae:	01a98d13          	addi	s10,s3,26
   12fb2:	02815783          	lhu	a5,40(sp)
   12fb6:	02a15403          	lhu	s0,42(sp)
   12fba:	07c2                	slli	a5,a5,0x10
   12fbc:	97a2                	add	a5,a5,s0
   12fbe:	845a                	mv	s0,s6
   12fc0:	00fde663          	bltu	s11,a5,12fcc <ediv+0x11e>
   12fc4:	0397d433          	divu	s0,a5,s9
   12fc8:	0442                	slli	s0,s0,0x10
   12fca:	8041                	srli	s0,s0,0x10
   12fcc:	002c                	addi	a1,sp,8
   12fce:	8522                	mv	a0,s0
   12fd0:	0090                	addi	a2,sp,64
   12fd2:	d64ff0ef          	jal	ra,12536 <m16m>
   12fd6:	104c                	addi	a1,sp,36
   12fd8:	0088                	addi	a0,sp,64
   12fda:	becff0ef          	jal	ra,123c6 <ecmpm>
   12fde:	00a05f63          	blez	a0,12ffc <ediv+0x14e>
   12fe2:	008c                	addi	a1,sp,64
   12fe4:	0028                	addi	a0,sp,8
   12fe6:	d28ff0ef          	jal	ra,1250e <esubm>
   12fea:	104c                	addi	a1,sp,36
   12fec:	0088                	addi	a0,sp,64
   12fee:	bd8ff0ef          	jal	ra,123c6 <ecmpm>
   12ff2:	0ca04d63          	bgtz	a0,130cc <ediv+0x21e>
   12ff6:	147d                	addi	s0,s0,-1
   12ff8:	0442                	slli	s0,s0,0x10
   12ffa:	8041                	srli	s0,s0,0x10
   12ffc:	104c                	addi	a1,sp,36
   12ffe:	0088                	addi	a0,sp,64
   13000:	d0eff0ef          	jal	ra,1250e <esubm>
   13004:	1048                	addi	a0,sp,36
   13006:	008a1023          	sh	s0,0(s4)
   1300a:	0a09                	addi	s4,s4,2
   1300c:	c9cff0ef          	jal	ra,124a8 <eshup6>
   13010:	fbaa11e3          	bne	s4,s10,12fb2 <ediv+0x104>
   13014:	4781                	li	a5,0
   13016:	4581                	li	a1,0
   13018:	4759                	li	a4,22
   1301a:	1054                	addi	a3,sp,36
   1301c:	96be                	add	a3,a3,a5
   1301e:	0046d683          	lhu	a3,4(a3)
   13022:	0789                	addi	a5,a5,2
   13024:	8dd5                	or	a1,a1,a3
   13026:	fee79ae3          	bne	a5,a4,1301a <ediv+0x16c>
   1302a:	00b035b3          	snez	a1,a1
   1302e:	105c                	addi	a5,sp,36
   13030:	0009d703          	lhu	a4,0(s3)
   13034:	0989                	addi	s3,s3,2
   13036:	0789                	addi	a5,a5,2
   13038:	fee79f23          	sh	a4,-2(a5)
   1303c:	ff3a1ae3          	bne	s4,s3,13030 <ediv+0x182>
   13040:	6691                	lui	a3,0x4
   13042:	418484b3          	sub	s1,s1,s8
   13046:	16fd                	addi	a3,a3,-1
   13048:	87d6                	mv	a5,s5
   1304a:	04000713          	li	a4,64
   1304e:	96a6                	add	a3,a3,s1
   13050:	4601                	li	a2,0
   13052:	1048                	addi	a0,sp,36
   13054:	3ac1                	jal	12a24 <emdnorm>
   13056:	00815703          	lhu	a4,8(sp)
   1305a:	02415783          	lhu	a5,36(sp)
   1305e:	06f71f63          	bne	a4,a5,130dc <ediv+0x22e>
   13062:	02011223          	sh	zero,36(sp)
   13066:	85ca                	mv	a1,s2
   13068:	1048                	addi	a0,sp,36
   1306a:	306d                	jal	12914 <emovo.isra.6>
   1306c:	bdad                	j	12ee6 <ediv+0x38>
   1306e:	4b498593          	addi	a1,s3,1204
   13072:	8522                	mv	a0,s0
   13074:	e2cff0ef          	jal	ra,126a0 <ecmp>
   13078:	e8051de3          	bnez	a0,12f12 <ediv+0x64>
   1307c:	854a                	mv	a0,s2
   1307e:	389d                	jal	128f4 <enan.constprop.12>
   13080:	b59d                	j	12ee6 <ediv+0x38>
   13082:	fd6d                	bnez	a0,1307c <ediv+0x1ce>
   13084:	854a                	mv	a0,s2
   13086:	aeeff0ef          	jal	ra,12374 <eclear>
   1308a:	bdb1                	j	12ee6 <ediv+0x38>
   1308c:	8526                	mv	a0,s1
   1308e:	d5cff0ef          	jal	ra,125ea <eisneg>
   13092:	84aa                	mv	s1,a0
   13094:	8522                	mv	a0,s0
   13096:	d54ff0ef          	jal	ra,125ea <eisneg>
   1309a:	02a48663          	beq	s1,a0,130c6 <ediv+0x218>
   1309e:	77e1                	lui	a5,0xffff8
   130a0:	00f91923          	sh	a5,18(s2)
   130a4:	854a                	mv	a0,s2
   130a6:	ed2ff0ef          	jal	ra,12778 <einfin.isra.2>
   130aa:	bd35                	j	12ee6 <ediv+0x38>
   130ac:	0789                	addi	a5,a5,2
   130ae:	e8e79ae3          	bne	a5,a4,12f42 <ediv+0x94>
   130b2:	bfc9                	j	13084 <ediv+0x1d6>
   130b4:	0789                	addi	a5,a5,2
   130b6:	eae795e3          	bne	a5,a4,12f60 <ediv+0xb2>
   130ba:	00815703          	lhu	a4,8(sp)
   130be:	02415783          	lhu	a5,36(sp)
   130c2:	fcf71ee3          	bne	a4,a5,1309e <ediv+0x1f0>
   130c6:	00091923          	sh	zero,18(s2)
   130ca:	bfe9                	j	130a4 <ediv+0x1f6>
   130cc:	1479                	addi	s0,s0,-2
   130ce:	0442                	slli	s0,s0,0x10
   130d0:	008c                	addi	a1,sp,64
   130d2:	0028                	addi	a0,sp,8
   130d4:	8041                	srli	s0,s0,0x10
   130d6:	c38ff0ef          	jal	ra,1250e <esubm>
   130da:	b70d                	j	12ffc <ediv+0x14e>
   130dc:	57fd                	li	a5,-1
   130de:	02f11223          	sh	a5,36(sp)
   130e2:	b751                	j	13066 <ediv+0x1b8>
   130e4:	40fa                	lw	ra,156(sp)
   130e6:	446a                	lw	s0,152(sp)
   130e8:	44da                	lw	s1,148(sp)
   130ea:	494a                	lw	s2,144(sp)
   130ec:	49ba                	lw	s3,140(sp)
   130ee:	4a2a                	lw	s4,136(sp)
   130f0:	4a9a                	lw	s5,132(sp)
   130f2:	4b0a                	lw	s6,128(sp)
   130f4:	5bf6                	lw	s7,124(sp)
   130f6:	5c66                	lw	s8,120(sp)
   130f8:	5cd6                	lw	s9,116(sp)
   130fa:	5d46                	lw	s10,112(sp)
   130fc:	5db6                	lw	s11,108(sp)
   130fe:	610d                	addi	sp,sp,160
   13100:	8082                	ret

00013102 <_ldtoa_r>:
   13102:	7101                	addi	sp,sp,-512
   13104:	1e812c23          	sw	s0,504(sp)
   13108:	843e                	mv	s0,a5
   1310a:	0005ae03          	lw	t3,0(a1)
   1310e:	0045a303          	lw	t1,4(a1)
   13112:	0085a883          	lw	a7,8(a1)
   13116:	1d912a23          	sw	s9,468(sp)
   1311a:	45cc                	lw	a1,12(a1)
   1311c:	8cba                	mv	s9,a4
   1311e:	1cc1a703          	lw	a4,460(gp) # 1ec04 <__stack_chk_guard>
   13122:	d62e                	sw	a1,44(sp)
   13124:	412c                	lw	a1,64(a0)
   13126:	1ae12e23          	sw	a4,444(sp)
   1312a:	577d                	li	a4,-1
   1312c:	12e12823          	sw	a4,304(sp)
   13130:	09000713          	li	a4,144
   13134:	1f412423          	sw	s4,488(sp)
   13138:	1f512223          	sw	s5,484(sp)
   1313c:	1d712e23          	sw	s7,476(sp)
   13140:	1e112e23          	sw	ra,508(sp)
   13144:	1e912a23          	sw	s1,500(sp)
   13148:	1f212823          	sw	s2,496(sp)
   1314c:	1f312623          	sw	s3,492(sp)
   13150:	1f612023          	sw	s6,480(sp)
   13154:	1d812c23          	sw	s8,472(sp)
   13158:	1da12823          	sw	s10,464(sp)
   1315c:	1db12623          	sw	s11,460(sp)
   13160:	c442                	sw	a6,8(sp)
   13162:	d072                	sw	t3,32(sp)
   13164:	d21a                	sw	t1,36(sp)
   13166:	d446                	sw	a7,40(sp)
   13168:	12e12a23          	sw	a4,308(sp)
   1316c:	cc3e                	sw	a5,24(sp)
   1316e:	8a2a                	mv	s4,a0
   13170:	8bb2                	mv	s7,a2
   13172:	8ab6                	mv	s5,a3
   13174:	c999                	beqz	a1,1318a <_ldtoa_r+0x88>
   13176:	417c                	lw	a5,68(a0)
   13178:	4705                	li	a4,1
   1317a:	00f71733          	sll	a4,a4,a5
   1317e:	c1dc                	sw	a5,4(a1)
   13180:	c598                	sw	a4,8(a1)
   13182:	1f2010ef          	jal	ra,14374 <_Bfree>
   13186:	040a2023          	sw	zero,64(s4)
   1318a:	1008                	addi	a0,sp,32
   1318c:	088c                	addi	a1,sp,80
   1318e:	fd4ff0ef          	jal	ra,12962 <e113toe.isra.8>
   13192:	0888                	addi	a0,sp,80
   13194:	c56ff0ef          	jal	ra,125ea <eisneg>
   13198:	c94d                	beqz	a0,1324a <_ldtoa_r+0x148>
   1319a:	4785                	li	a5,1
   1319c:	c01c                	sw	a5,0(s0)
   1319e:	478d                	li	a5,3
   131a0:	0afb8863          	beq	s7,a5,13250 <_ldtoa_r+0x14e>
   131a4:	4951                	li	s2,20
   131a6:	000b8a63          	beqz	s7,131ba <_ldtoa_r+0xb8>
   131aa:	fffa8913          	addi	s2,s5,-1
   131ae:	02a00793          	li	a5,42
   131b2:	0127d463          	bge	a5,s2,131ba <_ldtoa_r+0xb8>
   131b6:	02a00913          	li	s2,42
   131ba:	13412783          	lw	a5,308(sp)
   131be:	0888                	addi	a0,sp,80
   131c0:	c63e                	sw	a5,12(sp)
   131c2:	c02ff0ef          	jal	ra,125c4 <eisnan>
   131c6:	842a                	mv	s0,a0
   131c8:	c551                	beqz	a0,13254 <_ldtoa_r+0x152>
   131ca:	65f1                	lui	a1,0x1c
   131cc:	70858593          	addi	a1,a1,1800 # 1c708 <emtens+0x104>
   131d0:	0308                	addi	a0,sp,384
   131d2:	6409                	lui	s0,0x2
   131d4:	6f7010ef          	jal	ra,150ca <sprintf>
   131d8:	70f40413          	addi	s0,s0,1807 # 270f <__stack_chk_init-0xd965>
   131dc:	47b2                	lw	a5,12(sp)
   131de:	0888                	addi	a0,sp,80
   131e0:	14812023          	sw	s0,320(sp)
   131e4:	12f12a23          	sw	a5,308(sp)
   131e8:	d6eff0ef          	jal	ra,12756 <eisinf>
   131ec:	18010993          	addi	s3,sp,384
   131f0:	e511                	bnez	a0,131fc <_ldtoa_r+0xfa>
   131f2:	0888                	addi	a0,sp,80
   131f4:	bd0ff0ef          	jal	ra,125c4 <eisnan>
   131f8:	6e050063          	beqz	a0,138d8 <_ldtoa_r+0x7d6>
   131fc:	6789                	lui	a5,0x2
   131fe:	70f78793          	addi	a5,a5,1807 # 270f <__stack_chk_init-0xd965>
   13202:	00fca023          	sw	a5,0(s9)
   13206:	87ce                	mv	a5,s3
   13208:	02000613          	li	a2,32
   1320c:	02d00693          	li	a3,45
   13210:	0007c703          	lbu	a4,0(a5)
   13214:	70c70663          	beq	a4,a2,13920 <_ldtoa_r+0x81e>
   13218:	70d70463          	beq	a4,a3,13920 <_ldtoa_r+0x81e>
   1321c:	844e                	mv	s0,s3
   1321e:	0785                	addi	a5,a5,1
   13220:	fff7c703          	lbu	a4,-1(a5)
   13224:	00140693          	addi	a3,s0,1
   13228:	fee68fa3          	sb	a4,-1(a3) # 3fff <__stack_chk_init-0xc075>
   1322c:	6e071d63          	bnez	a4,13926 <_ldtoa_r+0x824>
   13230:	4709                	li	a4,2
   13232:	4785                	li	a5,1
   13234:	00eb8763          	beq	s7,a4,13242 <_ldtoa_r+0x140>
   13238:	14012783          	lw	a5,320(sp)
   1323c:	0127d363          	bge	a5,s2,13242 <_ldtoa_r+0x140>
   13240:	87ca                	mv	a5,s2
   13242:	03000693          	li	a3,48
   13246:	6ec0006f          	j	13932 <_ldtoa_r+0x830>
   1324a:	00042023          	sw	zero,0(s0)
   1324e:	bf81                	j	1319e <_ldtoa_r+0x9c>
   13250:	8956                	mv	s2,s5
   13252:	bfb1                	j	131ae <_ldtoa_r+0xac>
   13254:	09000793          	li	a5,144
   13258:	10ec                	addi	a1,sp,108
   1325a:	0888                	addi	a0,sp,80
   1325c:	12f12a23          	sw	a5,308(sp)
   13260:	924ff0ef          	jal	ra,12384 <emov>
   13264:	07e15783          	lhu	a5,126(sp)
   13268:	c002                	sw	zero,0(sp)
   1326a:	01079713          	slli	a4,a5,0x10
   1326e:	8741                	srai	a4,a4,0x10
   13270:	00075a63          	bgez	a4,13284 <_ldtoa_r+0x182>
   13274:	6721                	lui	a4,0x8
   13276:	177d                	addi	a4,a4,-1
   13278:	8ff9                	and	a5,a5,a4
   1327a:	06f11f23          	sh	a5,126(sp)
   1327e:	67c1                	lui	a5,0x10
   13280:	17fd                	addi	a5,a5,-1
   13282:	c03e                	sw	a5,0(sp)
   13284:	6b71                	lui	s6,0x1c
   13286:	4b4b0513          	addi	a0,s6,1204 # 1c4b4 <ezero>
   1328a:	012c                	addi	a1,sp,136
   1328c:	0551                	addi	a0,a0,20
   1328e:	8f6ff0ef          	jal	ra,12384 <emov>
   13292:	07e15703          	lhu	a4,126(sp)
   13296:	64f1                	lui	s1,0x1c
   13298:	4b4b0993          	addi	s3,s6,1204
   1329c:	4c848493          	addi	s1,s1,1224 # 1c4c8 <eone>
   132a0:	70071c63          	bnez	a4,139b8 <_ldtoa_r+0x8b6>
   132a4:	10f8                	addi	a4,sp,108
   132a6:	4781                	li	a5,0
   132a8:	46a5                	li	a3,9
   132aa:	00075603          	lhu	a2,0(a4) # 8000 <__stack_chk_init-0x8074>
   132ae:	e269                	bnez	a2,13370 <_ldtoa_r+0x26e>
   132b0:	0785                	addi	a5,a5,1
   132b2:	0709                	addi	a4,a4,2
   132b4:	fed79be3          	bne	a5,a3,132aa <_ldtoa_r+0x1a8>
   132b8:	018c                	addi	a1,sp,192
   132ba:	0128                	addi	a0,sp,136
   132bc:	b4cff0ef          	jal	ra,12608 <emovi>
   132c0:	012c                	addi	a1,sp,136
   132c2:	0188                	addi	a0,sp,192
   132c4:	8e6ff0ef          	jal	ra,123aa <emovz>
   132c8:	018c                	addi	a1,sp,192
   132ca:	10e8                	addi	a0,sp,108
   132cc:	b3cff0ef          	jal	ra,12608 <emovi>
   132d0:	10ec                	addi	a1,sp,108
   132d2:	0188                	addi	a0,sp,192
   132d4:	8d6ff0ef          	jal	ra,123aa <emovz>
   132d8:	1a10                	addi	a2,sp,304
   132da:	10ec                	addi	a1,sp,108
   132dc:	0128                	addi	a0,sp,136
   132de:	3249                	jal	12c60 <eiremain>
   132e0:	17c15483          	lhu	s1,380(sp)
   132e4:	e881                	bnez	s1,132f4 <_ldtoa_r+0x1f2>
   132e6:	4b4b0593          	addi	a1,s6,1204
   132ea:	10e8                	addi	a0,sp,108
   132ec:	bb4ff0ef          	jal	ra,126a0 <ecmp>
   132f0:	4a051863          	bnez	a0,137a0 <_ldtoa_r+0x69e>
   132f4:	4782                	lw	a5,0(sp)
   132f6:	4c078f63          	beqz	a5,137d4 <_ldtoa_r+0x6d2>
   132fa:	02d00793          	li	a5,45
   132fe:	18f10023          	sb	a5,384(sp)
   13302:	478d                	li	a5,3
   13304:	89ca                	mv	s3,s2
   13306:	00fb9863          	bne	s7,a5,13316 <_ldtoa_r+0x214>
   1330a:	008909b3          	add	s3,s2,s0
   1330e:	02a00793          	li	a5,42
   13312:	6b37cf63          	blt	a5,s3,139d0 <_ldtoa_r+0x8ce>
   13316:	47a9                	li	a5,10
   13318:	4cf49163          	bne	s1,a5,137da <_ldtoa_r+0x6d8>
   1331c:	03100793          	li	a5,49
   13320:	18f100a3          	sb	a5,385(sp)
   13324:	02e00793          	li	a5,46
   13328:	18f10123          	sb	a5,386(sp)
   1332c:	18310c13          	addi	s8,sp,387
   13330:	01305963          	blez	s3,13342 <_ldtoa_r+0x240>
   13334:	03000793          	li	a5,48
   13338:	18f101a3          	sb	a5,387(sp)
   1333c:	19fd                	addi	s3,s3,-1
   1333e:	18410c13          	addi	s8,sp,388
   13342:	0405                	addi	s0,s0,1
   13344:	4a09d563          	bgez	s3,137ee <_ldtoa_r+0x6ec>
   13348:	65f1                	lui	a1,0x1c
   1334a:	8622                	mv	a2,s0
   1334c:	72c58593          	addi	a1,a1,1836 # 1c72c <emtens+0x128>
   13350:	8562                	mv	a0,s8
   13352:	579010ef          	jal	ra,150ca <sprintf>
   13356:	b559                	j	131dc <_ldtoa_r+0xda>
   13358:	65f1                	lui	a1,0x1c
   1335a:	71c58593          	addi	a1,a1,1820 # 1c71c <emtens+0x118>
   1335e:	bd8d                	j	131d0 <_ldtoa_r+0xce>
   13360:	07c11783          	lh	a5,124(sp)
   13364:	0007c663          	bltz	a5,13370 <_ldtoa_r+0x26e>
   13368:	65f1                	lui	a1,0x1c
   1336a:	72858593          	addi	a1,a1,1832 # 1c728 <emtens+0x124>
   1336e:	b58d                	j	131d0 <_ldtoa_r+0xce>
   13370:	10ec                	addi	a1,sp,108
   13372:	8526                	mv	a0,s1
   13374:	b2cff0ef          	jal	ra,126a0 <ecmp>
   13378:	d121                	beqz	a0,132b8 <_ldtoa_r+0x1b6>
   1337a:	30055863          	bgez	a0,1368a <_ldtoa_r+0x588>
   1337e:	114c                	addi	a1,sp,164
   13380:	10e8                	addi	a0,sp,108
   13382:	802ff0ef          	jal	ra,12384 <emov>
   13386:	6791                	lui	a5,0x4
   13388:	08e78793          	addi	a5,a5,142 # 408e <__stack_chk_init-0xbfe6>
   1338c:	0af11b23          	sh	a5,182(sp)
   13390:	47c1                	li	a5,16
   13392:	c23e                	sw	a5,4(sp)
   13394:	67a1                	lui	a5,0x8
   13396:	17fd                	addi	a5,a5,-1
   13398:	c83e                	sw	a5,16(sp)
   1339a:	77f1                	lui	a5,0xffffc
   1339c:	0789                	addi	a5,a5,2
   1339e:	4d01                	li	s10,0
   133a0:	ca3e                	sw	a5,20(sp)
   133a2:	67f1                	lui	a5,0x1c
   133a4:	57c78793          	addi	a5,a5,1404 # 1c57c <etens+0xa0>
   133a8:	01a78533          	add	a0,a5,s10
   133ac:	1a14                	addi	a3,sp,304
   133ae:	0130                	addi	a2,sp,136
   133b0:	114c                	addi	a1,sp,164
   133b2:	3cf5                	jal	12eae <ediv>
   133b4:	186c                	addi	a1,sp,60
   133b6:	0128                	addi	a0,sp,136
   133b8:	fcdfe0ef          	jal	ra,12384 <emov>
   133bc:	47c2                	lw	a5,16(sp)
   133be:	04e15c03          	lhu	s8,78(sp)
   133c2:	00fc7733          	and	a4,s8,a5
   133c6:	47d2                	lw	a5,20(sp)
   133c8:	973e                	add	a4,a4,a5
   133ca:	02e04e63          	bgtz	a4,13406 <_ldtoa_r+0x304>
   133ce:	0188                	addi	a0,sp,192
   133d0:	fa5fe0ef          	jal	ra,12374 <eclear>
   133d4:	0c42                	slli	s8,s8,0x10
   133d6:	410c5c13          	srai	s8,s8,0x10
   133da:	0a0c5c63          	bgez	s8,13492 <_ldtoa_r+0x390>
   133de:	4781                	li	a5,0
   133e0:	1878                	addi	a4,sp,60
   133e2:	973e                	add	a4,a4,a5
   133e4:	00075683          	lhu	a3,0(a4)
   133e8:	0198                	addi	a4,sp,192
   133ea:	973e                	add	a4,a4,a5
   133ec:	00075703          	lhu	a4,0(a4)
   133f0:	28e68863          	beq	a3,a4,13680 <_ldtoa_r+0x57e>
   133f4:	8526                	mv	a0,s1
   133f6:	9ceff0ef          	jal	ra,125c4 <eisnan>
   133fa:	cd31                	beqz	a0,13456 <_ldtoa_r+0x354>
   133fc:	018c                	addi	a1,sp,192
   133fe:	8526                	mv	a0,s1
   13400:	f85fe0ef          	jal	ra,12384 <emov>
   13404:	a079                	j	13492 <_ldtoa_r+0x390>
   13406:	09000793          	li	a5,144
   1340a:	40e78db3          	sub	s11,a5,a4
   1340e:	018c                	addi	a1,sp,192
   13410:	1868                	addi	a0,sp,60
   13412:	f73fe0ef          	jal	ra,12384 <emov>
   13416:	07b05e63          	blez	s11,13492 <_ldtoa_r+0x390>
   1341a:	0194                	addi	a3,sp,192
   1341c:	87ee                	mv	a5,s11
   1341e:	463d                	li	a2,15
   13420:	02f64663          	blt	a2,a5,1344c <_ldtoa_r+0x34a>
   13424:	004dd793          	srli	a5,s11,0x4
   13428:	5641                	li	a2,-16
   1342a:	00179693          	slli	a3,a5,0x1
   1342e:	02c787b3          	mul	a5,a5,a2
   13432:	0198                	addi	a4,sp,192
   13434:	96ba                	add	a3,a3,a4
   13436:	0006d703          	lhu	a4,0(a3)
   1343a:	97ee                	add	a5,a5,s11
   1343c:	0786                	slli	a5,a5,0x1
   1343e:	97ce                	add	a5,a5,s3
   13440:	12c7d783          	lhu	a5,300(a5)
   13444:	8ff9                	and	a5,a5,a4
   13446:	00f69023          	sh	a5,0(a3)
   1344a:	b769                	j	133d4 <_ldtoa_r+0x2d2>
   1344c:	00069023          	sh	zero,0(a3)
   13450:	17c1                	addi	a5,a5,-16
   13452:	0689                	addi	a3,a3,2
   13454:	b7f1                	j	13420 <_ldtoa_r+0x31e>
   13456:	0188                	addi	a0,sp,192
   13458:	96cff0ef          	jal	ra,125c4 <eisnan>
   1345c:	c501                	beqz	a0,13464 <_ldtoa_r+0x362>
   1345e:	018c                	addi	a1,sp,192
   13460:	852e                	mv	a0,a1
   13462:	bf79                	j	13400 <_ldtoa_r+0x2fe>
   13464:	8526                	mv	a0,s1
   13466:	af0ff0ef          	jal	ra,12756 <eisinf>
   1346a:	8daa                	mv	s11,a0
   1346c:	0188                	addi	a0,sp,192
   1346e:	ae8ff0ef          	jal	ra,12756 <eisinf>
   13472:	8c2a                	mv	s8,a0
   13474:	0e0d8763          	beqz	s11,13562 <_ldtoa_r+0x460>
   13478:	c571                	beqz	a0,13544 <_ldtoa_r+0x442>
   1347a:	8526                	mv	a0,s1
   1347c:	96eff0ef          	jal	ra,125ea <eisneg>
   13480:	8c2a                	mv	s8,a0
   13482:	0188                	addi	a0,sp,192
   13484:	966ff0ef          	jal	ra,125ea <eisneg>
   13488:	0aac1e63          	bne	s8,a0,13544 <_ldtoa_r+0x442>
   1348c:	0188                	addi	a0,sp,192
   1348e:	c66ff0ef          	jal	ra,128f4 <enan.constprop.12>
   13492:	4781                	li	a5,0
   13494:	0138                	addi	a4,sp,136
   13496:	973e                	add	a4,a4,a5
   13498:	00075683          	lhu	a3,0(a4)
   1349c:	0198                	addi	a4,sp,192
   1349e:	973e                	add	a4,a4,a5
   134a0:	00075703          	lhu	a4,0(a4)
   134a4:	00e69c63          	bne	a3,a4,134bc <_ldtoa_r+0x3ba>
   134a8:	0789                	addi	a5,a5,2
   134aa:	4749                	li	a4,18
   134ac:	fee794e3          	bne	a5,a4,13494 <_ldtoa_r+0x392>
   134b0:	114c                	addi	a1,sp,164
   134b2:	0128                	addi	a0,sp,136
   134b4:	ed1fe0ef          	jal	ra,12384 <emov>
   134b8:	4792                	lw	a5,4(sp)
   134ba:	943e                	add	s0,s0,a5
   134bc:	4792                	lw	a5,4(sp)
   134be:	0d51                	addi	s10,s10,20
   134c0:	8385                	srli	a5,a5,0x1
   134c2:	c23e                	sw	a5,4(sp)
   134c4:	06400793          	li	a5,100
   134c8:	ecfd1de3          	bne	s10,a5,133a2 <_ldtoa_r+0x2a0>
   134cc:	0b615783          	lhu	a5,182(sp)
   134d0:	07e15703          	lhu	a4,126(sp)
   134d4:	10ec                	addi	a1,sp,108
   134d6:	1148                	addi	a0,sp,164
   134d8:	97ba                	add	a5,a5,a4
   134da:	7771                	lui	a4,0xffffc
   134dc:	f7270713          	addi	a4,a4,-142 # ffffbf72 <__BSS_END__+0xfffdd30e>
   134e0:	97ba                	add	a5,a5,a4
   134e2:	0af11b23          	sh	a5,182(sp)
   134e6:	e9ffe0ef          	jal	ra,12384 <emov>
   134ea:	8526                	mv	a0,s1
   134ec:	012c                	addi	a1,sp,136
   134ee:	e97fe0ef          	jal	ra,12384 <emov>
   134f2:	4481                	li	s1,0
   134f4:	6d05                	lui	s10,0x1
   134f6:	11898993          	addi	s3,s3,280
   134fa:	10400d93          	li	s11,260
   134fe:	67f1                	lui	a5,0x1c
   13500:	4dc78793          	addi	a5,a5,1244 # 1c4dc <etens>
   13504:	114c                	addi	a1,sp,164
   13506:	854e                	mv	a0,s3
   13508:	00978c33          	add	s8,a5,s1
   1350c:	994ff0ef          	jal	ra,126a0 <ecmp>
   13510:	daa044e3          	bgtz	a0,132b8 <_ldtoa_r+0x1b6>
   13514:	114c                	addi	a1,sp,164
   13516:	8562                	mv	a0,s8
   13518:	988ff0ef          	jal	ra,126a0 <ecmp>
   1351c:	00a04e63          	bgtz	a0,13538 <_ldtoa_r+0x436>
   13520:	1150                	addi	a2,sp,164
   13522:	85b2                	mv	a1,a2
   13524:	1a14                	addi	a3,sp,304
   13526:	8562                	mv	a0,s8
   13528:	3259                	jal	12eae <ediv>
   1352a:	0130                	addi	a2,sp,136
   1352c:	1a14                	addi	a3,sp,304
   1352e:	85b2                	mv	a1,a2
   13530:	8562                	mv	a0,s8
   13532:	fbaff0ef          	jal	ra,12cec <emul>
   13536:	946a                	add	s0,s0,s10
   13538:	04d1                	addi	s1,s1,20
   1353a:	001d5d13          	srli	s10,s10,0x1
   1353e:	fdb490e3          	bne	s1,s11,134fe <_ldtoa_r+0x3fc>
   13542:	bb9d                	j	132b8 <_ldtoa_r+0x1b6>
   13544:	8526                	mv	a0,s1
   13546:	018c                	addi	a1,sp,192
   13548:	e3dfe0ef          	jal	ra,12384 <emov>
   1354c:	0188                	addi	a0,sp,192
   1354e:	876ff0ef          	jal	ra,125c4 <eisnan>
   13552:	f121                	bnez	a0,13492 <_ldtoa_r+0x390>
   13554:	0d215783          	lhu	a5,210(sp)
   13558:	7761                	lui	a4,0xffff8
   1355a:	8fb9                	xor	a5,a5,a4
   1355c:	0cf11923          	sh	a5,210(sp)
   13560:	bf0d                	j	13492 <_ldtoa_r+0x390>
   13562:	ee051ee3          	bnez	a0,1345e <_ldtoa_r+0x35c>
   13566:	09ec                	addi	a1,sp,220
   13568:	8526                	mv	a0,s1
   1356a:	89eff0ef          	jal	ra,12608 <emovi>
   1356e:	19ac                	addi	a1,sp,248
   13570:	0188                	addi	a0,sp,192
   13572:	896ff0ef          	jal	ra,12608 <emovi>
   13576:	0dc15703          	lhu	a4,220(sp)
   1357a:	0fa15d83          	lhu	s11,250(sp)
   1357e:	0de15783          	lhu	a5,222(sp)
   13582:	fff74713          	not	a4,a4
   13586:	0742                	slli	a4,a4,0x10
   13588:	8341                	srli	a4,a4,0x10
   1358a:	0ce11e23          	sh	a4,220(sp)
   1358e:	41b787b3          	sub	a5,a5,s11
   13592:	06f05363          	blez	a5,135f8 <_ldtoa_r+0x4f6>
   13596:	0a4c                	addi	a1,sp,276
   13598:	19a8                	addi	a0,sp,248
   1359a:	ce3e                	sw	a5,28(sp)
   1359c:	e0ffe0ef          	jal	ra,123aa <emovz>
   135a0:	19ac                	addi	a1,sp,248
   135a2:	09e8                	addi	a0,sp,220
   135a4:	e07fe0ef          	jal	ra,123aa <emovz>
   135a8:	09ec                	addi	a1,sp,220
   135aa:	0a48                	addi	a0,sp,276
   135ac:	dfffe0ef          	jal	ra,123aa <emovz>
   135b0:	47f2                	lw	a5,28(sp)
   135b2:	0fa15d83          	lhu	s11,250(sp)
   135b6:	40f007b3          	neg	a5,a5
   135ba:	f6f00713          	li	a4,-145
   135be:	06e7c763          	blt	a5,a4,1362c <_ldtoa_r+0x52a>
   135c2:	85be                	mv	a1,a5
   135c4:	09e8                	addi	a0,sp,220
   135c6:	9d0ff0ef          	jal	ra,12796 <eshift.part.3>
   135ca:	882a                	mv	a6,a0
   135cc:	0dc15703          	lhu	a4,220(sp)
   135d0:	0f815783          	lhu	a5,248(sp)
   135d4:	ce42                	sw	a6,28(sp)
   135d6:	19ac                	addi	a1,sp,248
   135d8:	09e8                	addi	a0,sp,220
   135da:	08f71f63          	bne	a4,a5,13678 <_ldtoa_r+0x576>
   135de:	f09fe0ef          	jal	ra,124e6 <eaddm>
   135e2:	4872                	lw	a6,28(sp)
   135e4:	1a1c                	addi	a5,sp,304
   135e6:	04000713          	li	a4,64
   135ea:	86ee                	mv	a3,s11
   135ec:	8662                	mv	a2,s8
   135ee:	85c2                	mv	a1,a6
   135f0:	19a8                	addi	a0,sp,248
   135f2:	c32ff0ef          	jal	ra,12a24 <emdnorm>
   135f6:	a81d                	j	1362c <_ldtoa_r+0x52a>
   135f8:	f3e9                	bnez	a5,135ba <_ldtoa_r+0x4b8>
   135fa:	19ac                	addi	a1,sp,248
   135fc:	09e8                	addi	a0,sp,220
   135fe:	ce3a                	sw	a4,28(sp)
   13600:	dc7fe0ef          	jal	ra,123c6 <ecmpm>
   13604:	e929                	bnez	a0,13656 <_ldtoa_r+0x554>
   13606:	0f815783          	lhu	a5,248(sp)
   1360a:	4772                	lw	a4,28(sp)
   1360c:	00e78663          	beq	a5,a4,13618 <_ldtoa_r+0x516>
   13610:	0188                	addi	a0,sp,192
   13612:	d63fe0ef          	jal	ra,12374 <eclear>
   13616:	bdb5                	j	13492 <_ldtoa_r+0x390>
   13618:	000d9f63          	bnez	s11,13636 <_ldtoa_r+0x534>
   1361c:	0fe11703          	lh	a4,254(sp)
   13620:	4781                	li	a5,0
   13622:	00074b63          	bltz	a4,13638 <_ldtoa_r+0x536>
   13626:	19a8                	addi	a0,sp,248
   13628:	dfffe0ef          	jal	ra,12426 <eshup1>
   1362c:	018c                	addi	a1,sp,192
   1362e:	19a8                	addi	a0,sp,248
   13630:	ae4ff0ef          	jal	ra,12914 <emovo.isra.6>
   13634:	bdb9                	j	13492 <_ldtoa_r+0x390>
   13636:	4781                	li	a5,0
   13638:	4759                	li	a4,22
   1363a:	19b4                	addi	a3,sp,248
   1363c:	00f68633          	add	a2,a3,a5
   13640:	00265603          	lhu	a2,2(a2)
   13644:	c609                	beqz	a2,1364e <_ldtoa_r+0x54c>
   13646:	0d85                	addi	s11,s11,1
   13648:	0fb11d23          	sh	s11,250(sp)
   1364c:	b7c5                	j	1362c <_ldtoa_r+0x52a>
   1364e:	0789                	addi	a5,a5,2
   13650:	fee795e3          	bne	a5,a4,1363a <_ldtoa_r+0x538>
   13654:	bfd5                	j	13648 <_ldtoa_r+0x546>
   13656:	4801                	li	a6,0
   13658:	f6a05ae3          	blez	a0,135cc <_ldtoa_r+0x4ca>
   1365c:	0a4c                	addi	a1,sp,276
   1365e:	19a8                	addi	a0,sp,248
   13660:	d4bfe0ef          	jal	ra,123aa <emovz>
   13664:	19ac                	addi	a1,sp,248
   13666:	09e8                	addi	a0,sp,220
   13668:	d43fe0ef          	jal	ra,123aa <emovz>
   1366c:	09ec                	addi	a1,sp,220
   1366e:	0a48                	addi	a0,sp,276
   13670:	d3bfe0ef          	jal	ra,123aa <emovz>
   13674:	8862                	mv	a6,s8
   13676:	bf99                	j	135cc <_ldtoa_r+0x4ca>
   13678:	e97fe0ef          	jal	ra,1250e <esubm>
   1367c:	4c05                	li	s8,1
   1367e:	b795                	j	135e2 <_ldtoa_r+0x4e0>
   13680:	0789                	addi	a5,a5,2
   13682:	4749                	li	a4,18
   13684:	d4e79ee3          	bne	a5,a4,133e0 <_ldtoa_r+0x2de>
   13688:	b529                	j	13492 <_ldtoa_r+0x390>
   1368a:	07e15783          	lhu	a5,126(sp)
   1368e:	11898c13          	addi	s8,s3,280
   13692:	cfad                	beqz	a5,1370c <_ldtoa_r+0x60a>
   13694:	018c                	addi	a1,sp,192
   13696:	10e8                	addi	a0,sp,108
   13698:	6c11                	lui	s8,0x4
   1369a:	f6ffe0ef          	jal	ra,12608 <emovi>
   1369e:	1c79                	addi	s8,s8,-2
   136a0:	fd500d13          	li	s10,-43
   136a4:	0d815783          	lhu	a5,216(sp)
   136a8:	8b9d                	andi	a5,a5,7
   136aa:	e7a9                	bnez	a5,136f4 <_ldtoa_r+0x5f2>
   136ac:	114c                	addi	a1,sp,164
   136ae:	0188                	addi	a0,sp,192
   136b0:	cfbfe0ef          	jal	ra,123aa <emovz>
   136b4:	1148                	addi	a0,sp,164
   136b6:	d3bfe0ef          	jal	ra,123f0 <eshdn1>
   136ba:	1148                	addi	a0,sp,164
   136bc:	d35fe0ef          	jal	ra,123f0 <eshdn1>
   136c0:	114c                	addi	a1,sp,164
   136c2:	0188                	addi	a0,sp,192
   136c4:	e23fe0ef          	jal	ra,124e6 <eaddm>
   136c8:	0a615783          	lhu	a5,166(sp)
   136cc:	078d                	addi	a5,a5,3
   136ce:	0af11323          	sh	a5,166(sp)
   136d2:	0a815783          	lhu	a5,168(sp)
   136d6:	efd5                	bnez	a5,13792 <_ldtoa_r+0x690>
   136d8:	0bc15783          	lhu	a5,188(sp)
   136dc:	ef81                	bnez	a5,136f4 <_ldtoa_r+0x5f2>
   136de:	0a615783          	lhu	a5,166(sp)
   136e2:	00fc6963          	bltu	s8,a5,136f4 <_ldtoa_r+0x5f2>
   136e6:	018c                	addi	a1,sp,192
   136e8:	1148                	addi	a0,sp,164
   136ea:	147d                	addi	s0,s0,-1
   136ec:	cbffe0ef          	jal	ra,123aa <emovz>
   136f0:	fba41ae3          	bne	s0,s10,136a4 <_ldtoa_r+0x5a2>
   136f4:	10ec                	addi	a1,sp,108
   136f6:	0188                	addi	a0,sp,192
   136f8:	a1cff0ef          	jal	ra,12914 <emovo.isra.6>
   136fc:	a821                	j	13714 <_ldtoa_r+0x612>
   136fe:	10f0                	addi	a2,sp,108
   13700:	1a14                	addi	a3,sp,304
   13702:	85b2                	mv	a1,a2
   13704:	8562                	mv	a0,s8
   13706:	de6ff0ef          	jal	ra,12cec <emul>
   1370a:	147d                	addi	s0,s0,-1
   1370c:	07c11783          	lh	a5,124(sp)
   13710:	fe07d7e3          	bgez	a5,136fe <_ldtoa_r+0x5fc>
   13714:	018c                	addi	a1,sp,192
   13716:	10e8                	addi	a0,sp,108
   13718:	c6dfe0ef          	jal	ra,12384 <emov>
   1371c:	012c                	addi	a1,sp,136
   1371e:	8526                	mv	a0,s1
   13720:	c65fe0ef          	jal	ra,12384 <emov>
   13724:	15098793          	addi	a5,s3,336
   13728:	4d01                	li	s10,0
   1372a:	7c7d                	lui	s8,0xfffff
   1372c:	c23e                	sw	a5,4(sp)
   1372e:	4d89                	li	s11,2
   13730:	67f1                	lui	a5,0x1c
   13732:	4dc78793          	addi	a5,a5,1244 # 1c4dc <etens>
   13736:	01a789b3          	add	s3,a5,s10
   1373a:	4792                	lw	a5,4(sp)
   1373c:	018c                	addi	a1,sp,192
   1373e:	8526                	mv	a0,s1
   13740:	01a78733          	add	a4,a5,s10
   13744:	c83a                	sw	a4,16(sp)
   13746:	f5bfe0ef          	jal	ra,126a0 <ecmp>
   1374a:	4742                	lw	a4,16(sp)
   1374c:	02a05c63          	blez	a0,13784 <_ldtoa_r+0x682>
   13750:	018c                	addi	a1,sp,192
   13752:	853a                	mv	a0,a4
   13754:	f4dfe0ef          	jal	ra,126a0 <ecmp>
   13758:	00054f63          	bltz	a0,13776 <_ldtoa_r+0x674>
   1375c:	0190                	addi	a2,sp,192
   1375e:	85b2                	mv	a1,a2
   13760:	1a14                	addi	a3,sp,304
   13762:	854e                	mv	a0,s3
   13764:	d88ff0ef          	jal	ra,12cec <emul>
   13768:	0130                	addi	a2,sp,136
   1376a:	1a14                	addi	a3,sp,304
   1376c:	85b2                	mv	a1,a2
   1376e:	854e                	mv	a0,s3
   13770:	d7cff0ef          	jal	ra,12cec <emul>
   13774:	9462                	add	s0,s0,s8
   13776:	0d51                	addi	s10,s10,20
   13778:	10400793          	li	a5,260
   1377c:	03bc4c33          	div	s8,s8,s11
   13780:	fafd18e3          	bne	s10,a5,13730 <_ldtoa_r+0x62e>
   13784:	0130                	addi	a2,sp,136
   13786:	1a14                	addi	a3,sp,304
   13788:	85a6                	mv	a1,s1
   1378a:	8532                	mv	a0,a2
   1378c:	f22ff0ef          	jal	ra,12eae <ediv>
   13790:	b625                	j	132b8 <_ldtoa_r+0x1b6>
   13792:	1148                	addi	a0,sp,164
   13794:	c5dfe0ef          	jal	ra,123f0 <eshdn1>
   13798:	0a615783          	lhu	a5,166(sp)
   1379c:	0785                	addi	a5,a5,1
   1379e:	bf05                	j	136ce <_ldtoa_r+0x5cc>
   137a0:	10e8                	addi	a0,sp,108
   137a2:	c85fe0ef          	jal	ra,12426 <eshup1>
   137a6:	114c                	addi	a1,sp,164
   137a8:	10e8                	addi	a0,sp,108
   137aa:	c01fe0ef          	jal	ra,123aa <emovz>
   137ae:	1148                	addi	a0,sp,164
   137b0:	c77fe0ef          	jal	ra,12426 <eshup1>
   137b4:	1148                	addi	a0,sp,164
   137b6:	c71fe0ef          	jal	ra,12426 <eshup1>
   137ba:	10ec                	addi	a1,sp,108
   137bc:	1148                	addi	a0,sp,164
   137be:	d29fe0ef          	jal	ra,124e6 <eaddm>
   137c2:	1a10                	addi	a2,sp,304
   137c4:	10ec                	addi	a1,sp,108
   137c6:	0128                	addi	a0,sp,136
   137c8:	c98ff0ef          	jal	ra,12c60 <eiremain>
   137cc:	147d                	addi	s0,s0,-1
   137ce:	17c15483          	lhu	s1,380(sp)
   137d2:	be09                	j	132e4 <_ldtoa_r+0x1e2>
   137d4:	02000793          	li	a5,32
   137d8:	b61d                	j	132fe <_ldtoa_r+0x1fc>
   137da:	03048493          	addi	s1,s1,48
   137de:	02e00793          	li	a5,46
   137e2:	189100a3          	sb	s1,385(sp)
   137e6:	18f10123          	sb	a5,386(sp)
   137ea:	18310c13          	addi	s8,sp,387
   137ee:	84e2                	mv	s1,s8
   137f0:	418487b3          	sub	a5,s1,s8
   137f4:	04f9d063          	bge	s3,a5,13834 <_ldtoa_r+0x732>
   137f8:	17c15783          	lhu	a5,380(sp)
   137fc:	4711                	li	a4,4
   137fe:	fff48c13          	addi	s8,s1,-1
   13802:	b4f753e3          	bge	a4,a5,13348 <_ldtoa_r+0x246>
   13806:	4715                	li	a4,5
   13808:	06e78463          	beq	a5,a4,13870 <_ldtoa_r+0x76e>
   1380c:	87e2                	mv	a5,s8
   1380e:	02e00613          	li	a2,46
   13812:	03800593          	li	a1,56
   13816:	03000693          	li	a3,48
   1381a:	17fd                	addi	a5,a5,-1
   1381c:	0007c703          	lbu	a4,0(a5)
   13820:	07f77713          	andi	a4,a4,127
   13824:	0809d163          	bgez	s3,138a6 <_ldtoa_r+0x7a4>
   13828:	03100713          	li	a4,49
   1382c:	00e78023          	sb	a4,0(a5)
   13830:	0405                	addi	s0,s0,1
   13832:	be19                	j	13348 <_ldtoa_r+0x246>
   13834:	10e8                	addi	a0,sp,108
   13836:	bf1fe0ef          	jal	ra,12426 <eshup1>
   1383a:	114c                	addi	a1,sp,164
   1383c:	10e8                	addi	a0,sp,108
   1383e:	b6dfe0ef          	jal	ra,123aa <emovz>
   13842:	1148                	addi	a0,sp,164
   13844:	be3fe0ef          	jal	ra,12426 <eshup1>
   13848:	1148                	addi	a0,sp,164
   1384a:	bddfe0ef          	jal	ra,12426 <eshup1>
   1384e:	10ec                	addi	a1,sp,108
   13850:	1148                	addi	a0,sp,164
   13852:	c95fe0ef          	jal	ra,124e6 <eaddm>
   13856:	1a10                	addi	a2,sp,304
   13858:	10ec                	addi	a1,sp,108
   1385a:	0128                	addi	a0,sp,136
   1385c:	c04ff0ef          	jal	ra,12c60 <eiremain>
   13860:	17c14783          	lbu	a5,380(sp)
   13864:	0485                	addi	s1,s1,1
   13866:	03078793          	addi	a5,a5,48
   1386a:	fef48fa3          	sb	a5,-1(s1)
   1386e:	b749                	j	137f0 <_ldtoa_r+0x6ee>
   13870:	012c                	addi	a1,sp,136
   13872:	10e8                	addi	a0,sp,108
   13874:	8a0ff0ef          	jal	ra,12914 <emovo.isra.6>
   13878:	4b4b0593          	addi	a1,s6,1204
   1387c:	0128                	addi	a0,sp,136
   1387e:	e23fe0ef          	jal	ra,126a0 <ecmp>
   13882:	f549                	bnez	a0,1380c <_ldtoa_r+0x70a>
   13884:	ac09c2e3          	bltz	s3,13348 <_ldtoa_r+0x246>
   13888:	ffe4c783          	lbu	a5,-2(s1)
   1388c:	fd278793          	addi	a5,a5,-46
   13890:	0017b793          	seqz	a5,a5
   13894:	fff7c793          	not	a5,a5
   13898:	97e2                	add	a5,a5,s8
   1389a:	0007c783          	lbu	a5,0(a5)
   1389e:	8b85                	andi	a5,a5,1
   138a0:	aa0784e3          	beqz	a5,13348 <_ldtoa_r+0x246>
   138a4:	b7a5                	j	1380c <_ldtoa_r+0x70a>
   138a6:	02c71063          	bne	a4,a2,138c6 <_ldtoa_r+0x7c4>
   138aa:	fff7c703          	lbu	a4,-1(a5)
   138ae:	03800693          	li	a3,56
   138b2:	00e6e663          	bltu	a3,a4,138be <_ldtoa_r+0x7bc>
   138b6:	0705                	addi	a4,a4,1
   138b8:	fee78fa3          	sb	a4,-1(a5)
   138bc:	b471                	j	13348 <_ldtoa_r+0x246>
   138be:	0405                	addi	s0,s0,1
   138c0:	03100713          	li	a4,49
   138c4:	bfd5                	j	138b8 <_ldtoa_r+0x7b6>
   138c6:	00e5e663          	bltu	a1,a4,138d2 <_ldtoa_r+0x7d0>
   138ca:	0705                	addi	a4,a4,1
   138cc:	00e78023          	sb	a4,0(a5)
   138d0:	bca5                	j	13348 <_ldtoa_r+0x246>
   138d2:	00d78023          	sb	a3,0(a5)
   138d6:	b791                	j	1381a <_ldtoa_r+0x718>
   138d8:	0405                	addi	s0,s0,1
   138da:	008ca023          	sw	s0,0(s9)
   138de:	87ce                	mv	a5,s3
   138e0:	02e00693          	li	a3,46
   138e4:	0007c703          	lbu	a4,0(a5)
   138e8:	e701                	bnez	a4,138f0 <_ldtoa_r+0x7ee>
   138ea:	04500713          	li	a4,69
   138ee:	a839                	j	1390c <_ldtoa_r+0x80a>
   138f0:	00d70963          	beq	a4,a3,13902 <_ldtoa_r+0x800>
   138f4:	0785                	addi	a5,a5,1
   138f6:	b7fd                	j	138e4 <_ldtoa_r+0x7e2>
   138f8:	0017c703          	lbu	a4,1(a5)
   138fc:	0785                	addi	a5,a5,1
   138fe:	fee78fa3          	sb	a4,-1(a5)
   13902:	0007c703          	lbu	a4,0(a5)
   13906:	fb6d                	bnez	a4,138f8 <_ldtoa_r+0x7f6>
   13908:	b7cd                	j	138ea <_ldtoa_r+0x7e8>
   1390a:	17fd                	addi	a5,a5,-1
   1390c:	0007c683          	lbu	a3,0(a5)
   13910:	00e68463          	beq	a3,a4,13918 <_ldtoa_r+0x816>
   13914:	fef9ebe3          	bltu	s3,a5,1390a <_ldtoa_r+0x808>
   13918:	00078023          	sb	zero,0(a5)
   1391c:	8ebff06f          	j	13206 <_ldtoa_r+0x104>
   13920:	0785                	addi	a5,a5,1
   13922:	8efff06f          	j	13210 <_ldtoa_r+0x10e>
   13926:	8436                	mv	s0,a3
   13928:	8f7ff06f          	j	1321e <_ldtoa_r+0x11c>
   1392c:	147d                	addi	s0,s0,-1
   1392e:	00040023          	sb	zero,0(s0)
   13932:	fff44703          	lbu	a4,-1(s0)
   13936:	00d71663          	bne	a4,a3,13942 <_ldtoa_r+0x840>
   1393a:	41340733          	sub	a4,s0,s3
   1393e:	fee7c7e3          	blt	a5,a4,1392c <_ldtoa_r+0x82a>
   13942:	478d                	li	a5,3
   13944:	009a8713          	addi	a4,s5,9
   13948:	02fb9163          	bne	s7,a5,1396a <_ldtoa_r+0x868>
   1394c:	14012783          	lw	a5,320(sp)
   13950:	993e                	add	s2,s2,a5
   13952:	00095763          	bgez	s2,13960 <_ldtoa_r+0x85e>
   13956:	18010023          	sb	zero,384(sp)
   1395a:	000ca023          	sw	zero,0(s9)
   1395e:	844e                	mv	s0,s3
   13960:	000ca783          	lw	a5,0(s9)
   13964:	9abe                	add	s5,s5,a5
   13966:	003a8713          	addi	a4,s5,3
   1396a:	040a2223          	sw	zero,68(s4)
   1396e:	4791                	li	a5,4
   13970:	01478693          	addi	a3,a5,20
   13974:	044a2583          	lw	a1,68(s4)
   13978:	02d77b63          	bgeu	a4,a3,139ae <_ldtoa_r+0x8ac>
   1397c:	8552                	mv	a0,s4
   1397e:	191000ef          	jal	ra,1430e <_Balloc>
   13982:	04aa2023          	sw	a0,64(s4)
   13986:	85ce                	mv	a1,s3
   13988:	84aa                	mv	s1,a0
   1398a:	4e7010ef          	jal	ra,15670 <strcpy>
   1398e:	47a2                	lw	a5,8(sp)
   13990:	c789                	beqz	a5,1399a <_ldtoa_r+0x898>
   13992:	41340433          	sub	s0,s0,s3
   13996:	9426                	add	s0,s0,s1
   13998:	c380                	sw	s0,0(a5)
   1399a:	47e2                	lw	a5,24(sp)
   1399c:	1bc12703          	lw	a4,444(sp)
   139a0:	8526                	mv	a0,s1
   139a2:	1cc1a783          	lw	a5,460(gp) # 1ec04 <__stack_chk_guard>
   139a6:	04f70563          	beq	a4,a5,139f0 <_ldtoa_r+0x8ee>
   139aa:	a39fc0ef          	jal	ra,103e2 <__stack_chk_fail>
   139ae:	0585                	addi	a1,a1,1
   139b0:	04ba2223          	sw	a1,68(s4)
   139b4:	0786                	slli	a5,a5,0x1
   139b6:	bf6d                	j	13970 <_ldtoa_r+0x86e>
   139b8:	67a1                	lui	a5,0x8
   139ba:	17fd                	addi	a5,a5,-1
   139bc:	9af712e3          	bne	a4,a5,13360 <_ldtoa_r+0x25e>
   139c0:	4782                	lw	a5,0(sp)
   139c2:	98078be3          	beqz	a5,13358 <_ldtoa_r+0x256>
   139c6:	65f1                	lui	a1,0x1c
   139c8:	71058593          	addi	a1,a1,1808 # 1c710 <emtens+0x10c>
   139cc:	805ff06f          	j	131d0 <_ldtoa_r+0xce>
   139d0:	47a9                	li	a5,10
   139d2:	02a00993          	li	s3,42
   139d6:	e0f492e3          	bne	s1,a5,137da <_ldtoa_r+0x6d8>
   139da:	03100793          	li	a5,49
   139de:	18f100a3          	sb	a5,385(sp)
   139e2:	02e00793          	li	a5,46
   139e6:	18f10123          	sb	a5,386(sp)
   139ea:	02a00993          	li	s3,42
   139ee:	b299                	j	13334 <_ldtoa_r+0x232>
   139f0:	1fc12083          	lw	ra,508(sp)
   139f4:	1f812403          	lw	s0,504(sp)
   139f8:	1f412483          	lw	s1,500(sp)
   139fc:	1f012903          	lw	s2,496(sp)
   13a00:	1ec12983          	lw	s3,492(sp)
   13a04:	1e812a03          	lw	s4,488(sp)
   13a08:	1e412a83          	lw	s5,484(sp)
   13a0c:	1e012b03          	lw	s6,480(sp)
   13a10:	1dc12b83          	lw	s7,476(sp)
   13a14:	1d812c03          	lw	s8,472(sp)
   13a18:	1d412c83          	lw	s9,468(sp)
   13a1c:	1d012d03          	lw	s10,464(sp)
   13a20:	1cc12d83          	lw	s11,460(sp)
   13a24:	20010113          	addi	sp,sp,512
   13a28:	8082                	ret

00013a2a <_ldcheck>:
   13a2a:	7139                	addi	sp,sp,-64
   13a2c:	dc22                	sw	s0,56(sp)
   13a2e:	1cc1a783          	lw	a5,460(gp) # 1ec04 <__stack_chk_guard>
   13a32:	080c                	addi	a1,sp,16
   13a34:	de06                	sw	ra,60(sp)
   13a36:	d63e                	sw	a5,44(sp)
   13a38:	411c                	lw	a5,0(a0)
   13a3a:	c03e                	sw	a5,0(sp)
   13a3c:	415c                	lw	a5,4(a0)
   13a3e:	c23e                	sw	a5,4(sp)
   13a40:	451c                	lw	a5,8(a0)
   13a42:	c43e                	sw	a5,8(sp)
   13a44:	455c                	lw	a5,12(a0)
   13a46:	850a                	mv	a0,sp
   13a48:	c63e                	sw	a5,12(sp)
   13a4a:	f19fe0ef          	jal	ra,12962 <e113toe.isra.8>
   13a4e:	02215783          	lhu	a5,34(sp)
   13a52:	4501                	li	a0,0
   13a54:	fff7c793          	not	a5,a5
   13a58:	01179713          	slli	a4,a5,0x11
   13a5c:	e719                	bnez	a4,13a6a <_ldcheck+0x40>
   13a5e:	0808                	addi	a0,sp,16
   13a60:	b65fe0ef          	jal	ra,125c4 <eisnan>
   13a64:	00153513          	seqz	a0,a0
   13a68:	0505                	addi	a0,a0,1
   13a6a:	5732                	lw	a4,44(sp)
   13a6c:	1cc1a783          	lw	a5,460(gp) # 1ec04 <__stack_chk_guard>
   13a70:	00f70463          	beq	a4,a5,13a78 <_ldcheck+0x4e>
   13a74:	96ffc0ef          	jal	ra,103e2 <__stack_chk_fail>
   13a78:	50f2                	lw	ra,60(sp)
   13a7a:	5462                	lw	s0,56(sp)
   13a7c:	6121                	addi	sp,sp,64
   13a7e:	8082                	ret

00013a80 <__localeconv_l>:
   13a80:	0f050513          	addi	a0,a0,240
   13a84:	8082                	ret

00013a86 <_localeconv_r>:
   13a86:	1c01a783          	lw	a5,448(gp) # 1ebf8 <_impure_ptr>
   13a8a:	5bc8                	lw	a0,52(a5)
   13a8c:	e119                	bnez	a0,13a92 <_localeconv_r+0xc>
   13a8e:	c2818513          	addi	a0,gp,-984 # 1e660 <__global_locale>
   13a92:	0f050513          	addi	a0,a0,240
   13a96:	8082                	ret

00013a98 <localeconv>:
   13a98:	1c01a783          	lw	a5,448(gp) # 1ebf8 <_impure_ptr>
   13a9c:	5bc8                	lw	a0,52(a5)
   13a9e:	e119                	bnez	a0,13aa4 <localeconv+0xc>
   13aa0:	c2818513          	addi	a0,gp,-984 # 1e660 <__global_locale>
   13aa4:	0f050513          	addi	a0,a0,240
   13aa8:	8082                	ret

00013aaa <_setlocale_r>:
   13aaa:	1141                	addi	sp,sp,-16
   13aac:	c226                	sw	s1,4(sp)
   13aae:	c606                	sw	ra,12(sp)
   13ab0:	c422                	sw	s0,8(sp)
   13ab2:	64f1                	lui	s1,0x1c
   13ab4:	c61d                	beqz	a2,13ae2 <_setlocale_r+0x38>
   13ab6:	65f1                	lui	a1,0x1c
   13ab8:	73458593          	addi	a1,a1,1844 # 1c734 <emtens+0x130>
   13abc:	8532                	mv	a0,a2
   13abe:	8432                	mv	s0,a2
   13ac0:	72c010ef          	jal	ra,151ec <strcmp>
   13ac4:	cd19                	beqz	a0,13ae2 <_setlocale_r+0x38>
   13ac6:	73048593          	addi	a1,s1,1840 # 1c730 <emtens+0x12c>
   13aca:	8522                	mv	a0,s0
   13acc:	720010ef          	jal	ra,151ec <strcmp>
   13ad0:	c909                	beqz	a0,13ae2 <_setlocale_r+0x38>
   13ad2:	65f1                	lui	a1,0x1c
   13ad4:	2e858593          	addi	a1,a1,744 # 1c2e8 <push_pop_regs+0x70>
   13ad8:	8522                	mv	a0,s0
   13ada:	712010ef          	jal	ra,151ec <strcmp>
   13ade:	4781                	li	a5,0
   13ae0:	e119                	bnez	a0,13ae6 <_setlocale_r+0x3c>
   13ae2:	73048793          	addi	a5,s1,1840
   13ae6:	40b2                	lw	ra,12(sp)
   13ae8:	4422                	lw	s0,8(sp)
   13aea:	4492                	lw	s1,4(sp)
   13aec:	853e                	mv	a0,a5
   13aee:	0141                	addi	sp,sp,16
   13af0:	8082                	ret

00013af2 <__locale_mb_cur_max>:
   13af2:	1c01a783          	lw	a5,448(gp) # 1ebf8 <_impure_ptr>
   13af6:	5bdc                	lw	a5,52(a5)
   13af8:	e399                	bnez	a5,13afe <__locale_mb_cur_max+0xc>
   13afa:	c2818793          	addi	a5,gp,-984 # 1e660 <__global_locale>
   13afe:	1287c503          	lbu	a0,296(a5) # 8128 <__stack_chk_init-0x7f4c>
   13b02:	8082                	ret

00013b04 <__locale_ctype_ptr_l>:
   13b04:	0ec52503          	lw	a0,236(a0)
   13b08:	8082                	ret

00013b0a <__locale_ctype_ptr>:
   13b0a:	1c01a783          	lw	a5,448(gp) # 1ebf8 <_impure_ptr>
   13b0e:	5bdc                	lw	a5,52(a5)
   13b10:	e399                	bnez	a5,13b16 <__locale_ctype_ptr+0xc>
   13b12:	c2818793          	addi	a5,gp,-984 # 1e660 <__global_locale>
   13b16:	0ec7a503          	lw	a0,236(a5)
   13b1a:	8082                	ret

00013b1c <setlocale>:
   13b1c:	862e                	mv	a2,a1
   13b1e:	85aa                	mv	a1,a0
   13b20:	1c01a503          	lw	a0,448(gp) # 1ebf8 <_impure_ptr>
   13b24:	b759                	j	13aaa <_setlocale_r>

00013b26 <__swhatbuf_r>:
   13b26:	7119                	addi	sp,sp,-128
   13b28:	1cc1a703          	lw	a4,460(gp) # 1ec04 <__stack_chk_guard>
   13b2c:	d8ca                	sw	s2,112(sp)
   13b2e:	892e                	mv	s2,a1
   13b30:	00e59583          	lh	a1,14(a1)
   13b34:	dca2                	sw	s0,120(sp)
   13b36:	daa6                	sw	s1,116(sp)
   13b38:	de86                	sw	ra,124(sp)
   13b3a:	d6ba                	sw	a4,108(sp)
   13b3c:	84b2                	mv	s1,a2
   13b3e:	843e                	mv	s0,a5
   13b40:	0005dc63          	bgez	a1,13b58 <__swhatbuf_r+0x32>
   13b44:	00c95783          	lhu	a5,12(s2)
   13b48:	0006a023          	sw	zero,0(a3)
   13b4c:	0807f793          	andi	a5,a5,128
   13b50:	eb95                	bnez	a5,13b84 <__swhatbuf_r+0x5e>
   13b52:	40000793          	li	a5,1024
   13b56:	a80d                	j	13b88 <__swhatbuf_r+0x62>
   13b58:	0810                	addi	a2,sp,16
   13b5a:	c636                	sw	a3,12(sp)
   13b5c:	685030ef          	jal	ra,179e0 <_fstat_r>
   13b60:	46b2                	lw	a3,12(sp)
   13b62:	fe0541e3          	bltz	a0,13b44 <__swhatbuf_r+0x1e>
   13b66:	4752                	lw	a4,20(sp)
   13b68:	67bd                	lui	a5,0xf
   13b6a:	6505                	lui	a0,0x1
   13b6c:	8ff9                	and	a5,a5,a4
   13b6e:	7779                	lui	a4,0xffffe
   13b70:	97ba                	add	a5,a5,a4
   13b72:	0017b793          	seqz	a5,a5
   13b76:	c29c                	sw	a5,0(a3)
   13b78:	40000793          	li	a5,1024
   13b7c:	c09c                	sw	a5,0(s1)
   13b7e:	80050513          	addi	a0,a0,-2048 # 800 <__stack_chk_init-0xf874>
   13b82:	a029                	j	13b8c <__swhatbuf_r+0x66>
   13b84:	04000793          	li	a5,64
   13b88:	c09c                	sw	a5,0(s1)
   13b8a:	4501                	li	a0,0
   13b8c:	5736                	lw	a4,108(sp)
   13b8e:	1cc1a783          	lw	a5,460(gp) # 1ec04 <__stack_chk_guard>
   13b92:	00f70463          	beq	a4,a5,13b9a <__swhatbuf_r+0x74>
   13b96:	84dfc0ef          	jal	ra,103e2 <__stack_chk_fail>
   13b9a:	50f6                	lw	ra,124(sp)
   13b9c:	5466                	lw	s0,120(sp)
   13b9e:	54d6                	lw	s1,116(sp)
   13ba0:	5946                	lw	s2,112(sp)
   13ba2:	6109                	addi	sp,sp,128
   13ba4:	8082                	ret

00013ba6 <__smakebuf_r>:
   13ba6:	7179                	addi	sp,sp,-48
   13ba8:	d226                	sw	s1,36(sp)
   13baa:	1cc1a783          	lw	a5,460(gp) # 1ec04 <__stack_chk_guard>
   13bae:	d422                	sw	s0,40(sp)
   13bb0:	d606                	sw	ra,44(sp)
   13bb2:	c63e                	sw	a5,12(sp)
   13bb4:	00c5d783          	lhu	a5,12(a1)
   13bb8:	d04a                	sw	s2,32(sp)
   13bba:	ce4e                	sw	s3,28(sp)
   13bbc:	8b89                	andi	a5,a5,2
   13bbe:	842e                	mv	s0,a1
   13bc0:	cf91                	beqz	a5,13bdc <__smakebuf_r+0x36>
   13bc2:	04340793          	addi	a5,s0,67
   13bc6:	c01c                	sw	a5,0(s0)
   13bc8:	c81c                	sw	a5,16(s0)
   13bca:	4785                	li	a5,1
   13bcc:	c85c                	sw	a5,20(s0)
   13bce:	4732                	lw	a4,12(sp)
   13bd0:	1cc1a783          	lw	a5,460(gp) # 1ec04 <__stack_chk_guard>
   13bd4:	06f70d63          	beq	a4,a5,13c4e <__smakebuf_r+0xa8>
   13bd8:	80bfc0ef          	jal	ra,103e2 <__stack_chk_fail>
   13bdc:	0034                	addi	a3,sp,8
   13bde:	0050                	addi	a2,sp,4
   13be0:	89aa                	mv	s3,a0
   13be2:	3791                	jal	13b26 <__swhatbuf_r>
   13be4:	4592                	lw	a1,4(sp)
   13be6:	892a                	mv	s2,a0
   13be8:	854e                	mv	a0,s3
   13bea:	288d                	jal	13c5c <_malloc_r>
   13bec:	ed01                	bnez	a0,13c04 <__smakebuf_r+0x5e>
   13bee:	00c41783          	lh	a5,12(s0)
   13bf2:	2007f713          	andi	a4,a5,512
   13bf6:	ff61                	bnez	a4,13bce <__smakebuf_r+0x28>
   13bf8:	9bf1                	andi	a5,a5,-4
   13bfa:	0027e793          	ori	a5,a5,2
   13bfe:	00f41623          	sh	a5,12(s0)
   13c02:	b7c1                	j	13bc2 <__smakebuf_r+0x1c>
   13c04:	67c9                	lui	a5,0x12
   13c06:	ef078793          	addi	a5,a5,-272 # 11ef0 <_cleanup_r>
   13c0a:	02f9ae23          	sw	a5,60(s3)
   13c0e:	00c45783          	lhu	a5,12(s0)
   13c12:	c008                	sw	a0,0(s0)
   13c14:	c808                	sw	a0,16(s0)
   13c16:	0807e793          	ori	a5,a5,128
   13c1a:	00f41623          	sh	a5,12(s0)
   13c1e:	4792                	lw	a5,4(sp)
   13c20:	c85c                	sw	a5,20(s0)
   13c22:	47a2                	lw	a5,8(sp)
   13c24:	cf91                	beqz	a5,13c40 <__smakebuf_r+0x9a>
   13c26:	00e41583          	lh	a1,14(s0)
   13c2a:	854e                	mv	a0,s3
   13c2c:	0be040ef          	jal	ra,17cea <_isatty_r>
   13c30:	c901                	beqz	a0,13c40 <__smakebuf_r+0x9a>
   13c32:	00c45783          	lhu	a5,12(s0)
   13c36:	9bf1                	andi	a5,a5,-4
   13c38:	0017e793          	ori	a5,a5,1
   13c3c:	00f41623          	sh	a5,12(s0)
   13c40:	00c45783          	lhu	a5,12(s0)
   13c44:	00f96933          	or	s2,s2,a5
   13c48:	01241623          	sh	s2,12(s0)
   13c4c:	b749                	j	13bce <__smakebuf_r+0x28>
   13c4e:	50b2                	lw	ra,44(sp)
   13c50:	5422                	lw	s0,40(sp)
   13c52:	5492                	lw	s1,36(sp)
   13c54:	5902                	lw	s2,32(sp)
   13c56:	49f2                	lw	s3,28(sp)
   13c58:	6145                	addi	sp,sp,48
   13c5a:	8082                	ret

00013c5c <_malloc_r>:
   13c5c:	7179                	addi	sp,sp,-48
   13c5e:	d606                	sw	ra,44(sp)
   13c60:	d422                	sw	s0,40(sp)
   13c62:	d226                	sw	s1,36(sp)
   13c64:	d04a                	sw	s2,32(sp)
   13c66:	ce4e                	sw	s3,28(sp)
   13c68:	cc52                	sw	s4,24(sp)
   13c6a:	ca56                	sw	s5,20(sp)
   13c6c:	c85a                	sw	s6,16(sp)
   13c6e:	c65e                	sw	s7,12(sp)
   13c70:	c462                	sw	s8,8(sp)
   13c72:	00b58793          	addi	a5,a1,11
   13c76:	4759                	li	a4,22
   13c78:	02f77563          	bgeu	a4,a5,13ca2 <_malloc_r+0x46>
   13c7c:	ff87f493          	andi	s1,a5,-8
   13c80:	0204d263          	bgez	s1,13ca4 <_malloc_r+0x48>
   13c84:	47b1                	li	a5,12
   13c86:	c11c                	sw	a5,0(a0)
   13c88:	4501                	li	a0,0
   13c8a:	50b2                	lw	ra,44(sp)
   13c8c:	5422                	lw	s0,40(sp)
   13c8e:	5492                	lw	s1,36(sp)
   13c90:	5902                	lw	s2,32(sp)
   13c92:	49f2                	lw	s3,28(sp)
   13c94:	4a62                	lw	s4,24(sp)
   13c96:	4ad2                	lw	s5,20(sp)
   13c98:	4b42                	lw	s6,16(sp)
   13c9a:	4bb2                	lw	s7,12(sp)
   13c9c:	4c22                	lw	s8,8(sp)
   13c9e:	6145                	addi	sp,sp,48
   13ca0:	8082                	ret
   13ca2:	44c1                	li	s1,16
   13ca4:	feb4e0e3          	bltu	s1,a1,13c84 <_malloc_r+0x28>
   13ca8:	89aa                	mv	s3,a0
   13caa:	2585                	jal	1430a <__malloc_lock>
   13cac:	1f700793          	li	a5,503
   13cb0:	d9418913          	addi	s2,gp,-620 # 1e7cc <__malloc_av_>
   13cb4:	0297ec63          	bltu	a5,s1,13cec <_malloc_r+0x90>
   13cb8:	00848713          	addi	a4,s1,8
   13cbc:	974a                	add	a4,a4,s2
   13cbe:	4340                	lw	s0,4(a4)
   13cc0:	ff870693          	addi	a3,a4,-8 # ffffdff8 <__BSS_END__+0xfffdf394>
   13cc4:	0034d793          	srli	a5,s1,0x3
   13cc8:	00d41663          	bne	s0,a3,13cd4 <_malloc_r+0x78>
   13ccc:	4740                	lw	s0,12(a4)
   13cce:	0789                	addi	a5,a5,2
   13cd0:	04870c63          	beq	a4,s0,13d28 <_malloc_r+0xcc>
   13cd4:	405c                	lw	a5,4(s0)
   13cd6:	4458                	lw	a4,12(s0)
   13cd8:	4414                	lw	a3,8(s0)
   13cda:	9bf1                	andi	a5,a5,-4
   13cdc:	97a2                	add	a5,a5,s0
   13cde:	c6d8                	sw	a4,12(a3)
   13ce0:	c714                	sw	a3,8(a4)
   13ce2:	43d8                	lw	a4,4(a5)
   13ce4:	00176713          	ori	a4,a4,1
   13ce8:	c3d8                	sw	a4,4(a5)
   13cea:	a8b5                	j	13d66 <_malloc_r+0x10a>
   13cec:	0094d713          	srli	a4,s1,0x9
   13cf0:	03f00793          	li	a5,63
   13cf4:	cb01                	beqz	a4,13d04 <_malloc_r+0xa8>
   13cf6:	4791                	li	a5,4
   13cf8:	06e7ec63          	bltu	a5,a4,13d70 <_malloc_r+0x114>
   13cfc:	0064d793          	srli	a5,s1,0x6
   13d00:	03878793          	addi	a5,a5,56
   13d04:	00178713          	addi	a4,a5,1
   13d08:	070e                	slli	a4,a4,0x3
   13d0a:	974a                	add	a4,a4,s2
   13d0c:	4340                	lw	s0,4(a4)
   13d0e:	ff870593          	addi	a1,a4,-8
   13d12:	453d                	li	a0,15
   13d14:	00b40963          	beq	s0,a1,13d26 <_malloc_r+0xca>
   13d18:	4058                	lw	a4,4(s0)
   13d1a:	9b71                	andi	a4,a4,-4
   13d1c:	40970633          	sub	a2,a4,s1
   13d20:	08c55b63          	bge	a0,a2,13db6 <_malloc_r+0x15a>
   13d24:	17fd                	addi	a5,a5,-1
   13d26:	0785                	addi	a5,a5,1
   13d28:	01092403          	lw	s0,16(s2)
   13d2c:	00890693          	addi	a3,s2,8
   13d30:	d9c18593          	addi	a1,gp,-612 # 1e7d4 <__malloc_av_+0x8>
   13d34:	0ed40263          	beq	s0,a3,13e18 <_malloc_r+0x1bc>
   13d38:	4058                	lw	a4,4(s0)
   13d3a:	463d                	li	a2,15
   13d3c:	9b71                	andi	a4,a4,-4
   13d3e:	40970533          	sub	a0,a4,s1
   13d42:	08a65563          	bge	a2,a0,13dcc <_malloc_r+0x170>
   13d46:	0014e793          	ori	a5,s1,1
   13d4a:	c05c                	sw	a5,4(s0)
   13d4c:	00940633          	add	a2,s0,s1
   13d50:	00c92a23          	sw	a2,20(s2)
   13d54:	00c92823          	sw	a2,16(s2)
   13d58:	00156793          	ori	a5,a0,1
   13d5c:	c654                	sw	a3,12(a2)
   13d5e:	c614                	sw	a3,8(a2)
   13d60:	c25c                	sw	a5,4(a2)
   13d62:	9722                	add	a4,a4,s0
   13d64:	c308                	sw	a0,0(a4)
   13d66:	854e                	mv	a0,s3
   13d68:	2355                	jal	1430c <__malloc_unlock>
   13d6a:	00840513          	addi	a0,s0,8
   13d6e:	bf31                	j	13c8a <_malloc_r+0x2e>
   13d70:	47d1                	li	a5,20
   13d72:	00e7e563          	bltu	a5,a4,13d7c <_malloc_r+0x120>
   13d76:	05b70793          	addi	a5,a4,91
   13d7a:	b769                	j	13d04 <_malloc_r+0xa8>
   13d7c:	05400793          	li	a5,84
   13d80:	00e7e763          	bltu	a5,a4,13d8e <_malloc_r+0x132>
   13d84:	00c4d793          	srli	a5,s1,0xc
   13d88:	06e78793          	addi	a5,a5,110
   13d8c:	bfa5                	j	13d04 <_malloc_r+0xa8>
   13d8e:	15400793          	li	a5,340
   13d92:	00e7e763          	bltu	a5,a4,13da0 <_malloc_r+0x144>
   13d96:	00f4d793          	srli	a5,s1,0xf
   13d9a:	07778793          	addi	a5,a5,119
   13d9e:	b79d                	j	13d04 <_malloc_r+0xa8>
   13da0:	55400693          	li	a3,1364
   13da4:	07e00793          	li	a5,126
   13da8:	f4e6eee3          	bltu	a3,a4,13d04 <_malloc_r+0xa8>
   13dac:	0124d793          	srli	a5,s1,0x12
   13db0:	07c78793          	addi	a5,a5,124
   13db4:	bf81                	j	13d04 <_malloc_r+0xa8>
   13db6:	4454                	lw	a3,12(s0)
   13db8:	00064863          	bltz	a2,13dc8 <_malloc_r+0x16c>
   13dbc:	441c                	lw	a5,8(s0)
   13dbe:	c7d4                	sw	a3,12(a5)
   13dc0:	c69c                	sw	a5,8(a3)
   13dc2:	00e407b3          	add	a5,s0,a4
   13dc6:	bf31                	j	13ce2 <_malloc_r+0x86>
   13dc8:	8436                	mv	s0,a3
   13dca:	b7a9                	j	13d14 <_malloc_r+0xb8>
   13dcc:	00d92a23          	sw	a3,20(s2)
   13dd0:	00d92823          	sw	a3,16(s2)
   13dd4:	00054863          	bltz	a0,13de4 <_malloc_r+0x188>
   13dd8:	9722                	add	a4,a4,s0
   13dda:	435c                	lw	a5,4(a4)
   13ddc:	0017e793          	ori	a5,a5,1
   13de0:	c35c                	sw	a5,4(a4)
   13de2:	b751                	j	13d66 <_malloc_r+0x10a>
   13de4:	1ff00693          	li	a3,511
   13de8:	00492803          	lw	a6,4(s2)
   13dec:	10e6ef63          	bltu	a3,a4,13f0a <_malloc_r+0x2ae>
   13df0:	830d                	srli	a4,a4,0x3
   13df2:	40275613          	srai	a2,a4,0x2
   13df6:	4685                	li	a3,1
   13df8:	0705                	addi	a4,a4,1
   13dfa:	00c696b3          	sll	a3,a3,a2
   13dfe:	070e                	slli	a4,a4,0x3
   13e00:	974a                	add	a4,a4,s2
   13e02:	0106e6b3          	or	a3,a3,a6
   13e06:	00d92223          	sw	a3,4(s2)
   13e0a:	4314                	lw	a3,0(a4)
   13e0c:	ff870613          	addi	a2,a4,-8
   13e10:	c450                	sw	a2,12(s0)
   13e12:	c414                	sw	a3,8(s0)
   13e14:	c300                	sw	s0,0(a4)
   13e16:	c6c0                	sw	s0,12(a3)
   13e18:	4027d713          	srai	a4,a5,0x2
   13e1c:	4305                	li	t1,1
   13e1e:	00e31333          	sll	t1,t1,a4
   13e22:	00492703          	lw	a4,4(s2)
   13e26:	04676c63          	bltu	a4,t1,13e7e <_malloc_r+0x222>
   13e2a:	006776b3          	and	a3,a4,t1
   13e2e:	e699                	bnez	a3,13e3c <_malloc_r+0x1e0>
   13e30:	9bf1                	andi	a5,a5,-4
   13e32:	0306                	slli	t1,t1,0x1
   13e34:	006776b3          	and	a3,a4,t1
   13e38:	0791                	addi	a5,a5,4
   13e3a:	dee5                	beqz	a3,13e32 <_malloc_r+0x1d6>
   13e3c:	4e3d                	li	t3,15
   13e3e:	00379693          	slli	a3,a5,0x3
   13e42:	96ca                	add	a3,a3,s2
   13e44:	8836                	mv	a6,a3
   13e46:	853e                	mv	a0,a5
   13e48:	00c82403          	lw	s0,12(a6)
   13e4c:	15041a63          	bne	s0,a6,13fa0 <_malloc_r+0x344>
   13e50:	0505                	addi	a0,a0,1
   13e52:	00357713          	andi	a4,a0,3
   13e56:	0821                	addi	a6,a6,8
   13e58:	fb65                	bnez	a4,13e48 <_malloc_r+0x1ec>
   13e5a:	0037f713          	andi	a4,a5,3
   13e5e:	18071a63          	bnez	a4,13ff2 <_malloc_r+0x396>
   13e62:	00492703          	lw	a4,4(s2)
   13e66:	fff34793          	not	a5,t1
   13e6a:	8ff9                	and	a5,a5,a4
   13e6c:	00f92223          	sw	a5,4(s2)
   13e70:	00492703          	lw	a4,4(s2)
   13e74:	0306                	slli	t1,t1,0x1
   13e76:	00676463          	bltu	a4,t1,13e7e <_malloc_r+0x222>
   13e7a:	18031963          	bnez	t1,1400c <_malloc_r+0x3b0>
   13e7e:	00892b83          	lw	s7,8(s2)
   13e82:	004ba403          	lw	s0,4(s7)
   13e86:	ffc47a93          	andi	s5,s0,-4
   13e8a:	009ae763          	bltu	s5,s1,13e98 <_malloc_r+0x23c>
   13e8e:	409a8733          	sub	a4,s5,s1
   13e92:	47bd                	li	a5,15
   13e94:	24e7c263          	blt	a5,a4,140d8 <_malloc_r+0x47c>
   13e98:	1dc1a403          	lw	s0,476(gp) # 1ec14 <__malloc_top_pad>
   13e9c:	1c41a703          	lw	a4,452(gp) # 1ebfc <__malloc_sbrk_base>
   13ea0:	57fd                	li	a5,-1
   13ea2:	9426                	add	s0,s0,s1
   13ea4:	16f71663          	bne	a4,a5,14010 <_malloc_r+0x3b4>
   13ea8:	0441                	addi	s0,s0,16
   13eaa:	85a2                	mv	a1,s0
   13eac:	854e                	mv	a0,s3
   13eae:	793000ef          	jal	ra,14e40 <_sbrk_r>
   13eb2:	57fd                	li	a5,-1
   13eb4:	8b2a                	mv	s6,a0
   13eb6:	1cf50763          	beq	a0,a5,14084 <_malloc_r+0x428>
   13eba:	015b87b3          	add	a5,s7,s5
   13ebe:	00f57463          	bgeu	a0,a5,13ec6 <_malloc_r+0x26a>
   13ec2:	1d2b9163          	bne	s7,s2,14084 <_malloc_r+0x428>
   13ec6:	20018693          	addi	a3,gp,512 # 1ec38 <__malloc_current_mallinfo>
   13eca:	4298                	lw	a4,0(a3)
   13ecc:	20018c13          	addi	s8,gp,512 # 1ec38 <__malloc_current_mallinfo>
   13ed0:	9722                	add	a4,a4,s0
   13ed2:	c298                	sw	a4,0(a3)
   13ed4:	15679463          	bne	a5,s6,1401c <_malloc_r+0x3c0>
   13ed8:	01479693          	slli	a3,a5,0x14
   13edc:	14069063          	bnez	a3,1401c <_malloc_r+0x3c0>
   13ee0:	00892783          	lw	a5,8(s2)
   13ee4:	9456                	add	s0,s0,s5
   13ee6:	00146413          	ori	s0,s0,1
   13eea:	c3c0                	sw	s0,4(a5)
   13eec:	000c2783          	lw	a5,0(s8) # fffff000 <__BSS_END__+0xfffe039c>
   13ef0:	1d81a683          	lw	a3,472(gp) # 1ec10 <__malloc_max_sbrked_mem>
   13ef4:	00f6f463          	bgeu	a3,a5,13efc <_malloc_r+0x2a0>
   13ef8:	1cf1ac23          	sw	a5,472(gp) # 1ec10 <__malloc_max_sbrked_mem>
   13efc:	1d41a683          	lw	a3,468(gp) # 1ec0c <__malloc_max_total_mem>
   13f00:	18f6f263          	bgeu	a3,a5,14084 <_malloc_r+0x428>
   13f04:	1cf1aa23          	sw	a5,468(gp) # 1ec0c <__malloc_max_total_mem>
   13f08:	aab5                	j	14084 <_malloc_r+0x428>
   13f0a:	00975613          	srli	a2,a4,0x9
   13f0e:	4691                	li	a3,4
   13f10:	02c6ec63          	bltu	a3,a2,13f48 <_malloc_r+0x2ec>
   13f14:	00675693          	srli	a3,a4,0x6
   13f18:	03868693          	addi	a3,a3,56
   13f1c:	00168613          	addi	a2,a3,1
   13f20:	060e                	slli	a2,a2,0x3
   13f22:	964a                	add	a2,a2,s2
   13f24:	ff860513          	addi	a0,a2,-8
   13f28:	4210                	lw	a2,0(a2)
   13f2a:	06c51563          	bne	a0,a2,13f94 <_malloc_r+0x338>
   13f2e:	8689                	srai	a3,a3,0x2
   13f30:	4705                	li	a4,1
   13f32:	00d716b3          	sll	a3,a4,a3
   13f36:	0106e6b3          	or	a3,a3,a6
   13f3a:	00d92223          	sw	a3,4(s2)
   13f3e:	c448                	sw	a0,12(s0)
   13f40:	c410                	sw	a2,8(s0)
   13f42:	c500                	sw	s0,8(a0)
   13f44:	c640                	sw	s0,12(a2)
   13f46:	bdc9                	j	13e18 <_malloc_r+0x1bc>
   13f48:	46d1                	li	a3,20
   13f4a:	00c6e563          	bltu	a3,a2,13f54 <_malloc_r+0x2f8>
   13f4e:	05b60693          	addi	a3,a2,91
   13f52:	b7e9                	j	13f1c <_malloc_r+0x2c0>
   13f54:	05400693          	li	a3,84
   13f58:	00c6e763          	bltu	a3,a2,13f66 <_malloc_r+0x30a>
   13f5c:	00c75693          	srli	a3,a4,0xc
   13f60:	06e68693          	addi	a3,a3,110
   13f64:	bf65                	j	13f1c <_malloc_r+0x2c0>
   13f66:	15400693          	li	a3,340
   13f6a:	00c6e763          	bltu	a3,a2,13f78 <_malloc_r+0x31c>
   13f6e:	00f75693          	srli	a3,a4,0xf
   13f72:	07768693          	addi	a3,a3,119
   13f76:	b75d                	j	13f1c <_malloc_r+0x2c0>
   13f78:	55400513          	li	a0,1364
   13f7c:	07e00693          	li	a3,126
   13f80:	f8c56ee3          	bltu	a0,a2,13f1c <_malloc_r+0x2c0>
   13f84:	01275693          	srli	a3,a4,0x12
   13f88:	07c68693          	addi	a3,a3,124
   13f8c:	bf41                	j	13f1c <_malloc_r+0x2c0>
   13f8e:	4610                	lw	a2,8(a2)
   13f90:	00c50663          	beq	a0,a2,13f9c <_malloc_r+0x340>
   13f94:	4254                	lw	a3,4(a2)
   13f96:	9af1                	andi	a3,a3,-4
   13f98:	fed76be3          	bltu	a4,a3,13f8e <_malloc_r+0x332>
   13f9c:	4648                	lw	a0,12(a2)
   13f9e:	b745                	j	13f3e <_malloc_r+0x2e2>
   13fa0:	4058                	lw	a4,4(s0)
   13fa2:	4450                	lw	a2,12(s0)
   13fa4:	9b71                	andi	a4,a4,-4
   13fa6:	409708b3          	sub	a7,a4,s1
   13faa:	031e5763          	bge	t3,a7,13fd8 <_malloc_r+0x37c>
   13fae:	0014e793          	ori	a5,s1,1
   13fb2:	c05c                	sw	a5,4(s0)
   13fb4:	441c                	lw	a5,8(s0)
   13fb6:	009406b3          	add	a3,s0,s1
   13fba:	9722                	add	a4,a4,s0
   13fbc:	c7d0                	sw	a2,12(a5)
   13fbe:	c61c                	sw	a5,8(a2)
   13fc0:	00d92a23          	sw	a3,20(s2)
   13fc4:	00d92823          	sw	a3,16(s2)
   13fc8:	0018e793          	ori	a5,a7,1
   13fcc:	c6cc                	sw	a1,12(a3)
   13fce:	c68c                	sw	a1,8(a3)
   13fd0:	c2dc                	sw	a5,4(a3)
   13fd2:	01172023          	sw	a7,0(a4)
   13fd6:	bb41                	j	13d66 <_malloc_r+0x10a>
   13fd8:	0008cb63          	bltz	a7,13fee <_malloc_r+0x392>
   13fdc:	9722                	add	a4,a4,s0
   13fde:	435c                	lw	a5,4(a4)
   13fe0:	0017e793          	ori	a5,a5,1
   13fe4:	c35c                	sw	a5,4(a4)
   13fe6:	441c                	lw	a5,8(s0)
   13fe8:	c7d0                	sw	a2,12(a5)
   13fea:	c61c                	sw	a5,8(a2)
   13fec:	bbad                	j	13d66 <_malloc_r+0x10a>
   13fee:	8432                	mv	s0,a2
   13ff0:	bdb1                	j	13e4c <_malloc_r+0x1f0>
   13ff2:	ff868713          	addi	a4,a3,-8
   13ff6:	4294                	lw	a3,0(a3)
   13ff8:	17fd                	addi	a5,a5,-1
   13ffa:	e6e680e3          	beq	a3,a4,13e5a <_malloc_r+0x1fe>
   13ffe:	bd8d                	j	13e70 <_malloc_r+0x214>
   14000:	0791                	addi	a5,a5,4
   14002:	0306                	slli	t1,t1,0x1
   14004:	006776b3          	and	a3,a4,t1
   14008:	dee5                	beqz	a3,14000 <_malloc_r+0x3a4>
   1400a:	bd15                	j	13e3e <_malloc_r+0x1e2>
   1400c:	87aa                	mv	a5,a0
   1400e:	bfdd                	j	14004 <_malloc_r+0x3a8>
   14010:	6785                	lui	a5,0x1
   14012:	07bd                	addi	a5,a5,15
   14014:	943e                	add	s0,s0,a5
   14016:	77fd                	lui	a5,0xfffff
   14018:	8c7d                	and	s0,s0,a5
   1401a:	bd41                	j	13eaa <_malloc_r+0x24e>
   1401c:	1c41a603          	lw	a2,452(gp) # 1ebfc <__malloc_sbrk_base>
   14020:	56fd                	li	a3,-1
   14022:	06d61f63          	bne	a2,a3,140a0 <_malloc_r+0x444>
   14026:	1d61a223          	sw	s6,452(gp) # 1ebfc <__malloc_sbrk_base>
   1402a:	007b7593          	andi	a1,s6,7
   1402e:	c589                	beqz	a1,14038 <_malloc_r+0x3dc>
   14030:	47a1                	li	a5,8
   14032:	40b785b3          	sub	a1,a5,a1
   14036:	9b2e                	add	s6,s6,a1
   14038:	6785                	lui	a5,0x1
   1403a:	95be                	add	a1,a1,a5
   1403c:	945a                	add	s0,s0,s6
   1403e:	17fd                	addi	a5,a5,-1
   14040:	8c7d                	and	s0,s0,a5
   14042:	40858a33          	sub	s4,a1,s0
   14046:	85d2                	mv	a1,s4
   14048:	854e                	mv	a0,s3
   1404a:	5f7000ef          	jal	ra,14e40 <_sbrk_r>
   1404e:	57fd                	li	a5,-1
   14050:	00f51463          	bne	a0,a5,14058 <_malloc_r+0x3fc>
   14054:	855a                	mv	a0,s6
   14056:	4a01                	li	s4,0
   14058:	000c2783          	lw	a5,0(s8)
   1405c:	41650533          	sub	a0,a0,s6
   14060:	01692423          	sw	s6,8(s2)
   14064:	97d2                	add	a5,a5,s4
   14066:	9a2a                	add	s4,s4,a0
   14068:	001a6a13          	ori	s4,s4,1
   1406c:	00fc2023          	sw	a5,0(s8)
   14070:	014b2223          	sw	s4,4(s6)
   14074:	e72b8ce3          	beq	s7,s2,13eec <_malloc_r+0x290>
   14078:	473d                	li	a4,15
   1407a:	03576963          	bltu	a4,s5,140ac <_malloc_r+0x450>
   1407e:	4785                	li	a5,1
   14080:	00fb2223          	sw	a5,4(s6)
   14084:	00892783          	lw	a5,8(s2)
   14088:	43dc                	lw	a5,4(a5)
   1408a:	9bf1                	andi	a5,a5,-4
   1408c:	40978733          	sub	a4,a5,s1
   14090:	0097e563          	bltu	a5,s1,1409a <_malloc_r+0x43e>
   14094:	47bd                	li	a5,15
   14096:	04e7c163          	blt	a5,a4,140d8 <_malloc_r+0x47c>
   1409a:	854e                	mv	a0,s3
   1409c:	2c85                	jal	1430c <__malloc_unlock>
   1409e:	b6ed                	j	13c88 <_malloc_r+0x2c>
   140a0:	40fb07b3          	sub	a5,s6,a5
   140a4:	97ba                	add	a5,a5,a4
   140a6:	00fc2023          	sw	a5,0(s8)
   140aa:	b741                	j	1402a <_malloc_r+0x3ce>
   140ac:	004ba783          	lw	a5,4(s7)
   140b0:	ff4a8413          	addi	s0,s5,-12
   140b4:	9861                	andi	s0,s0,-8
   140b6:	8b85                	andi	a5,a5,1
   140b8:	8fc1                	or	a5,a5,s0
   140ba:	00fba223          	sw	a5,4(s7)
   140be:	4695                	li	a3,5
   140c0:	008b87b3          	add	a5,s7,s0
   140c4:	c3d4                	sw	a3,4(a5)
   140c6:	c794                	sw	a3,8(a5)
   140c8:	e28772e3          	bgeu	a4,s0,13eec <_malloc_r+0x290>
   140cc:	008b8593          	addi	a1,s7,8
   140d0:	854e                	mv	a0,s3
   140d2:	836fe0ef          	jal	ra,12108 <_free_r>
   140d6:	bd19                	j	13eec <_malloc_r+0x290>
   140d8:	00892403          	lw	s0,8(s2)
   140dc:	0014e793          	ori	a5,s1,1
   140e0:	c05c                	sw	a5,4(s0)
   140e2:	009407b3          	add	a5,s0,s1
   140e6:	00f92423          	sw	a5,8(s2)
   140ea:	beed                	j	13ce4 <_malloc_r+0x88>

000140ec <_mbtowc_r>:
   140ec:	1c01a783          	lw	a5,448(gp) # 1ebf8 <_impure_ptr>
   140f0:	5bdc                	lw	a5,52(a5)
   140f2:	e399                	bnez	a5,140f8 <_mbtowc_r+0xc>
   140f4:	c2818793          	addi	a5,gp,-984 # 1e660 <__global_locale>
   140f8:	0e47a303          	lw	t1,228(a5) # 10e4 <__stack_chk_init-0xef90>
   140fc:	8302                	jr	t1

000140fe <__ascii_mbtowc>:
   140fe:	1cc1a703          	lw	a4,460(gp) # 1ec04 <__stack_chk_guard>
   14102:	1101                	addi	sp,sp,-32
   14104:	ce06                	sw	ra,28(sp)
   14106:	c63a                	sw	a4,12(sp)
   14108:	e191                	bnez	a1,1410c <__ascii_mbtowc+0xe>
   1410a:	002c                	addi	a1,sp,8
   1410c:	4501                	li	a0,0
   1410e:	ca11                	beqz	a2,14122 <__ascii_mbtowc+0x24>
   14110:	5579                	li	a0,-2
   14112:	ca81                	beqz	a3,14122 <__ascii_mbtowc+0x24>
   14114:	00064703          	lbu	a4,0(a2)
   14118:	c198                	sw	a4,0(a1)
   1411a:	00064503          	lbu	a0,0(a2)
   1411e:	00a03533          	snez	a0,a0
   14122:	4732                	lw	a4,12(sp)
   14124:	1cc1a783          	lw	a5,460(gp) # 1ec04 <__stack_chk_guard>
   14128:	00f70463          	beq	a4,a5,14130 <__ascii_mbtowc+0x32>
   1412c:	ab6fc0ef          	jal	ra,103e2 <__stack_chk_fail>
   14130:	40f2                	lw	ra,28(sp)
   14132:	6105                	addi	sp,sp,32
   14134:	8082                	ret

00014136 <memchr>:
   14136:	0ff5f593          	andi	a1,a1,255
   1413a:	962a                	add	a2,a2,a0
   1413c:	00c51463          	bne	a0,a2,14144 <memchr+0xe>
   14140:	4501                	li	a0,0
   14142:	8082                	ret
   14144:	00054783          	lbu	a5,0(a0)
   14148:	feb78de3          	beq	a5,a1,14142 <memchr+0xc>
   1414c:	0505                	addi	a0,a0,1
   1414e:	b7fd                	j	1413c <memchr+0x6>

00014150 <memcpy_4aligned_short>:
   14150:	4d98                	lw	a4,24(a1)
   14152:	0045a303          	lw	t1,4(a1)
   14156:	0085a883          	lw	a7,8(a1)
   1415a:	cd18                	sw	a4,24(a0)
   1415c:	01c5d703          	lhu	a4,28(a1)
   14160:	00c5a803          	lw	a6,12(a1)
   14164:	4990                	lw	a2,16(a1)
   14166:	49d4                	lw	a3,20(a1)
   14168:	0005ae03          	lw	t3,0(a1)
   1416c:	00e51e23          	sh	a4,28(a0)
   14170:	01e5c703          	lbu	a4,30(a1)
   14174:	01c52023          	sw	t3,0(a0)
   14178:	00652223          	sw	t1,4(a0)
   1417c:	01152423          	sw	a7,8(a0)
   14180:	01052623          	sw	a6,12(a0)
   14184:	c910                	sw	a2,16(a0)
   14186:	c954                	sw	a3,20(a0)
   14188:	00e50f23          	sb	a4,30(a0)
   1418c:	8082                	ret

0001418e <memcpy_4aligned_long>:
   1418e:	0045a283          	lw	t0,4(a1)
   14192:	0085af83          	lw	t6,8(a1)
   14196:	00c5af03          	lw	t5,12(a1)
   1419a:	0105ae83          	lw	t4,16(a1)
   1419e:	0145ae03          	lw	t3,20(a1)
   141a2:	0185a303          	lw	t1,24(a1)
   141a6:	01c5a883          	lw	a7,28(a1)
   141aa:	0205a803          	lw	a6,32(a1)
   141ae:	51d0                	lw	a2,36(a1)
   141b0:	5594                	lw	a3,40(a1)
   141b2:	55d8                	lw	a4,44(a1)
   141b4:	418c                	lw	a1,0(a1)
   141b6:	00552223          	sw	t0,4(a0)
   141ba:	01f52423          	sw	t6,8(a0)
   141be:	c10c                	sw	a1,0(a0)
   141c0:	01e52623          	sw	t5,12(a0)
   141c4:	01d52823          	sw	t4,16(a0)
   141c8:	01c52a23          	sw	t3,20(a0)
   141cc:	00652c23          	sw	t1,24(a0)
   141d0:	01152e23          	sw	a7,28(a0)
   141d4:	03052023          	sw	a6,32(a0)
   141d8:	d150                	sw	a2,36(a0)
   141da:	d514                	sw	a3,40(a0)
   141dc:	d558                	sw	a4,44(a0)
   141de:	8082                	ret

000141e0 <memcpy_4aligned>:
   141e0:	962a                	add	a2,a2,a0
   141e2:	ffc67713          	andi	a4,a2,-4
   141e6:	87aa                	mv	a5,a0
   141e8:	fec70693          	addi	a3,a4,-20
   141ec:	00d7ef63          	bltu	a5,a3,1420a <memcpy_4aligned+0x2a>
   141f0:	04e7e863          	bltu	a5,a4,14240 <memcpy_4aligned+0x60>
   141f4:	00c7fa63          	bgeu	a5,a2,14208 <memcpy_4aligned+0x28>
   141f8:	0005c703          	lbu	a4,0(a1)
   141fc:	0785                	addi	a5,a5,1
   141fe:	0585                	addi	a1,a1,1
   14200:	fee78fa3          	sb	a4,-1(a5)
   14204:	fef61ae3          	bne	a2,a5,141f8 <memcpy_4aligned+0x18>
   14208:	8082                	ret
   1420a:	0005af03          	lw	t5,0(a1)
   1420e:	0045ae83          	lw	t4,4(a1)
   14212:	0085ae03          	lw	t3,8(a1)
   14216:	00c5a303          	lw	t1,12(a1)
   1421a:	0105a883          	lw	a7,16(a1)
   1421e:	05e1                	addi	a1,a1,24
   14220:	01e7a023          	sw	t5,0(a5)
   14224:	ffc5a803          	lw	a6,-4(a1)
   14228:	01d7a223          	sw	t4,4(a5)
   1422c:	01c7a423          	sw	t3,8(a5)
   14230:	0067a623          	sw	t1,12(a5)
   14234:	0117a823          	sw	a7,16(a5)
   14238:	07e1                	addi	a5,a5,24
   1423a:	ff07ae23          	sw	a6,-4(a5)
   1423e:	b77d                	j	141ec <memcpy_4aligned+0xc>
   14240:	4194                	lw	a3,0(a1)
   14242:	0791                	addi	a5,a5,4
   14244:	0591                	addi	a1,a1,4
   14246:	fed7ae23          	sw	a3,-4(a5)
   1424a:	b75d                	j	141f0 <memcpy_4aligned+0x10>

0001424c <memcpy>:
   1424c:	00a5c7b3          	xor	a5,a1,a0
   14250:	8b8d                	andi	a5,a5,3
   14252:	00c50733          	add	a4,a0,a2
   14256:	e781                	bnez	a5,1425e <memcpy+0x12>
   14258:	478d                	li	a5,3
   1425a:	00c7ef63          	bltu	a5,a2,14278 <memcpy+0x2c>
   1425e:	87aa                	mv	a5,a0
   14260:	00e56963          	bltu	a0,a4,14272 <memcpy+0x26>
   14264:	8082                	ret
   14266:	0005c683          	lbu	a3,0(a1)
   1426a:	0785                	addi	a5,a5,1
   1426c:	0585                	addi	a1,a1,1
   1426e:	fed78fa3          	sb	a3,-1(a5)
   14272:	fee7eae3          	bltu	a5,a4,14266 <memcpy+0x1a>
   14276:	8082                	ret
   14278:	00357793          	andi	a5,a0,3
   1427c:	ebbd                	bnez	a5,142f2 <memcpy+0xa6>
   1427e:	87aa                	mv	a5,a0
   14280:	ffc77693          	andi	a3,a4,-4
   14284:	fe068613          	addi	a2,a3,-32
   14288:	06c7fc63          	bgeu	a5,a2,14300 <memcpy+0xb4>
   1428c:	0005a383          	lw	t2,0(a1)
   14290:	0045a283          	lw	t0,4(a1)
   14294:	0085af83          	lw	t6,8(a1)
   14298:	00c5af03          	lw	t5,12(a1)
   1429c:	0105ae83          	lw	t4,16(a1)
   142a0:	0145ae03          	lw	t3,20(a1)
   142a4:	0185a303          	lw	t1,24(a1)
   142a8:	01c5a883          	lw	a7,28(a1)
   142ac:	02458593          	addi	a1,a1,36
   142b0:	0077a023          	sw	t2,0(a5)
   142b4:	ffc5a803          	lw	a6,-4(a1)
   142b8:	0057a223          	sw	t0,4(a5)
   142bc:	01f7a423          	sw	t6,8(a5)
   142c0:	01e7a623          	sw	t5,12(a5)
   142c4:	01d7a823          	sw	t4,16(a5)
   142c8:	01c7aa23          	sw	t3,20(a5)
   142cc:	0067ac23          	sw	t1,24(a5)
   142d0:	0117ae23          	sw	a7,28(a5)
   142d4:	02478793          	addi	a5,a5,36
   142d8:	ff07ae23          	sw	a6,-4(a5)
   142dc:	b775                	j	14288 <memcpy+0x3c>
   142de:	0005c683          	lbu	a3,0(a1)
   142e2:	0785                	addi	a5,a5,1
   142e4:	0585                	addi	a1,a1,1
   142e6:	fed78fa3          	sb	a3,-1(a5)
   142ea:	0037f693          	andi	a3,a5,3
   142ee:	fae5                	bnez	a3,142de <memcpy+0x92>
   142f0:	bf41                	j	14280 <memcpy+0x34>
   142f2:	87aa                	mv	a5,a0
   142f4:	bfdd                	j	142ea <memcpy+0x9e>
   142f6:	4190                	lw	a2,0(a1)
   142f8:	0791                	addi	a5,a5,4
   142fa:	0591                	addi	a1,a1,4
   142fc:	fec7ae23          	sw	a2,-4(a5)
   14300:	fed7ebe3          	bltu	a5,a3,142f6 <memcpy+0xaa>
   14304:	f6e7e7e3          	bltu	a5,a4,14272 <memcpy+0x26>
   14308:	8082                	ret

0001430a <__malloc_lock>:
   1430a:	8082                	ret

0001430c <__malloc_unlock>:
   1430c:	8082                	ret

0001430e <_Balloc>:
   1430e:	457c                	lw	a5,76(a0)
   14310:	1141                	addi	sp,sp,-16
   14312:	c226                	sw	s1,4(sp)
   14314:	c04a                	sw	s2,0(sp)
   14316:	c606                	sw	ra,12(sp)
   14318:	c422                	sw	s0,8(sp)
   1431a:	84aa                	mv	s1,a0
   1431c:	892e                	mv	s2,a1
   1431e:	c795                	beqz	a5,1434a <_Balloc+0x3c>
   14320:	44f8                	lw	a4,76(s1)
   14322:	00291793          	slli	a5,s2,0x2
   14326:	97ba                	add	a5,a5,a4
   14328:	4388                	lw	a0,0(a5)
   1432a:	ed15                	bnez	a0,14366 <_Balloc+0x58>
   1432c:	4405                	li	s0,1
   1432e:	01241433          	sll	s0,s0,s2
   14332:	00540613          	addi	a2,s0,5
   14336:	060a                	slli	a2,a2,0x2
   14338:	4585                	li	a1,1
   1433a:	8526                	mv	a0,s1
   1433c:	3e0030ef          	jal	ra,1771c <_calloc_r>
   14340:	cd01                	beqz	a0,14358 <_Balloc+0x4a>
   14342:	01252223          	sw	s2,4(a0)
   14346:	c500                	sw	s0,8(a0)
   14348:	a00d                	j	1436a <_Balloc+0x5c>
   1434a:	02100613          	li	a2,33
   1434e:	4591                	li	a1,4
   14350:	3cc030ef          	jal	ra,1771c <_calloc_r>
   14354:	c4e8                	sw	a0,76(s1)
   14356:	f569                	bnez	a0,14320 <_Balloc+0x12>
   14358:	4501                	li	a0,0
   1435a:	40b2                	lw	ra,12(sp)
   1435c:	4422                	lw	s0,8(sp)
   1435e:	4492                	lw	s1,4(sp)
   14360:	4902                	lw	s2,0(sp)
   14362:	0141                	addi	sp,sp,16
   14364:	8082                	ret
   14366:	4118                	lw	a4,0(a0)
   14368:	c398                	sw	a4,0(a5)
   1436a:	00052823          	sw	zero,16(a0)
   1436e:	00052623          	sw	zero,12(a0)
   14372:	b7e5                	j	1435a <_Balloc+0x4c>

00014374 <_Bfree>:
   14374:	c989                	beqz	a1,14386 <_Bfree+0x12>
   14376:	41dc                	lw	a5,4(a1)
   14378:	00279713          	slli	a4,a5,0x2
   1437c:	457c                	lw	a5,76(a0)
   1437e:	97ba                	add	a5,a5,a4
   14380:	4398                	lw	a4,0(a5)
   14382:	c198                	sw	a4,0(a1)
   14384:	c38c                	sw	a1,0(a5)
   14386:	8082                	ret

00014388 <__multadd>:
   14388:	1101                	addi	sp,sp,-32
   1438a:	cc22                	sw	s0,24(sp)
   1438c:	c84a                	sw	s2,16(sp)
   1438e:	c64e                	sw	s3,12(sp)
   14390:	842e                	mv	s0,a1
   14392:	89b6                	mv	s3,a3
   14394:	0105a903          	lw	s2,16(a1)
   14398:	01458693          	addi	a3,a1,20
   1439c:	65c1                	lui	a1,0x10
   1439e:	ca26                	sw	s1,20(sp)
   143a0:	ce06                	sw	ra,28(sp)
   143a2:	84aa                	mv	s1,a0
   143a4:	c452                	sw	s4,8(sp)
   143a6:	4501                	li	a0,0
   143a8:	15fd                	addi	a1,a1,-1
   143aa:	429c                	lw	a5,0(a3)
   143ac:	0691                	addi	a3,a3,4
   143ae:	0505                	addi	a0,a0,1
   143b0:	00b7f733          	and	a4,a5,a1
   143b4:	02c70733          	mul	a4,a4,a2
   143b8:	83c1                	srli	a5,a5,0x10
   143ba:	02c787b3          	mul	a5,a5,a2
   143be:	974e                	add	a4,a4,s3
   143c0:	01075813          	srli	a6,a4,0x10
   143c4:	8f6d                	and	a4,a4,a1
   143c6:	97c2                	add	a5,a5,a6
   143c8:	0107d993          	srli	s3,a5,0x10
   143cc:	07c2                	slli	a5,a5,0x10
   143ce:	97ba                	add	a5,a5,a4
   143d0:	fef6ae23          	sw	a5,-4(a3)
   143d4:	fd254be3          	blt	a0,s2,143aa <__multadd+0x22>
   143d8:	04098b63          	beqz	s3,1442e <__multadd+0xa6>
   143dc:	441c                	lw	a5,8(s0)
   143de:	02f94f63          	blt	s2,a5,1441c <__multadd+0x94>
   143e2:	404c                	lw	a1,4(s0)
   143e4:	8526                	mv	a0,s1
   143e6:	0585                	addi	a1,a1,1
   143e8:	371d                	jal	1430e <_Balloc>
   143ea:	8a2a                	mv	s4,a0
   143ec:	ed01                	bnez	a0,14404 <__multadd+0x7c>
   143ee:	66f5                	lui	a3,0x1d
   143f0:	6575                	lui	a0,0x1d
   143f2:	86868693          	addi	a3,a3,-1944 # 1c868 <__mprec_bigtens+0x28>
   143f6:	4601                	li	a2,0
   143f8:	0b500593          	li	a1,181
   143fc:	87c50513          	addi	a0,a0,-1924 # 1c87c <__mprec_bigtens+0x3c>
   14400:	2dc030ef          	jal	ra,176dc <__assert_func>
   14404:	4810                	lw	a2,16(s0)
   14406:	00c40593          	addi	a1,s0,12
   1440a:	0531                	addi	a0,a0,12
   1440c:	0609                	addi	a2,a2,2
   1440e:	060a                	slli	a2,a2,0x2
   14410:	e3dff0ef          	jal	ra,1424c <memcpy>
   14414:	85a2                	mv	a1,s0
   14416:	8526                	mv	a0,s1
   14418:	3fb1                	jal	14374 <_Bfree>
   1441a:	8452                	mv	s0,s4
   1441c:	00490793          	addi	a5,s2,4
   14420:	078a                	slli	a5,a5,0x2
   14422:	97a2                	add	a5,a5,s0
   14424:	0137a223          	sw	s3,4(a5)
   14428:	0905                	addi	s2,s2,1
   1442a:	01242823          	sw	s2,16(s0)
   1442e:	8522                	mv	a0,s0
   14430:	40f2                	lw	ra,28(sp)
   14432:	4462                	lw	s0,24(sp)
   14434:	44d2                	lw	s1,20(sp)
   14436:	4942                	lw	s2,16(sp)
   14438:	49b2                	lw	s3,12(sp)
   1443a:	4a22                	lw	s4,8(sp)
   1443c:	6105                	addi	sp,sp,32
   1443e:	8082                	ret

00014440 <__s2b>:
   14440:	7179                	addi	sp,sp,-48
   14442:	00868793          	addi	a5,a3,8
   14446:	ca56                	sw	s5,20(sp)
   14448:	8ab6                	mv	s5,a3
   1444a:	46a5                	li	a3,9
   1444c:	d422                	sw	s0,40(sp)
   1444e:	d226                	sw	s1,36(sp)
   14450:	cc52                	sw	s4,24(sp)
   14452:	842e                	mv	s0,a1
   14454:	02d7c7b3          	div	a5,a5,a3
   14458:	d606                	sw	ra,44(sp)
   1445a:	d04a                	sw	s2,32(sp)
   1445c:	ce4e                	sw	s3,28(sp)
   1445e:	8a2a                	mv	s4,a0
   14460:	84b2                	mv	s1,a2
   14462:	4685                	li	a3,1
   14464:	4581                	li	a1,0
   14466:	02f6c263          	blt	a3,a5,1448a <__s2b+0x4a>
   1446a:	8552                	mv	a0,s4
   1446c:	c63a                	sw	a4,12(sp)
   1446e:	3545                	jal	1430e <_Balloc>
   14470:	4732                	lw	a4,12(sp)
   14472:	ed19                	bnez	a0,14490 <__s2b+0x50>
   14474:	66f5                	lui	a3,0x1d
   14476:	6575                	lui	a0,0x1d
   14478:	86868693          	addi	a3,a3,-1944 # 1c868 <__mprec_bigtens+0x28>
   1447c:	4601                	li	a2,0
   1447e:	0ce00593          	li	a1,206
   14482:	87c50513          	addi	a0,a0,-1924 # 1c87c <__mprec_bigtens+0x3c>
   14486:	256030ef          	jal	ra,176dc <__assert_func>
   1448a:	0686                	slli	a3,a3,0x1
   1448c:	0585                	addi	a1,a1,1
   1448e:	bfe1                	j	14466 <__s2b+0x26>
   14490:	4785                	li	a5,1
   14492:	c91c                	sw	a5,16(a0)
   14494:	c958                	sw	a4,20(a0)
   14496:	47a5                	li	a5,9
   14498:	0497d263          	bge	a5,s1,144dc <__s2b+0x9c>
   1449c:	00940913          	addi	s2,s0,9
   144a0:	89ca                	mv	s3,s2
   144a2:	9426                	add	s0,s0,s1
   144a4:	0985                	addi	s3,s3,1
   144a6:	fff9c683          	lbu	a3,-1(s3)
   144aa:	85aa                	mv	a1,a0
   144ac:	4629                	li	a2,10
   144ae:	fd068693          	addi	a3,a3,-48
   144b2:	8552                	mv	a0,s4
   144b4:	3dd1                	jal	14388 <__multadd>
   144b6:	fe8997e3          	bne	s3,s0,144a4 <__s2b+0x64>
   144ba:	00990433          	add	s0,s2,s1
   144be:	1461                	addi	s0,s0,-8
   144c0:	8c81                	sub	s1,s1,s0
   144c2:	009407b3          	add	a5,s0,s1
   144c6:	0157ce63          	blt	a5,s5,144e2 <__s2b+0xa2>
   144ca:	50b2                	lw	ra,44(sp)
   144cc:	5422                	lw	s0,40(sp)
   144ce:	5492                	lw	s1,36(sp)
   144d0:	5902                	lw	s2,32(sp)
   144d2:	49f2                	lw	s3,28(sp)
   144d4:	4a62                	lw	s4,24(sp)
   144d6:	4ad2                	lw	s5,20(sp)
   144d8:	6145                	addi	sp,sp,48
   144da:	8082                	ret
   144dc:	0429                	addi	s0,s0,10
   144de:	44a5                	li	s1,9
   144e0:	b7c5                	j	144c0 <__s2b+0x80>
   144e2:	0405                	addi	s0,s0,1
   144e4:	fff44683          	lbu	a3,-1(s0)
   144e8:	85aa                	mv	a1,a0
   144ea:	4629                	li	a2,10
   144ec:	fd068693          	addi	a3,a3,-48
   144f0:	8552                	mv	a0,s4
   144f2:	3d59                	jal	14388 <__multadd>
   144f4:	b7f9                	j	144c2 <__s2b+0x82>

000144f6 <__hi0bits>:
   144f6:	7741                	lui	a4,0xffff0
   144f8:	8f69                	and	a4,a4,a0
   144fa:	87aa                	mv	a5,a0
   144fc:	4501                	li	a0,0
   144fe:	e319                	bnez	a4,14504 <__hi0bits+0xe>
   14500:	07c2                	slli	a5,a5,0x10
   14502:	4541                	li	a0,16
   14504:	ff000737          	lui	a4,0xff000
   14508:	8f7d                	and	a4,a4,a5
   1450a:	e319                	bnez	a4,14510 <__hi0bits+0x1a>
   1450c:	0521                	addi	a0,a0,8
   1450e:	07a2                	slli	a5,a5,0x8
   14510:	f0000737          	lui	a4,0xf0000
   14514:	8f7d                	and	a4,a4,a5
   14516:	e319                	bnez	a4,1451c <__hi0bits+0x26>
   14518:	0511                	addi	a0,a0,4
   1451a:	0792                	slli	a5,a5,0x4
   1451c:	c0000737          	lui	a4,0xc0000
   14520:	8f7d                	and	a4,a4,a5
   14522:	e319                	bnez	a4,14528 <__hi0bits+0x32>
   14524:	0509                	addi	a0,a0,2
   14526:	078a                	slli	a5,a5,0x2
   14528:	0007ca63          	bltz	a5,1453c <__hi0bits+0x46>
   1452c:	00179713          	slli	a4,a5,0x1
   14530:	00075463          	bgez	a4,14538 <__hi0bits+0x42>
   14534:	0505                	addi	a0,a0,1
   14536:	8082                	ret
   14538:	02000513          	li	a0,32
   1453c:	8082                	ret

0001453e <__lo0bits>:
   1453e:	411c                	lw	a5,0(a0)
   14540:	0077f713          	andi	a4,a5,7
   14544:	c30d                	beqz	a4,14566 <__lo0bits+0x28>
   14546:	0017f693          	andi	a3,a5,1
   1454a:	4701                	li	a4,0
   1454c:	e699                	bnez	a3,1455a <__lo0bits+0x1c>
   1454e:	0027f713          	andi	a4,a5,2
   14552:	c711                	beqz	a4,1455e <__lo0bits+0x20>
   14554:	8385                	srli	a5,a5,0x1
   14556:	c11c                	sw	a5,0(a0)
   14558:	4705                	li	a4,1
   1455a:	853a                	mv	a0,a4
   1455c:	8082                	ret
   1455e:	8389                	srli	a5,a5,0x2
   14560:	c11c                	sw	a5,0(a0)
   14562:	4709                	li	a4,2
   14564:	bfdd                	j	1455a <__lo0bits+0x1c>
   14566:	01079693          	slli	a3,a5,0x10
   1456a:	82c1                	srli	a3,a3,0x10
   1456c:	4701                	li	a4,0
   1456e:	e299                	bnez	a3,14574 <__lo0bits+0x36>
   14570:	83c1                	srli	a5,a5,0x10
   14572:	4741                	li	a4,16
   14574:	0ff7f693          	andi	a3,a5,255
   14578:	e299                	bnez	a3,1457e <__lo0bits+0x40>
   1457a:	0721                	addi	a4,a4,8
   1457c:	83a1                	srli	a5,a5,0x8
   1457e:	00f7f693          	andi	a3,a5,15
   14582:	e299                	bnez	a3,14588 <__lo0bits+0x4a>
   14584:	0711                	addi	a4,a4,4
   14586:	8391                	srli	a5,a5,0x4
   14588:	0037f693          	andi	a3,a5,3
   1458c:	e299                	bnez	a3,14592 <__lo0bits+0x54>
   1458e:	0709                	addi	a4,a4,2
   14590:	8389                	srli	a5,a5,0x2
   14592:	0017f693          	andi	a3,a5,1
   14596:	e681                	bnez	a3,1459e <__lo0bits+0x60>
   14598:	8385                	srli	a5,a5,0x1
   1459a:	c781                	beqz	a5,145a2 <__lo0bits+0x64>
   1459c:	0705                	addi	a4,a4,1
   1459e:	c11c                	sw	a5,0(a0)
   145a0:	bf6d                	j	1455a <__lo0bits+0x1c>
   145a2:	02000713          	li	a4,32
   145a6:	bf55                	j	1455a <__lo0bits+0x1c>

000145a8 <__i2b>:
   145a8:	1141                	addi	sp,sp,-16
   145aa:	c422                	sw	s0,8(sp)
   145ac:	842e                	mv	s0,a1
   145ae:	4585                	li	a1,1
   145b0:	c606                	sw	ra,12(sp)
   145b2:	3bb1                	jal	1430e <_Balloc>
   145b4:	ed01                	bnez	a0,145cc <__i2b+0x24>
   145b6:	66f5                	lui	a3,0x1d
   145b8:	6575                	lui	a0,0x1d
   145ba:	86868693          	addi	a3,a3,-1944 # 1c868 <__mprec_bigtens+0x28>
   145be:	4601                	li	a2,0
   145c0:	14000593          	li	a1,320
   145c4:	87c50513          	addi	a0,a0,-1924 # 1c87c <__mprec_bigtens+0x3c>
   145c8:	114030ef          	jal	ra,176dc <__assert_func>
   145cc:	c940                	sw	s0,20(a0)
   145ce:	40b2                	lw	ra,12(sp)
   145d0:	4422                	lw	s0,8(sp)
   145d2:	4705                	li	a4,1
   145d4:	c918                	sw	a4,16(a0)
   145d6:	0141                	addi	sp,sp,16
   145d8:	8082                	ret

000145da <__multiply>:
   145da:	4998                	lw	a4,16(a1)
   145dc:	4a1c                	lw	a5,16(a2)
   145de:	7179                	addi	sp,sp,-48
   145e0:	d226                	sw	s1,36(sp)
   145e2:	d606                	sw	ra,44(sp)
   145e4:	d422                	sw	s0,40(sp)
   145e6:	d04a                	sw	s2,32(sp)
   145e8:	ce4e                	sw	s3,28(sp)
   145ea:	84ae                	mv	s1,a1
   145ec:	00f75463          	bge	a4,a5,145f4 <__multiply+0x1a>
   145f0:	84b2                	mv	s1,a2
   145f2:	862e                	mv	a2,a1
   145f4:	0104a983          	lw	s3,16(s1)
   145f8:	01062903          	lw	s2,16(a2)
   145fc:	449c                	lw	a5,8(s1)
   145fe:	40cc                	lw	a1,4(s1)
   14600:	01298433          	add	s0,s3,s2
   14604:	0087d363          	bge	a5,s0,1460a <__multiply+0x30>
   14608:	0585                	addi	a1,a1,1
   1460a:	c632                	sw	a2,12(sp)
   1460c:	3309                	jal	1430e <_Balloc>
   1460e:	4632                	lw	a2,12(sp)
   14610:	ed01                	bnez	a0,14628 <__multiply+0x4e>
   14612:	66f5                	lui	a3,0x1d
   14614:	6575                	lui	a0,0x1d
   14616:	86868693          	addi	a3,a3,-1944 # 1c868 <__mprec_bigtens+0x28>
   1461a:	4601                	li	a2,0
   1461c:	15d00593          	li	a1,349
   14620:	87c50513          	addi	a0,a0,-1924 # 1c87c <__mprec_bigtens+0x3c>
   14624:	0b8030ef          	jal	ra,176dc <__assert_func>
   14628:	01450813          	addi	a6,a0,20
   1462c:	00241313          	slli	t1,s0,0x2
   14630:	9342                	add	t1,t1,a6
   14632:	87c2                	mv	a5,a6
   14634:	0267ed63          	bltu	a5,t1,1466e <__multiply+0x94>
   14638:	01448593          	addi	a1,s1,20
   1463c:	00299893          	slli	a7,s3,0x2
   14640:	0651                	addi	a2,a2,20
   14642:	00291e13          	slli	t3,s2,0x2
   14646:	66c1                	lui	a3,0x10
   14648:	98ae                	add	a7,a7,a1
   1464a:	9e32                	add	t3,t3,a2
   1464c:	16fd                	addi	a3,a3,-1
   1464e:	03c66463          	bltu	a2,t3,14676 <__multiply+0x9c>
   14652:	00805663          	blez	s0,1465e <__multiply+0x84>
   14656:	1371                	addi	t1,t1,-4
   14658:	00032783          	lw	a5,0(t1)
   1465c:	c3e5                	beqz	a5,1473c <__multiply+0x162>
   1465e:	c900                	sw	s0,16(a0)
   14660:	50b2                	lw	ra,44(sp)
   14662:	5422                	lw	s0,40(sp)
   14664:	5492                	lw	s1,36(sp)
   14666:	5902                	lw	s2,32(sp)
   14668:	49f2                	lw	s3,28(sp)
   1466a:	6145                	addi	sp,sp,48
   1466c:	8082                	ret
   1466e:	0007a023          	sw	zero,0(a5)
   14672:	0791                	addi	a5,a5,4
   14674:	b7c1                	j	14634 <__multiply+0x5a>
   14676:	00062f03          	lw	t5,0(a2)
   1467a:	00df7f33          	and	t5,t5,a3
   1467e:	040f0b63          	beqz	t5,146d4 <__multiply+0xfa>
   14682:	8fc2                	mv	t6,a6
   14684:	82ae                	mv	t0,a1
   14686:	4481                	li	s1,0
   14688:	0002a703          	lw	a4,0(t0) # 10354 <memset+0x8e>
   1468c:	000fa383          	lw	t2,0(t6)
   14690:	0291                	addi	t0,t0,4
   14692:	00d77eb3          	and	t4,a4,a3
   14696:	03ee8eb3          	mul	t4,t4,t5
   1469a:	00d3f7b3          	and	a5,t2,a3
   1469e:	0103d393          	srli	t2,t2,0x10
   146a2:	9ebe                	add	t4,t4,a5
   146a4:	01075793          	srli	a5,a4,0x10
   146a8:	03e787b3          	mul	a5,a5,t5
   146ac:	9ea6                	add	t4,t4,s1
   146ae:	010ed713          	srli	a4,t4,0x10
   146b2:	00defeb3          	and	t4,t4,a3
   146b6:	979e                	add	a5,a5,t2
   146b8:	97ba                	add	a5,a5,a4
   146ba:	0107d493          	srli	s1,a5,0x10
   146be:	07c2                	slli	a5,a5,0x10
   146c0:	004f8713          	addi	a4,t6,4
   146c4:	01d7e7b3          	or	a5,a5,t4
   146c8:	fef72e23          	sw	a5,-4(a4) # bffffffc <__BSS_END__+0xbffe1398>
   146cc:	0712e463          	bltu	t0,a7,14734 <__multiply+0x15a>
   146d0:	009fa223          	sw	s1,4(t6)
   146d4:	00265283          	lhu	t0,2(a2)
   146d8:	04028b63          	beqz	t0,1472e <__multiply+0x154>
   146dc:	00082783          	lw	a5,0(a6)
   146e0:	8ec2                	mv	t4,a6
   146e2:	8f2e                	mv	t5,a1
   146e4:	4f81                	li	t6,0
   146e6:	000f2703          	lw	a4,0(t5)
   146ea:	002ed383          	lhu	t2,2(t4)
   146ee:	8ff5                	and	a5,a5,a3
   146f0:	8f75                	and	a4,a4,a3
   146f2:	02570733          	mul	a4,a4,t0
   146f6:	0f11                	addi	t5,t5,4
   146f8:	971e                	add	a4,a4,t2
   146fa:	977e                	add	a4,a4,t6
   146fc:	01071f93          	slli	t6,a4,0x10
   14700:	00ffe7b3          	or	a5,t6,a5
   14704:	004e8393          	addi	t2,t4,4
   14708:	fef3ae23          	sw	a5,-4(t2)
   1470c:	ffef5783          	lhu	a5,-2(t5)
   14710:	004eaf83          	lw	t6,4(t4)
   14714:	8341                	srli	a4,a4,0x10
   14716:	025787b3          	mul	a5,a5,t0
   1471a:	00dfffb3          	and	t6,t6,a3
   1471e:	97fe                	add	a5,a5,t6
   14720:	97ba                	add	a5,a5,a4
   14722:	0107df93          	srli	t6,a5,0x10
   14726:	011f6963          	bltu	t5,a7,14738 <__multiply+0x15e>
   1472a:	00fea223          	sw	a5,4(t4)
   1472e:	0611                	addi	a2,a2,4
   14730:	0811                	addi	a6,a6,4
   14732:	bf31                	j	1464e <__multiply+0x74>
   14734:	8fba                	mv	t6,a4
   14736:	bf89                	j	14688 <__multiply+0xae>
   14738:	8e9e                	mv	t4,t2
   1473a:	b775                	j	146e6 <__multiply+0x10c>
   1473c:	147d                	addi	s0,s0,-1
   1473e:	bf11                	j	14652 <__multiply+0x78>

00014740 <__pow5mult>:
   14740:	1101                	addi	sp,sp,-32
   14742:	ca26                	sw	s1,20(sp)
   14744:	c84a                	sw	s2,16(sp)
   14746:	c64e                	sw	s3,12(sp)
   14748:	ce06                	sw	ra,28(sp)
   1474a:	cc22                	sw	s0,24(sp)
   1474c:	c452                	sw	s4,8(sp)
   1474e:	00367793          	andi	a5,a2,3
   14752:	892a                	mv	s2,a0
   14754:	84b2                	mv	s1,a2
   14756:	89ae                	mv	s3,a1
   14758:	cb99                	beqz	a5,1476e <__pow5mult+0x2e>
   1475a:	17fd                	addi	a5,a5,-1
   1475c:	6771                	lui	a4,0x1c
   1475e:	74070713          	addi	a4,a4,1856 # 1c740 <p05.3265>
   14762:	078a                	slli	a5,a5,0x2
   14764:	97ba                	add	a5,a5,a4
   14766:	4390                	lw	a2,0(a5)
   14768:	4681                	li	a3,0
   1476a:	3939                	jal	14388 <__multadd>
   1476c:	89aa                	mv	s3,a0
   1476e:	8489                	srai	s1,s1,0x2
   14770:	c4b1                	beqz	s1,147bc <__pow5mult+0x7c>
   14772:	04892403          	lw	s0,72(s2)
   14776:	e811                	bnez	s0,1478a <__pow5mult+0x4a>
   14778:	27100593          	li	a1,625
   1477c:	854a                	mv	a0,s2
   1477e:	352d                	jal	145a8 <__i2b>
   14780:	04a92423          	sw	a0,72(s2)
   14784:	842a                	mv	s0,a0
   14786:	00052023          	sw	zero,0(a0)
   1478a:	0014f793          	andi	a5,s1,1
   1478e:	cb91                	beqz	a5,147a2 <__pow5mult+0x62>
   14790:	85ce                	mv	a1,s3
   14792:	8622                	mv	a2,s0
   14794:	854a                	mv	a0,s2
   14796:	3591                	jal	145da <__multiply>
   14798:	8a2a                	mv	s4,a0
   1479a:	85ce                	mv	a1,s3
   1479c:	854a                	mv	a0,s2
   1479e:	3ed9                	jal	14374 <_Bfree>
   147a0:	89d2                	mv	s3,s4
   147a2:	8485                	srai	s1,s1,0x1
   147a4:	cc81                	beqz	s1,147bc <__pow5mult+0x7c>
   147a6:	4008                	lw	a0,0(s0)
   147a8:	e901                	bnez	a0,147b8 <__pow5mult+0x78>
   147aa:	8622                	mv	a2,s0
   147ac:	85a2                	mv	a1,s0
   147ae:	854a                	mv	a0,s2
   147b0:	352d                	jal	145da <__multiply>
   147b2:	c008                	sw	a0,0(s0)
   147b4:	00052023          	sw	zero,0(a0)
   147b8:	842a                	mv	s0,a0
   147ba:	bfc1                	j	1478a <__pow5mult+0x4a>
   147bc:	40f2                	lw	ra,28(sp)
   147be:	4462                	lw	s0,24(sp)
   147c0:	854e                	mv	a0,s3
   147c2:	44d2                	lw	s1,20(sp)
   147c4:	4942                	lw	s2,16(sp)
   147c6:	49b2                	lw	s3,12(sp)
   147c8:	4a22                	lw	s4,8(sp)
   147ca:	6105                	addi	sp,sp,32
   147cc:	8082                	ret

000147ce <__lshift>:
   147ce:	7179                	addi	sp,sp,-48
   147d0:	d226                	sw	s1,36(sp)
   147d2:	84ae                	mv	s1,a1
   147d4:	cc52                	sw	s4,24(sp)
   147d6:	0104aa03          	lw	s4,16(s1)
   147da:	d422                	sw	s0,40(sp)
   147dc:	41cc                	lw	a1,4(a1)
   147de:	40565413          	srai	s0,a2,0x5
   147e2:	449c                	lw	a5,8(s1)
   147e4:	9a22                	add	s4,s4,s0
   147e6:	d04a                	sw	s2,32(sp)
   147e8:	ca56                	sw	s5,20(sp)
   147ea:	d606                	sw	ra,44(sp)
   147ec:	ce4e                	sw	s3,28(sp)
   147ee:	8aaa                	mv	s5,a0
   147f0:	001a0913          	addi	s2,s4,1
   147f4:	0327c363          	blt	a5,s2,1481a <__lshift+0x4c>
   147f8:	8556                	mv	a0,s5
   147fa:	c632                	sw	a2,12(sp)
   147fc:	3e09                	jal	1430e <_Balloc>
   147fe:	89aa                	mv	s3,a0
   14800:	4632                	lw	a2,12(sp)
   14802:	ed19                	bnez	a0,14820 <__lshift+0x52>
   14804:	66f5                	lui	a3,0x1d
   14806:	6575                	lui	a0,0x1d
   14808:	86868693          	addi	a3,a3,-1944 # 1c868 <__mprec_bigtens+0x28>
   1480c:	4601                	li	a2,0
   1480e:	1d900593          	li	a1,473
   14812:	87c50513          	addi	a0,a0,-1924 # 1c87c <__mprec_bigtens+0x3c>
   14816:	6c7020ef          	jal	ra,176dc <__assert_func>
   1481a:	0585                	addi	a1,a1,1
   1481c:	0786                	slli	a5,a5,0x1
   1481e:	bfd9                	j	147f4 <__lshift+0x26>
   14820:	01450793          	addi	a5,a0,20
   14824:	86be                	mv	a3,a5
   14826:	4701                	li	a4,0
   14828:	0691                	addi	a3,a3,4
   1482a:	06874763          	blt	a4,s0,14898 <__lshift+0xca>
   1482e:	00045363          	bgez	s0,14834 <__lshift+0x66>
   14832:	4401                	li	s0,0
   14834:	4894                	lw	a3,16(s1)
   14836:	040a                	slli	s0,s0,0x2
   14838:	00878733          	add	a4,a5,s0
   1483c:	068a                	slli	a3,a3,0x2
   1483e:	01448793          	addi	a5,s1,20
   14842:	8a7d                	andi	a2,a2,31
   14844:	96be                	add	a3,a3,a5
   14846:	ce39                	beqz	a2,148a4 <__lshift+0xd6>
   14848:	02000813          	li	a6,32
   1484c:	40c80833          	sub	a6,a6,a2
   14850:	4581                	li	a1,0
   14852:	4388                	lw	a0,0(a5)
   14854:	00470893          	addi	a7,a4,4
   14858:	0791                	addi	a5,a5,4
   1485a:	00c51533          	sll	a0,a0,a2
   1485e:	8dc9                	or	a1,a1,a0
   14860:	feb8ae23          	sw	a1,-4(a7)
   14864:	ffc7a583          	lw	a1,-4(a5)
   14868:	0105d5b3          	srl	a1,a1,a6
   1486c:	02d7ea63          	bltu	a5,a3,148a0 <__lshift+0xd2>
   14870:	c34c                	sw	a1,4(a4)
   14872:	c199                	beqz	a1,14878 <__lshift+0xaa>
   14874:	002a0913          	addi	s2,s4,2
   14878:	197d                	addi	s2,s2,-1
   1487a:	0129a823          	sw	s2,16(s3)
   1487e:	8556                	mv	a0,s5
   14880:	85a6                	mv	a1,s1
   14882:	3ccd                	jal	14374 <_Bfree>
   14884:	50b2                	lw	ra,44(sp)
   14886:	5422                	lw	s0,40(sp)
   14888:	854e                	mv	a0,s3
   1488a:	5492                	lw	s1,36(sp)
   1488c:	5902                	lw	s2,32(sp)
   1488e:	49f2                	lw	s3,28(sp)
   14890:	4a62                	lw	s4,24(sp)
   14892:	4ad2                	lw	s5,20(sp)
   14894:	6145                	addi	sp,sp,48
   14896:	8082                	ret
   14898:	fe06ae23          	sw	zero,-4(a3)
   1489c:	0705                	addi	a4,a4,1
   1489e:	b769                	j	14828 <__lshift+0x5a>
   148a0:	8746                	mv	a4,a7
   148a2:	bf45                	j	14852 <__lshift+0x84>
   148a4:	0791                	addi	a5,a5,4
   148a6:	ffc7a603          	lw	a2,-4(a5)
   148aa:	0711                	addi	a4,a4,4
   148ac:	fec72e23          	sw	a2,-4(a4)
   148b0:	fed7eae3          	bltu	a5,a3,148a4 <__lshift+0xd6>
   148b4:	b7d1                	j	14878 <__lshift+0xaa>

000148b6 <__mcmp>:
   148b6:	491c                	lw	a5,16(a0)
   148b8:	4998                	lw	a4,16(a1)
   148ba:	8f99                	sub	a5,a5,a4
   148bc:	e38d                	bnez	a5,148de <__mcmp+0x28>
   148be:	070a                	slli	a4,a4,0x2
   148c0:	0551                	addi	a0,a0,20
   148c2:	05d1                	addi	a1,a1,20
   148c4:	00e506b3          	add	a3,a0,a4
   148c8:	95ba                	add	a1,a1,a4
   148ca:	16f1                	addi	a3,a3,-4
   148cc:	15f1                	addi	a1,a1,-4
   148ce:	4290                	lw	a2,0(a3)
   148d0:	4198                	lw	a4,0(a1)
   148d2:	00e60863          	beq	a2,a4,148e2 <__mcmp+0x2c>
   148d6:	57fd                	li	a5,-1
   148d8:	00e66363          	bltu	a2,a4,148de <__mcmp+0x28>
   148dc:	4785                	li	a5,1
   148de:	853e                	mv	a0,a5
   148e0:	8082                	ret
   148e2:	fed564e3          	bltu	a0,a3,148ca <__mcmp+0x14>
   148e6:	bfe5                	j	148de <__mcmp+0x28>

000148e8 <__mdiff>:
   148e8:	1101                	addi	sp,sp,-32
   148ea:	ca26                	sw	s1,20(sp)
   148ec:	84ae                	mv	s1,a1
   148ee:	c64e                	sw	s3,12(sp)
   148f0:	85b2                	mv	a1,a2
   148f2:	89aa                	mv	s3,a0
   148f4:	8526                	mv	a0,s1
   148f6:	cc22                	sw	s0,24(sp)
   148f8:	ce06                	sw	ra,28(sp)
   148fa:	c84a                	sw	s2,16(sp)
   148fc:	8432                	mv	s0,a2
   148fe:	3f65                	jal	148b6 <__mcmp>
   14900:	e91d                	bnez	a0,14936 <__mdiff+0x4e>
   14902:	4581                	li	a1,0
   14904:	854e                	mv	a0,s3
   14906:	3421                	jal	1430e <_Balloc>
   14908:	ed01                	bnez	a0,14920 <__mdiff+0x38>
   1490a:	66f5                	lui	a3,0x1d
   1490c:	86868693          	addi	a3,a3,-1944 # 1c868 <__mprec_bigtens+0x28>
   14910:	4601                	li	a2,0
   14912:	23200593          	li	a1,562
   14916:	6575                	lui	a0,0x1d
   14918:	87c50513          	addi	a0,a0,-1924 # 1c87c <__mprec_bigtens+0x3c>
   1491c:	5c1020ef          	jal	ra,176dc <__assert_func>
   14920:	4785                	li	a5,1
   14922:	c91c                	sw	a5,16(a0)
   14924:	00052a23          	sw	zero,20(a0)
   14928:	40f2                	lw	ra,28(sp)
   1492a:	4462                	lw	s0,24(sp)
   1492c:	44d2                	lw	s1,20(sp)
   1492e:	4942                	lw	s2,16(sp)
   14930:	49b2                	lw	s3,12(sp)
   14932:	6105                	addi	sp,sp,32
   14934:	8082                	ret
   14936:	4905                	li	s2,1
   14938:	00054663          	bltz	a0,14944 <__mdiff+0x5c>
   1493c:	87a2                	mv	a5,s0
   1493e:	4901                	li	s2,0
   14940:	8426                	mv	s0,s1
   14942:	84be                	mv	s1,a5
   14944:	404c                	lw	a1,4(s0)
   14946:	854e                	mv	a0,s3
   14948:	32d9                	jal	1430e <_Balloc>
   1494a:	e901                	bnez	a0,1495a <__mdiff+0x72>
   1494c:	66f5                	lui	a3,0x1d
   1494e:	86868693          	addi	a3,a3,-1944 # 1c868 <__mprec_bigtens+0x28>
   14952:	4601                	li	a2,0
   14954:	24000593          	li	a1,576
   14958:	bf7d                	j	14916 <__mdiff+0x2e>
   1495a:	01042303          	lw	t1,16(s0)
   1495e:	0104a883          	lw	a7,16(s1)
   14962:	01440613          	addi	a2,s0,20
   14966:	00231e13          	slli	t3,t1,0x2
   1496a:	01448813          	addi	a6,s1,20
   1496e:	088a                	slli	a7,a7,0x2
   14970:	6ec1                	lui	t4,0x10
   14972:	01252623          	sw	s2,12(a0)
   14976:	9e32                	add	t3,t3,a2
   14978:	98c2                	add	a7,a7,a6
   1497a:	01450693          	addi	a3,a0,20
   1497e:	4f01                	li	t5,0
   14980:	1efd                	addi	t4,t4,-1
   14982:	4218                	lw	a4,0(a2)
   14984:	00082f83          	lw	t6,0(a6)
   14988:	0691                	addi	a3,a3,4
   1498a:	01d775b3          	and	a1,a4,t4
   1498e:	01dff7b3          	and	a5,t6,t4
   14992:	95fa                	add	a1,a1,t5
   14994:	8d9d                	sub	a1,a1,a5
   14996:	010fdf93          	srli	t6,t6,0x10
   1499a:	01075793          	srli	a5,a4,0x10
   1499e:	41f787b3          	sub	a5,a5,t6
   149a2:	4105d713          	srai	a4,a1,0x10
   149a6:	97ba                	add	a5,a5,a4
   149a8:	4107df13          	srai	t5,a5,0x10
   149ac:	01d5f5b3          	and	a1,a1,t4
   149b0:	07c2                	slli	a5,a5,0x10
   149b2:	8fcd                	or	a5,a5,a1
   149b4:	0811                	addi	a6,a6,4
   149b6:	fef6ae23          	sw	a5,-4(a3)
   149ba:	0611                	addi	a2,a2,4
   149bc:	fd1863e3          	bltu	a6,a7,14982 <__mdiff+0x9a>
   149c0:	65c1                	lui	a1,0x10
   149c2:	15fd                	addi	a1,a1,-1
   149c4:	01c66863          	bltu	a2,t3,149d4 <__mdiff+0xec>
   149c8:	16f1                	addi	a3,a3,-4
   149ca:	429c                	lw	a5,0(a3)
   149cc:	c795                	beqz	a5,149f8 <__mdiff+0x110>
   149ce:	00652823          	sw	t1,16(a0)
   149d2:	bf99                	j	14928 <__mdiff+0x40>
   149d4:	421c                	lw	a5,0(a2)
   149d6:	0691                	addi	a3,a3,4
   149d8:	0611                	addi	a2,a2,4
   149da:	00b7f733          	and	a4,a5,a1
   149de:	977a                	add	a4,a4,t5
   149e0:	41075813          	srai	a6,a4,0x10
   149e4:	83c1                	srli	a5,a5,0x10
   149e6:	97c2                	add	a5,a5,a6
   149e8:	4107df13          	srai	t5,a5,0x10
   149ec:	8f6d                	and	a4,a4,a1
   149ee:	07c2                	slli	a5,a5,0x10
   149f0:	8fd9                	or	a5,a5,a4
   149f2:	fef6ae23          	sw	a5,-4(a3)
   149f6:	b7f9                	j	149c4 <__mdiff+0xdc>
   149f8:	137d                	addi	t1,t1,-1
   149fa:	b7f9                	j	149c8 <__mdiff+0xe0>

000149fc <__ulp>:
   149fc:	1cc1a783          	lw	a5,460(gp) # 1ec04 <__stack_chk_guard>
   14a00:	1101                	addi	sp,sp,-32
   14a02:	ce06                	sw	ra,28(sp)
   14a04:	c63e                	sw	a5,12(sp)
   14a06:	7ff007b7          	lui	a5,0x7ff00
   14a0a:	8dfd                	and	a1,a1,a5
   14a0c:	fcc007b7          	lui	a5,0xfcc00
   14a10:	95be                	add	a1,a1,a5
   14a12:	86ba                	mv	a3,a4
   14a14:	00b05b63          	blez	a1,14a2a <__ulp+0x2e>
   14a18:	4781                	li	a5,0
   14a1a:	853e                	mv	a0,a5
   14a1c:	4732                	lw	a4,12(sp)
   14a1e:	1cc1a783          	lw	a5,460(gp) # 1ec04 <__stack_chk_guard>
   14a22:	02f70c63          	beq	a4,a5,14a5a <__ulp+0x5e>
   14a26:	9bdfb0ef          	jal	ra,103e2 <__stack_chk_fail>
   14a2a:	40b005b3          	neg	a1,a1
   14a2e:	4145d793          	srai	a5,a1,0x14
   14a32:	474d                	li	a4,19
   14a34:	00f74763          	blt	a4,a5,14a42 <__ulp+0x46>
   14a38:	000805b7          	lui	a1,0x80
   14a3c:	40f5d5b3          	sra	a1,a1,a5
   14a40:	bfe1                	j	14a18 <__ulp+0x1c>
   14a42:	17b1                	addi	a5,a5,-20
   14a44:	4679                	li	a2,30
   14a46:	4581                	li	a1,0
   14a48:	4705                	li	a4,1
   14a4a:	00f64663          	blt	a2,a5,14a56 <__ulp+0x5a>
   14a4e:	fff7c793          	not	a5,a5
   14a52:	00f71733          	sll	a4,a4,a5
   14a56:	87ba                	mv	a5,a4
   14a58:	b7c9                	j	14a1a <__ulp+0x1e>
   14a5a:	40f2                	lw	ra,28(sp)
   14a5c:	6105                	addi	sp,sp,32
   14a5e:	8082                	ret

00014a60 <__b2d>:
   14a60:	7139                	addi	sp,sp,-64
   14a62:	da26                	sw	s1,52(sp)
   14a64:	4904                	lw	s1,16(a0)
   14a66:	d64e                	sw	s3,44(sp)
   14a68:	01450993          	addi	s3,a0,20
   14a6c:	048a                	slli	s1,s1,0x2
   14a6e:	94ce                	add	s1,s1,s3
   14a70:	dc22                	sw	s0,56(sp)
   14a72:	d452                	sw	s4,40(sp)
   14a74:	ffc4a403          	lw	s0,-4(s1)
   14a78:	1cc1a783          	lw	a5,460(gp) # 1ec04 <__stack_chk_guard>
   14a7c:	8522                	mv	a0,s0
   14a7e:	d84a                	sw	s2,48(sp)
   14a80:	c62e                	sw	a1,12(sp)
   14a82:	ce3e                	sw	a5,28(sp)
   14a84:	de06                	sw	ra,60(sp)
   14a86:	3c85                	jal	144f6 <__hi0bits>
   14a88:	45b2                	lw	a1,12(sp)
   14a8a:	02000793          	li	a5,32
   14a8e:	8f89                	sub	a5,a5,a0
   14a90:	c19c                	sw	a5,0(a1)
   14a92:	47a9                	li	a5,10
   14a94:	ffc48913          	addi	s2,s1,-4
   14a98:	8652                	mv	a2,s4
   14a9a:	02a7cd63          	blt	a5,a0,14ad4 <__b2d+0x74>
   14a9e:	47ad                	li	a5,11
   14aa0:	8f89                	sub	a5,a5,a0
   14aa2:	3ff00737          	lui	a4,0x3ff00
   14aa6:	00f456b3          	srl	a3,s0,a5
   14aaa:	8ed9                	or	a3,a3,a4
   14aac:	4701                	li	a4,0
   14aae:	0129f463          	bgeu	s3,s2,14ab6 <__b2d+0x56>
   14ab2:	ff84a703          	lw	a4,-8(s1)
   14ab6:	0555                	addi	a0,a0,21
   14ab8:	00a41533          	sll	a0,s0,a0
   14abc:	00f757b3          	srl	a5,a4,a5
   14ac0:	8fc9                	or	a5,a5,a0
   14ac2:	853e                	mv	a0,a5
   14ac4:	4772                	lw	a4,28(sp)
   14ac6:	1cc1a783          	lw	a5,460(gp) # 1ec04 <__stack_chk_guard>
   14aca:	85b6                	mv	a1,a3
   14acc:	04f70863          	beq	a4,a5,14b1c <__b2d+0xbc>
   14ad0:	913fb0ef          	jal	ra,103e2 <__stack_chk_fail>
   14ad4:	4781                	li	a5,0
   14ad6:	0129f663          	bgeu	s3,s2,14ae2 <__b2d+0x82>
   14ada:	ff84a783          	lw	a5,-8(s1)
   14ade:	ff848913          	addi	s2,s1,-8
   14ae2:	1555                	addi	a0,a0,-11
   14ae4:	c905                	beqz	a0,14b14 <__b2d+0xb4>
   14ae6:	02000713          	li	a4,32
   14aea:	40a705b3          	sub	a1,a4,a0
   14aee:	00a41433          	sll	s0,s0,a0
   14af2:	3ff00737          	lui	a4,0x3ff00
   14af6:	8c59                	or	s0,s0,a4
   14af8:	00b7d6b3          	srl	a3,a5,a1
   14afc:	8ec1                	or	a3,a3,s0
   14afe:	4701                	li	a4,0
   14b00:	0129f463          	bgeu	s3,s2,14b08 <__b2d+0xa8>
   14b04:	ffc92703          	lw	a4,-4(s2)
   14b08:	00a797b3          	sll	a5,a5,a0
   14b0c:	00b75733          	srl	a4,a4,a1
   14b10:	8fd9                	or	a5,a5,a4
   14b12:	bf45                	j	14ac2 <__b2d+0x62>
   14b14:	3ff006b7          	lui	a3,0x3ff00
   14b18:	8ec1                	or	a3,a3,s0
   14b1a:	b765                	j	14ac2 <__b2d+0x62>
   14b1c:	50f2                	lw	ra,60(sp)
   14b1e:	5462                	lw	s0,56(sp)
   14b20:	54d2                	lw	s1,52(sp)
   14b22:	5942                	lw	s2,48(sp)
   14b24:	59b2                	lw	s3,44(sp)
   14b26:	5a22                	lw	s4,40(sp)
   14b28:	6121                	addi	sp,sp,64
   14b2a:	8082                	ret

00014b2c <__d2b>:
   14b2c:	7179                	addi	sp,sp,-48
   14b2e:	ce4e                	sw	s3,28(sp)
   14b30:	1cc1a783          	lw	a5,460(gp) # 1ec04 <__stack_chk_guard>
   14b34:	d422                	sw	s0,40(sp)
   14b36:	842e                	mv	s0,a1
   14b38:	4585                	li	a1,1
   14b3a:	d226                	sw	s1,36(sp)
   14b3c:	cc52                	sw	s4,24(sp)
   14b3e:	ca56                	sw	s5,20(sp)
   14b40:	d606                	sw	ra,44(sp)
   14b42:	d04a                	sw	s2,32(sp)
   14b44:	84b2                	mv	s1,a2
   14b46:	8ab6                	mv	s5,a3
   14b48:	8a3a                	mv	s4,a4
   14b4a:	c63e                	sw	a5,12(sp)
   14b4c:	fc2ff0ef          	jal	ra,1430e <_Balloc>
   14b50:	ed01                	bnez	a0,14b68 <__d2b+0x3c>
   14b52:	66f5                	lui	a3,0x1d
   14b54:	6575                	lui	a0,0x1d
   14b56:	86868693          	addi	a3,a3,-1944 # 1c868 <__mprec_bigtens+0x28>
   14b5a:	4601                	li	a2,0
   14b5c:	30a00593          	li	a1,778
   14b60:	87c50513          	addi	a0,a0,-1924 # 1c87c <__mprec_bigtens+0x3c>
   14b64:	379020ef          	jal	ra,176dc <__assert_func>
   14b68:	00100737          	lui	a4,0x100
   14b6c:	fff70793          	addi	a5,a4,-1 # fffff <__BSS_END__+0xe139b>
   14b70:	8fe5                	and	a5,a5,s1
   14b72:	80d1                	srli	s1,s1,0x14
   14b74:	7ff4f493          	andi	s1,s1,2047
   14b78:	892a                	mv	s2,a0
   14b7a:	e0a5                	bnez	s1,14bda <__d2b+0xae>
   14b7c:	c43e                	sw	a5,8(sp)
   14b7e:	c03d                	beqz	s0,14be4 <__d2b+0xb8>
   14b80:	0048                	addi	a0,sp,4
   14b82:	c222                	sw	s0,4(sp)
   14b84:	3a6d                	jal	1453e <__lo0bits>
   14b86:	4692                	lw	a3,4(sp)
   14b88:	c939                	beqz	a0,14bde <__d2b+0xb2>
   14b8a:	4722                	lw	a4,8(sp)
   14b8c:	02000793          	li	a5,32
   14b90:	8f89                	sub	a5,a5,a0
   14b92:	00f717b3          	sll	a5,a4,a5
   14b96:	8fd5                	or	a5,a5,a3
   14b98:	00a75733          	srl	a4,a4,a0
   14b9c:	00f92a23          	sw	a5,20(s2)
   14ba0:	c43a                	sw	a4,8(sp)
   14ba2:	4422                	lw	s0,8(sp)
   14ba4:	00892c23          	sw	s0,24(s2)
   14ba8:	00803433          	snez	s0,s0
   14bac:	0405                	addi	s0,s0,1
   14bae:	00892823          	sw	s0,16(s2)
   14bb2:	c4a9                	beqz	s1,14bfc <__d2b+0xd0>
   14bb4:	bcd48493          	addi	s1,s1,-1075
   14bb8:	94aa                	add	s1,s1,a0
   14bba:	03500793          	li	a5,53
   14bbe:	009aa023          	sw	s1,0(s5)
   14bc2:	40a78533          	sub	a0,a5,a0
   14bc6:	00aa2023          	sw	a0,0(s4)
   14bca:	4732                	lw	a4,12(sp)
   14bcc:	1cc1a783          	lw	a5,460(gp) # 1ec04 <__stack_chk_guard>
   14bd0:	854a                	mv	a0,s2
   14bd2:	04f70363          	beq	a4,a5,14c18 <__d2b+0xec>
   14bd6:	80dfb0ef          	jal	ra,103e2 <__stack_chk_fail>
   14bda:	8fd9                	or	a5,a5,a4
   14bdc:	b745                	j	14b7c <__d2b+0x50>
   14bde:	00d92a23          	sw	a3,20(s2)
   14be2:	b7c1                	j	14ba2 <__d2b+0x76>
   14be4:	0028                	addi	a0,sp,8
   14be6:	3aa1                	jal	1453e <__lo0bits>
   14be8:	47a2                	lw	a5,8(sp)
   14bea:	02050513          	addi	a0,a0,32
   14bee:	4405                	li	s0,1
   14bf0:	00f92a23          	sw	a5,20(s2)
   14bf4:	4785                	li	a5,1
   14bf6:	00f92823          	sw	a5,16(s2)
   14bfa:	bf65                	j	14bb2 <__d2b+0x86>
   14bfc:	00241793          	slli	a5,s0,0x2
   14c00:	bce50513          	addi	a0,a0,-1074
   14c04:	97ca                	add	a5,a5,s2
   14c06:	00aaa023          	sw	a0,0(s5)
   14c0a:	4b88                	lw	a0,16(a5)
   14c0c:	0416                	slli	s0,s0,0x5
   14c0e:	30e5                	jal	144f6 <__hi0bits>
   14c10:	8c09                	sub	s0,s0,a0
   14c12:	008a2023          	sw	s0,0(s4)
   14c16:	bf55                	j	14bca <__d2b+0x9e>
   14c18:	50b2                	lw	ra,44(sp)
   14c1a:	5422                	lw	s0,40(sp)
   14c1c:	5492                	lw	s1,36(sp)
   14c1e:	5902                	lw	s2,32(sp)
   14c20:	49f2                	lw	s3,28(sp)
   14c22:	4a62                	lw	s4,24(sp)
   14c24:	4ad2                	lw	s5,20(sp)
   14c26:	6145                	addi	sp,sp,48
   14c28:	8082                	ret

00014c2a <__ratio>:
   14c2a:	7179                	addi	sp,sp,-48
   14c2c:	d422                	sw	s0,40(sp)
   14c2e:	1cc1a783          	lw	a5,460(gp) # 1ec04 <__stack_chk_guard>
   14c32:	ce4e                	sw	s3,28(sp)
   14c34:	89ae                	mv	s3,a1
   14c36:	004c                	addi	a1,sp,4
   14c38:	c63e                	sw	a5,12(sp)
   14c3a:	d606                	sw	ra,44(sp)
   14c3c:	d226                	sw	s1,36(sp)
   14c3e:	d04a                	sw	s2,32(sp)
   14c40:	cc52                	sw	s4,24(sp)
   14c42:	ca56                	sw	s5,20(sp)
   14c44:	8aaa                	mv	s5,a0
   14c46:	3d29                	jal	14a60 <__b2d>
   14c48:	8a2a                	mv	s4,a0
   14c4a:	892e                	mv	s2,a1
   14c4c:	84ae                	mv	s1,a1
   14c4e:	854e                	mv	a0,s3
   14c50:	002c                	addi	a1,sp,8
   14c52:	3539                	jal	14a60 <__b2d>
   14c54:	0109a783          	lw	a5,16(s3)
   14c58:	010aa703          	lw	a4,16(s5)
   14c5c:	4692                	lw	a3,4(sp)
   14c5e:	8f1d                	sub	a4,a4,a5
   14c60:	47a2                	lw	a5,8(sp)
   14c62:	0716                	slli	a4,a4,0x5
   14c64:	8e9d                	sub	a3,a3,a5
   14c66:	00d707b3          	add	a5,a4,a3
   14c6a:	02f05463          	blez	a5,14c92 <__ratio+0x68>
   14c6e:	07d2                	slli	a5,a5,0x14
   14c70:	862e                	mv	a2,a1
   14c72:	012784b3          	add	s1,a5,s2
   14c76:	8732                	mv	a4,a2
   14c78:	86ba                	mv	a3,a4
   14c7a:	862a                	mv	a2,a0
   14c7c:	85a6                	mv	a1,s1
   14c7e:	8552                	mv	a0,s4
   14c80:	0f3040ef          	jal	ra,19572 <__divdf3>
   14c84:	4732                	lw	a4,12(sp)
   14c86:	1cc1a783          	lw	a5,460(gp) # 1ec04 <__stack_chk_guard>
   14c8a:	00f70b63          	beq	a4,a5,14ca0 <__ratio+0x76>
   14c8e:	f54fb0ef          	jal	ra,103e2 <__stack_chk_fail>
   14c92:	fff00737          	lui	a4,0xfff00
   14c96:	02e787b3          	mul	a5,a5,a4
   14c9a:	00b78633          	add	a2,a5,a1
   14c9e:	bfe1                	j	14c76 <__ratio+0x4c>
   14ca0:	50b2                	lw	ra,44(sp)
   14ca2:	5422                	lw	s0,40(sp)
   14ca4:	5492                	lw	s1,36(sp)
   14ca6:	5902                	lw	s2,32(sp)
   14ca8:	49f2                	lw	s3,28(sp)
   14caa:	4a62                	lw	s4,24(sp)
   14cac:	4ad2                	lw	s5,20(sp)
   14cae:	6145                	addi	sp,sp,48
   14cb0:	8082                	ret

00014cb2 <_mprec_log10>:
   14cb2:	1141                	addi	sp,sp,-16
   14cb4:	c422                	sw	s0,8(sp)
   14cb6:	c606                	sw	ra,12(sp)
   14cb8:	c24a                	sw	s2,4(sp)
   14cba:	c04e                	sw	s3,0(sp)
   14cbc:	47dd                	li	a5,23
   14cbe:	842a                	mv	s0,a0
   14cc0:	02a7c063          	blt	a5,a0,14ce0 <_mprec_log10+0x2e>
   14cc4:	67f1                	lui	a5,0x1c
   14cc6:	00351413          	slli	s0,a0,0x3
   14cca:	74078793          	addi	a5,a5,1856 # 1c740 <p05.3265>
   14cce:	943e                	add	s0,s0,a5
   14cd0:	4808                	lw	a0,16(s0)
   14cd2:	484c                	lw	a1,20(s0)
   14cd4:	40b2                	lw	ra,12(sp)
   14cd6:	4422                	lw	s0,8(sp)
   14cd8:	4912                	lw	s2,4(sp)
   14cda:	4982                	lw	s3,0(sp)
   14cdc:	0141                	addi	sp,sp,16
   14cde:	8082                	ret
   14ce0:	1a01a503          	lw	a0,416(gp) # 1ebd8 <__SDATA_BEGIN__>
   14ce4:	1a41a583          	lw	a1,420(gp) # 1ebdc <__SDATA_BEGIN__+0x4>
   14ce8:	1a81a903          	lw	s2,424(gp) # 1ebe0 <__SDATA_BEGIN__+0x8>
   14cec:	1ac1a983          	lw	s3,428(gp) # 1ebe4 <__SDATA_BEGIN__+0xc>
   14cf0:	864a                	mv	a2,s2
   14cf2:	86ce                	mv	a3,s3
   14cf4:	147d                	addi	s0,s0,-1
   14cf6:	5a9040ef          	jal	ra,19a9e <__muldf3>
   14cfa:	f87d                	bnez	s0,14cf0 <_mprec_log10+0x3e>
   14cfc:	bfe1                	j	14cd4 <_mprec_log10+0x22>

00014cfe <__copybits>:
   14cfe:	fff58793          	addi	a5,a1,-1 # 7ffff <__BSS_END__+0x6139b>
   14d02:	4a18                	lw	a4,16(a2)
   14d04:	8795                	srai	a5,a5,0x5
   14d06:	0785                	addi	a5,a5,1
   14d08:	078a                	slli	a5,a5,0x2
   14d0a:	01460693          	addi	a3,a2,20
   14d0e:	070a                	slli	a4,a4,0x2
   14d10:	97aa                	add	a5,a5,a0
   14d12:	9736                	add	a4,a4,a3
   14d14:	00e6e563          	bltu	a3,a4,14d1e <__copybits+0x20>
   14d18:	00f56a63          	bltu	a0,a5,14d2c <__copybits+0x2e>
   14d1c:	8082                	ret
   14d1e:	0691                	addi	a3,a3,4
   14d20:	ffc6a603          	lw	a2,-4(a3)
   14d24:	0511                	addi	a0,a0,4
   14d26:	fec52e23          	sw	a2,-4(a0)
   14d2a:	b7ed                	j	14d14 <__copybits+0x16>
   14d2c:	0511                	addi	a0,a0,4
   14d2e:	fe052e23          	sw	zero,-4(a0)
   14d32:	b7dd                	j	14d18 <__copybits+0x1a>

00014d34 <__any_on>:
   14d34:	4914                	lw	a3,16(a0)
   14d36:	4055d793          	srai	a5,a1,0x5
   14d3a:	01450713          	addi	a4,a0,20
   14d3e:	02f6c763          	blt	a3,a5,14d6c <__any_on+0x38>
   14d42:	00d7df63          	bge	a5,a3,14d60 <__any_on+0x2c>
   14d46:	89fd                	andi	a1,a1,31
   14d48:	cd81                	beqz	a1,14d60 <__any_on+0x2c>
   14d4a:	00279693          	slli	a3,a5,0x2
   14d4e:	96ba                	add	a3,a3,a4
   14d50:	4290                	lw	a2,0(a3)
   14d52:	4505                	li	a0,1
   14d54:	00b656b3          	srl	a3,a2,a1
   14d58:	00b695b3          	sll	a1,a3,a1
   14d5c:	00b61e63          	bne	a2,a1,14d78 <__any_on+0x44>
   14d60:	078a                	slli	a5,a5,0x2
   14d62:	97ba                	add	a5,a5,a4
   14d64:	00f76663          	bltu	a4,a5,14d70 <__any_on+0x3c>
   14d68:	4501                	li	a0,0
   14d6a:	8082                	ret
   14d6c:	87b6                	mv	a5,a3
   14d6e:	bfcd                	j	14d60 <__any_on+0x2c>
   14d70:	17f1                	addi	a5,a5,-4
   14d72:	4394                	lw	a3,0(a5)
   14d74:	dae5                	beqz	a3,14d64 <__any_on+0x30>
   14d76:	4505                	li	a0,1
   14d78:	8082                	ret

00014d7a <cleanup_glue>:
   14d7a:	1141                	addi	sp,sp,-16
   14d7c:	c422                	sw	s0,8(sp)
   14d7e:	842e                	mv	s0,a1
   14d80:	418c                	lw	a1,0(a1)
   14d82:	c226                	sw	s1,4(sp)
   14d84:	c606                	sw	ra,12(sp)
   14d86:	84aa                	mv	s1,a0
   14d88:	c191                	beqz	a1,14d8c <cleanup_glue+0x12>
   14d8a:	3fc5                	jal	14d7a <cleanup_glue>
   14d8c:	85a2                	mv	a1,s0
   14d8e:	4422                	lw	s0,8(sp)
   14d90:	40b2                	lw	ra,12(sp)
   14d92:	8526                	mv	a0,s1
   14d94:	4492                	lw	s1,4(sp)
   14d96:	0141                	addi	sp,sp,16
   14d98:	b70fd06f          	j	12108 <_free_r>

00014d9c <_reclaim_reent>:
   14d9c:	1c01a783          	lw	a5,448(gp) # 1ebf8 <_impure_ptr>
   14da0:	08a78f63          	beq	a5,a0,14e3e <_reclaim_reent+0xa2>
   14da4:	457c                	lw	a5,76(a0)
   14da6:	1101                	addi	sp,sp,-32
   14da8:	cc22                	sw	s0,24(sp)
   14daa:	ca26                	sw	s1,20(sp)
   14dac:	c84a                	sw	s2,16(sp)
   14dae:	ce06                	sw	ra,28(sp)
   14db0:	c64e                	sw	s3,12(sp)
   14db2:	842a                	mv	s0,a0
   14db4:	4481                	li	s1,0
   14db6:	08000913          	li	s2,128
   14dba:	eb85                	bnez	a5,14dea <_reclaim_reent+0x4e>
   14dbc:	402c                	lw	a1,64(s0)
   14dbe:	c581                	beqz	a1,14dc6 <_reclaim_reent+0x2a>
   14dc0:	8522                	mv	a0,s0
   14dc2:	b46fd0ef          	jal	ra,12108 <_free_r>
   14dc6:	14842583          	lw	a1,328(s0)
   14dca:	cd95                	beqz	a1,14e06 <_reclaim_reent+0x6a>
   14dcc:	14c40493          	addi	s1,s0,332
   14dd0:	02958b63          	beq	a1,s1,14e06 <_reclaim_reent+0x6a>
   14dd4:	0005a903          	lw	s2,0(a1)
   14dd8:	8522                	mv	a0,s0
   14dda:	b2efd0ef          	jal	ra,12108 <_free_r>
   14dde:	85ca                	mv	a1,s2
   14de0:	bfc5                	j	14dd0 <_reclaim_reent+0x34>
   14de2:	95a6                	add	a1,a1,s1
   14de4:	418c                	lw	a1,0(a1)
   14de6:	e989                	bnez	a1,14df8 <_reclaim_reent+0x5c>
   14de8:	0491                	addi	s1,s1,4
   14dea:	446c                	lw	a1,76(s0)
   14dec:	ff249be3          	bne	s1,s2,14de2 <_reclaim_reent+0x46>
   14df0:	8522                	mv	a0,s0
   14df2:	b16fd0ef          	jal	ra,12108 <_free_r>
   14df6:	b7d9                	j	14dbc <_reclaim_reent+0x20>
   14df8:	0005a983          	lw	s3,0(a1)
   14dfc:	8522                	mv	a0,s0
   14dfe:	b0afd0ef          	jal	ra,12108 <_free_r>
   14e02:	85ce                	mv	a1,s3
   14e04:	b7cd                	j	14de6 <_reclaim_reent+0x4a>
   14e06:	486c                	lw	a1,84(s0)
   14e08:	c581                	beqz	a1,14e10 <_reclaim_reent+0x74>
   14e0a:	8522                	mv	a0,s0
   14e0c:	afcfd0ef          	jal	ra,12108 <_free_r>
   14e10:	5c1c                	lw	a5,56(s0)
   14e12:	cf99                	beqz	a5,14e30 <_reclaim_reent+0x94>
   14e14:	5c5c                	lw	a5,60(s0)
   14e16:	8522                	mv	a0,s0
   14e18:	9782                	jalr	a5
   14e1a:	2e042583          	lw	a1,736(s0)
   14e1e:	c989                	beqz	a1,14e30 <_reclaim_reent+0x94>
   14e20:	8522                	mv	a0,s0
   14e22:	4462                	lw	s0,24(sp)
   14e24:	40f2                	lw	ra,28(sp)
   14e26:	44d2                	lw	s1,20(sp)
   14e28:	4942                	lw	s2,16(sp)
   14e2a:	49b2                	lw	s3,12(sp)
   14e2c:	6105                	addi	sp,sp,32
   14e2e:	b7b1                	j	14d7a <cleanup_glue>
   14e30:	40f2                	lw	ra,28(sp)
   14e32:	4462                	lw	s0,24(sp)
   14e34:	44d2                	lw	s1,20(sp)
   14e36:	4942                	lw	s2,16(sp)
   14e38:	49b2                	lw	s3,12(sp)
   14e3a:	6105                	addi	sp,sp,32
   14e3c:	8082                	ret
   14e3e:	8082                	ret

00014e40 <_sbrk_r>:
   14e40:	1141                	addi	sp,sp,-16
   14e42:	c422                	sw	s0,8(sp)
   14e44:	c226                	sw	s1,4(sp)
   14e46:	84aa                	mv	s1,a0
   14e48:	852e                	mv	a0,a1
   14e4a:	c606                	sw	ra,12(sp)
   14e4c:	2201a423          	sw	zero,552(gp) # 1ec60 <errno>
   14e50:	777030ef          	jal	ra,18dc6 <_sbrk>
   14e54:	57fd                	li	a5,-1
   14e56:	00f51663          	bne	a0,a5,14e62 <_sbrk_r+0x22>
   14e5a:	2281a783          	lw	a5,552(gp) # 1ec60 <errno>
   14e5e:	c391                	beqz	a5,14e62 <_sbrk_r+0x22>
   14e60:	c09c                	sw	a5,0(s1)
   14e62:	40b2                	lw	ra,12(sp)
   14e64:	4422                	lw	s0,8(sp)
   14e66:	4492                	lw	s1,4(sp)
   14e68:	0141                	addi	sp,sp,16
   14e6a:	8082                	ret

00014e6c <frexp>:
   14e6c:	1141                	addi	sp,sp,-16
   14e6e:	c226                	sw	s1,4(sp)
   14e70:	800004b7          	lui	s1,0x80000
   14e74:	c422                	sw	s0,8(sp)
   14e76:	c606                	sw	ra,12(sp)
   14e78:	fff4c493          	not	s1,s1
   14e7c:	00b4f733          	and	a4,s1,a1
   14e80:	00062023          	sw	zero,0(a2)
   14e84:	7ff00837          	lui	a6,0x7ff00
   14e88:	86aa                	mv	a3,a0
   14e8a:	87ae                	mv	a5,a1
   14e8c:	8432                	mv	s0,a2
   14e8e:	05075563          	bge	a4,a6,14ed8 <frexp+0x6c>
   14e92:	00a76833          	or	a6,a4,a0
   14e96:	04080163          	beqz	a6,14ed8 <frexp+0x6c>
   14e9a:	001007b7          	lui	a5,0x100
   14e9e:	862e                	mv	a2,a1
   14ea0:	00f75f63          	bge	a4,a5,14ebe <frexp+0x52>
   14ea4:	1b01a603          	lw	a2,432(gp) # 1ebe8 <__SDATA_BEGIN__+0x10>
   14ea8:	1b41a683          	lw	a3,436(gp) # 1ebec <__SDATA_BEGIN__+0x14>
   14eac:	3f3040ef          	jal	ra,19a9e <__muldf3>
   14eb0:	fca00793          	li	a5,-54
   14eb4:	86aa                	mv	a3,a0
   14eb6:	862e                	mv	a2,a1
   14eb8:	00b4f733          	and	a4,s1,a1
   14ebc:	c01c                	sw	a5,0(s0)
   14ebe:	401c                	lw	a5,0(s0)
   14ec0:	8751                	srai	a4,a4,0x14
   14ec2:	c0270713          	addi	a4,a4,-1022 # ffeffc02 <__BSS_END__+0xffee0f9e>
   14ec6:	973e                	add	a4,a4,a5
   14ec8:	801007b7          	lui	a5,0x80100
   14ecc:	17fd                	addi	a5,a5,-1
   14ece:	8e7d                	and	a2,a2,a5
   14ed0:	3fe007b7          	lui	a5,0x3fe00
   14ed4:	c018                	sw	a4,0(s0)
   14ed6:	8fd1                	or	a5,a5,a2
   14ed8:	40b2                	lw	ra,12(sp)
   14eda:	4422                	lw	s0,8(sp)
   14edc:	4492                	lw	s1,4(sp)
   14ede:	8536                	mv	a0,a3
   14ee0:	85be                	mv	a1,a5
   14ee2:	0141                	addi	sp,sp,16
   14ee4:	8082                	ret

00014ee6 <_init_signal_r>:
   14ee6:	2dc52703          	lw	a4,732(a0)
   14eea:	eb15                	bnez	a4,14f1e <_init_signal_r+0x38>
   14eec:	1141                	addi	sp,sp,-16
   14eee:	08000593          	li	a1,128
   14ef2:	c422                	sw	s0,8(sp)
   14ef4:	c606                	sw	ra,12(sp)
   14ef6:	842a                	mv	s0,a0
   14ef8:	d65fe0ef          	jal	ra,13c5c <_malloc_r>
   14efc:	2ca42e23          	sw	a0,732(s0)
   14f00:	57fd                	li	a5,-1
   14f02:	c909                	beqz	a0,14f14 <_init_signal_r+0x2e>
   14f04:	08050793          	addi	a5,a0,128
   14f08:	00052023          	sw	zero,0(a0)
   14f0c:	0511                	addi	a0,a0,4
   14f0e:	fef51de3          	bne	a0,a5,14f08 <_init_signal_r+0x22>
   14f12:	4781                	li	a5,0
   14f14:	40b2                	lw	ra,12(sp)
   14f16:	4422                	lw	s0,8(sp)
   14f18:	853e                	mv	a0,a5
   14f1a:	0141                	addi	sp,sp,16
   14f1c:	8082                	ret
   14f1e:	4781                	li	a5,0
   14f20:	853e                	mv	a0,a5
   14f22:	8082                	ret

00014f24 <_signal_r>:
   14f24:	1141                	addi	sp,sp,-16
   14f26:	c226                	sw	s1,4(sp)
   14f28:	c606                	sw	ra,12(sp)
   14f2a:	c422                	sw	s0,8(sp)
   14f2c:	c04a                	sw	s2,0(sp)
   14f2e:	477d                	li	a4,31
   14f30:	84aa                	mv	s1,a0
   14f32:	00b77663          	bgeu	a4,a1,14f3e <_signal_r+0x1a>
   14f36:	4759                	li	a4,22
   14f38:	c118                	sw	a4,0(a0)
   14f3a:	557d                	li	a0,-1
   14f3c:	a831                	j	14f58 <_signal_r+0x34>
   14f3e:	2dc52783          	lw	a5,732(a0)
   14f42:	8932                	mv	s2,a2
   14f44:	842e                	mv	s0,a1
   14f46:	cf99                	beqz	a5,14f64 <_signal_r+0x40>
   14f48:	00241593          	slli	a1,s0,0x2
   14f4c:	2dc4a403          	lw	s0,732(s1) # 800002dc <__BSS_END__+0x7ffe1678>
   14f50:	95a2                	add	a1,a1,s0
   14f52:	4188                	lw	a0,0(a1)
   14f54:	0125a023          	sw	s2,0(a1)
   14f58:	40b2                	lw	ra,12(sp)
   14f5a:	4422                	lw	s0,8(sp)
   14f5c:	4492                	lw	s1,4(sp)
   14f5e:	4902                	lw	s2,0(sp)
   14f60:	0141                	addi	sp,sp,16
   14f62:	8082                	ret
   14f64:	3749                	jal	14ee6 <_init_signal_r>
   14f66:	d16d                	beqz	a0,14f48 <_signal_r+0x24>
   14f68:	bfc9                	j	14f3a <_signal_r+0x16>

00014f6a <_raise_r>:
   14f6a:	47fd                	li	a5,31
   14f6c:	00b7f663          	bgeu	a5,a1,14f78 <_raise_r+0xe>
   14f70:	47d9                	li	a5,22
   14f72:	c11c                	sw	a5,0(a0)
   14f74:	557d                	li	a0,-1
   14f76:	8082                	ret
   14f78:	2dc52783          	lw	a5,732(a0)
   14f7c:	1101                	addi	sp,sp,-32
   14f7e:	cc22                	sw	s0,24(sp)
   14f80:	ce06                	sw	ra,28(sp)
   14f82:	862e                	mv	a2,a1
   14f84:	842a                	mv	s0,a0
   14f86:	c791                	beqz	a5,14f92 <_raise_r+0x28>
   14f88:	00259713          	slli	a4,a1,0x2
   14f8c:	97ba                	add	a5,a5,a4
   14f8e:	4398                	lw	a4,0(a5)
   14f90:	eb19                	bnez	a4,14fa6 <_raise_r+0x3c>
   14f92:	8522                	mv	a0,s0
   14f94:	c632                	sw	a2,12(sp)
   14f96:	28f9                	jal	15074 <_getpid_r>
   14f98:	85aa                	mv	a1,a0
   14f9a:	8522                	mv	a0,s0
   14f9c:	4462                	lw	s0,24(sp)
   14f9e:	4632                	lw	a2,12(sp)
   14fa0:	40f2                	lw	ra,28(sp)
   14fa2:	6105                	addi	sp,sp,32
   14fa4:	a04d                	j	15046 <_kill_r>
   14fa6:	4685                	li	a3,1
   14fa8:	4501                	li	a0,0
   14faa:	00d70863          	beq	a4,a3,14fba <_raise_r+0x50>
   14fae:	56fd                	li	a3,-1
   14fb0:	00d71963          	bne	a4,a3,14fc2 <_raise_r+0x58>
   14fb4:	47d9                	li	a5,22
   14fb6:	c01c                	sw	a5,0(s0)
   14fb8:	4505                	li	a0,1
   14fba:	40f2                	lw	ra,28(sp)
   14fbc:	4462                	lw	s0,24(sp)
   14fbe:	6105                	addi	sp,sp,32
   14fc0:	8082                	ret
   14fc2:	852e                	mv	a0,a1
   14fc4:	0007a023          	sw	zero,0(a5) # 3fe00000 <__BSS_END__+0x3fde139c>
   14fc8:	9702                	jalr	a4
   14fca:	4501                	li	a0,0
   14fcc:	b7fd                	j	14fba <_raise_r+0x50>

00014fce <__sigtramp_r>:
   14fce:	47fd                	li	a5,31
   14fd0:	00b7f463          	bgeu	a5,a1,14fd8 <__sigtramp_r+0xa>
   14fd4:	557d                	li	a0,-1
   14fd6:	8082                	ret
   14fd8:	2dc52783          	lw	a5,732(a0)
   14fdc:	1141                	addi	sp,sp,-16
   14fde:	c422                	sw	s0,8(sp)
   14fe0:	c226                	sw	s1,4(sp)
   14fe2:	c606                	sw	ra,12(sp)
   14fe4:	84aa                	mv	s1,a0
   14fe6:	842e                	mv	s0,a1
   14fe8:	c79d                	beqz	a5,15016 <__sigtramp_r+0x48>
   14fea:	2dc4a783          	lw	a5,732(s1)
   14fee:	00241713          	slli	a4,s0,0x2
   14ff2:	4505                	li	a0,1
   14ff4:	973e                	add	a4,a4,a5
   14ff6:	431c                	lw	a5,0(a4)
   14ff8:	c395                	beqz	a5,1501c <__sigtramp_r+0x4e>
   14ffa:	56fd                	li	a3,-1
   14ffc:	4509                	li	a0,2
   14ffe:	00d78f63          	beq	a5,a3,1501c <__sigtramp_r+0x4e>
   15002:	4685                	li	a3,1
   15004:	450d                	li	a0,3
   15006:	00d78b63          	beq	a5,a3,1501c <__sigtramp_r+0x4e>
   1500a:	8522                	mv	a0,s0
   1500c:	00072023          	sw	zero,0(a4)
   15010:	9782                	jalr	a5
   15012:	4501                	li	a0,0
   15014:	a021                	j	1501c <__sigtramp_r+0x4e>
   15016:	3dc1                	jal	14ee6 <_init_signal_r>
   15018:	d969                	beqz	a0,14fea <__sigtramp_r+0x1c>
   1501a:	557d                	li	a0,-1
   1501c:	40b2                	lw	ra,12(sp)
   1501e:	4422                	lw	s0,8(sp)
   15020:	4492                	lw	s1,4(sp)
   15022:	0141                	addi	sp,sp,16
   15024:	8082                	ret

00015026 <raise>:
   15026:	85aa                	mv	a1,a0
   15028:	1c01a503          	lw	a0,448(gp) # 1ebf8 <_impure_ptr>
   1502c:	bf3d                	j	14f6a <_raise_r>

0001502e <signal>:
   1502e:	862e                	mv	a2,a1
   15030:	85aa                	mv	a1,a0
   15032:	1c01a503          	lw	a0,448(gp) # 1ebf8 <_impure_ptr>
   15036:	b5fd                	j	14f24 <_signal_r>

00015038 <_init_signal>:
   15038:	1c01a503          	lw	a0,448(gp) # 1ebf8 <_impure_ptr>
   1503c:	b56d                	j	14ee6 <_init_signal_r>

0001503e <__sigtramp>:
   1503e:	85aa                	mv	a1,a0
   15040:	1c01a503          	lw	a0,448(gp) # 1ebf8 <_impure_ptr>
   15044:	b769                	j	14fce <__sigtramp_r>

00015046 <_kill_r>:
   15046:	1141                	addi	sp,sp,-16
   15048:	c422                	sw	s0,8(sp)
   1504a:	c226                	sw	s1,4(sp)
   1504c:	84aa                	mv	s1,a0
   1504e:	852e                	mv	a0,a1
   15050:	85b2                	mv	a1,a2
   15052:	c606                	sw	ra,12(sp)
   15054:	2201a423          	sw	zero,552(gp) # 1ec60 <errno>
   15058:	501030ef          	jal	ra,18d58 <_kill>
   1505c:	57fd                	li	a5,-1
   1505e:	00f51663          	bne	a0,a5,1506a <_kill_r+0x24>
   15062:	2281a783          	lw	a5,552(gp) # 1ec60 <errno>
   15066:	c391                	beqz	a5,1506a <_kill_r+0x24>
   15068:	c09c                	sw	a5,0(s1)
   1506a:	40b2                	lw	ra,12(sp)
   1506c:	4422                	lw	s0,8(sp)
   1506e:	4492                	lw	s1,4(sp)
   15070:	0141                	addi	sp,sp,16
   15072:	8082                	ret

00015074 <_getpid_r>:
   15074:	4a90306f          	j	18d1c <_getpid>

00015078 <_sprintf_r>:
   15078:	7135                	addi	sp,sp,-160
   1507a:	dca2                	sw	s0,120(sp)
   1507c:	cb3e                	sw	a5,148(sp)
   1507e:	1cc1a783          	lw	a5,460(gp) # 1ec04 <__stack_chk_guard>
   15082:	c736                	sw	a3,140(sp)
   15084:	c22e                	sw	a1,4(sp)
   15086:	d6be                	sw	a5,108(sp)
   15088:	800007b7          	lui	a5,0x80000
   1508c:	fff7c793          	not	a5,a5
   15090:	cc3e                	sw	a5,24(sp)
   15092:	c63e                	sw	a5,12(sp)
   15094:	77c1                	lui	a5,0xffff0
   15096:	20878793          	addi	a5,a5,520 # ffff0208 <__BSS_END__+0xfffd15a4>
   1509a:	ca2e                	sw	a1,20(sp)
   1509c:	0174                	addi	a3,sp,140
   1509e:	004c                	addi	a1,sp,4
   150a0:	c93a                	sw	a4,144(sp)
   150a2:	c83e                	sw	a5,16(sp)
   150a4:	de86                	sw	ra,124(sp)
   150a6:	cd42                	sw	a6,152(sp)
   150a8:	cf46                	sw	a7,156(sp)
   150aa:	c036                	sw	a3,0(sp)
   150ac:	2519                	jal	156b2 <_svfprintf_r>
   150ae:	4792                	lw	a5,4(sp)
   150b0:	5736                	lw	a4,108(sp)
   150b2:	00078023          	sb	zero,0(a5)
   150b6:	1cc1a783          	lw	a5,460(gp) # 1ec04 <__stack_chk_guard>
   150ba:	00f70463          	beq	a4,a5,150c2 <_sprintf_r+0x4a>
   150be:	b24fb0ef          	jal	ra,103e2 <__stack_chk_fail>
   150c2:	50f6                	lw	ra,124(sp)
   150c4:	5466                	lw	s0,120(sp)
   150c6:	610d                	addi	sp,sp,160
   150c8:	8082                	ret

000150ca <sprintf>:
   150ca:	7135                	addi	sp,sp,-160
   150cc:	dca2                	sw	s0,120(sp)
   150ce:	cb3e                	sw	a5,148(sp)
   150d0:	1cc1a783          	lw	a5,460(gp) # 1ec04 <__stack_chk_guard>
   150d4:	c22a                	sw	a0,4(sp)
   150d6:	ca2a                	sw	a0,20(sp)
   150d8:	d6be                	sw	a5,108(sp)
   150da:	800007b7          	lui	a5,0x80000
   150de:	fff7c793          	not	a5,a5
   150e2:	cc3e                	sw	a5,24(sp)
   150e4:	c63e                	sw	a5,12(sp)
   150e6:	77c1                	lui	a5,0xffff0
   150e8:	20878793          	addi	a5,a5,520 # ffff0208 <__BSS_END__+0xfffd15a4>
   150ec:	c83e                	sw	a5,16(sp)
   150ee:	1c01a503          	lw	a0,448(gp) # 1ebf8 <_impure_ptr>
   150f2:	c532                	sw	a2,136(sp)
   150f4:	c736                	sw	a3,140(sp)
   150f6:	862e                	mv	a2,a1
   150f8:	0134                	addi	a3,sp,136
   150fa:	004c                	addi	a1,sp,4
   150fc:	c93a                	sw	a4,144(sp)
   150fe:	de86                	sw	ra,124(sp)
   15100:	cd42                	sw	a6,152(sp)
   15102:	cf46                	sw	a7,156(sp)
   15104:	c036                	sw	a3,0(sp)
   15106:	2375                	jal	156b2 <_svfprintf_r>
   15108:	4792                	lw	a5,4(sp)
   1510a:	5736                	lw	a4,108(sp)
   1510c:	00078023          	sb	zero,0(a5)
   15110:	1cc1a783          	lw	a5,460(gp) # 1ec04 <__stack_chk_guard>
   15114:	00f70463          	beq	a4,a5,1511c <sprintf+0x52>
   15118:	acafb0ef          	jal	ra,103e2 <__stack_chk_fail>
   1511c:	50f6                	lw	ra,124(sp)
   1511e:	5466                	lw	s0,120(sp)
   15120:	610d                	addi	sp,sp,160
   15122:	8082                	ret

00015124 <__sread>:
   15124:	1141                	addi	sp,sp,-16
   15126:	c422                	sw	s0,8(sp)
   15128:	842e                	mv	s0,a1
   1512a:	00e59583          	lh	a1,14(a1)
   1512e:	c606                	sw	ra,12(sp)
   15130:	455020ef          	jal	ra,17d84 <_read_r>
   15134:	00054963          	bltz	a0,15146 <__sread+0x22>
   15138:	483c                	lw	a5,80(s0)
   1513a:	97aa                	add	a5,a5,a0
   1513c:	c83c                	sw	a5,80(s0)
   1513e:	40b2                	lw	ra,12(sp)
   15140:	4422                	lw	s0,8(sp)
   15142:	0141                	addi	sp,sp,16
   15144:	8082                	ret
   15146:	00c45783          	lhu	a5,12(s0)
   1514a:	777d                	lui	a4,0xfffff
   1514c:	177d                	addi	a4,a4,-1
   1514e:	8ff9                	and	a5,a5,a4
   15150:	00f41623          	sh	a5,12(s0)
   15154:	b7ed                	j	1513e <__sread+0x1a>

00015156 <__seofread>:
   15156:	4501                	li	a0,0
   15158:	8082                	ret

0001515a <__swrite>:
   1515a:	00c5d783          	lhu	a5,12(a1)
   1515e:	1101                	addi	sp,sp,-32
   15160:	cc22                	sw	s0,24(sp)
   15162:	ca26                	sw	s1,20(sp)
   15164:	c84a                	sw	s2,16(sp)
   15166:	c64e                	sw	s3,12(sp)
   15168:	ce06                	sw	ra,28(sp)
   1516a:	1007f793          	andi	a5,a5,256
   1516e:	84aa                	mv	s1,a0
   15170:	842e                	mv	s0,a1
   15172:	8932                	mv	s2,a2
   15174:	89b6                	mv	s3,a3
   15176:	c799                	beqz	a5,15184 <__swrite+0x2a>
   15178:	00e59583          	lh	a1,14(a1)
   1517c:	4689                	li	a3,2
   1517e:	4601                	li	a2,0
   15180:	397020ef          	jal	ra,17d16 <_lseek_r>
   15184:	00c45783          	lhu	a5,12(s0)
   15188:	777d                	lui	a4,0xfffff
   1518a:	177d                	addi	a4,a4,-1
   1518c:	8ff9                	and	a5,a5,a4
   1518e:	00f41623          	sh	a5,12(s0)
   15192:	00e41583          	lh	a1,14(s0)
   15196:	4462                	lw	s0,24(sp)
   15198:	40f2                	lw	ra,28(sp)
   1519a:	86ce                	mv	a3,s3
   1519c:	864a                	mv	a2,s2
   1519e:	49b2                	lw	s3,12(sp)
   151a0:	4942                	lw	s2,16(sp)
   151a2:	8526                	mv	a0,s1
   151a4:	44d2                	lw	s1,20(sp)
   151a6:	6105                	addi	sp,sp,32
   151a8:	935fc06f          	j	11adc <_write_r>

000151ac <__sseek>:
   151ac:	1141                	addi	sp,sp,-16
   151ae:	c422                	sw	s0,8(sp)
   151b0:	842e                	mv	s0,a1
   151b2:	00e59583          	lh	a1,14(a1)
   151b6:	c606                	sw	ra,12(sp)
   151b8:	35f020ef          	jal	ra,17d16 <_lseek_r>
   151bc:	57fd                	li	a5,-1
   151be:	00c45703          	lhu	a4,12(s0)
   151c2:	00f51b63          	bne	a0,a5,151d8 <__sseek+0x2c>
   151c6:	77fd                	lui	a5,0xfffff
   151c8:	17fd                	addi	a5,a5,-1
   151ca:	8ff9                	and	a5,a5,a4
   151cc:	00f41623          	sh	a5,12(s0)
   151d0:	40b2                	lw	ra,12(sp)
   151d2:	4422                	lw	s0,8(sp)
   151d4:	0141                	addi	sp,sp,16
   151d6:	8082                	ret
   151d8:	6785                	lui	a5,0x1
   151da:	8fd9                	or	a5,a5,a4
   151dc:	00f41623          	sh	a5,12(s0)
   151e0:	c828                	sw	a0,80(s0)
   151e2:	b7fd                	j	151d0 <__sseek+0x24>

000151e4 <__sclose>:
   151e4:	00e59583          	lh	a1,14(a1)
   151e8:	5ac0206f          	j	17794 <_close_r>

000151ec <strcmp>:
   151ec:	00b56733          	or	a4,a0,a1
   151f0:	53fd                	li	t2,-1
   151f2:	8b0d                	andi	a4,a4,3
   151f4:	e779                	bnez	a4,152c2 <strcmp+0xd6>
   151f6:	7f7f87b7          	lui	a5,0x7f7f8
   151fa:	f7f78793          	addi	a5,a5,-129 # 7f7f7f7f <__BSS_END__+0x7f7d931b>
   151fe:	4110                	lw	a2,0(a0)
   15200:	4194                	lw	a3,0(a1)
   15202:	00f672b3          	and	t0,a2,a5
   15206:	00f66333          	or	t1,a2,a5
   1520a:	92be                	add	t0,t0,a5
   1520c:	0062e2b3          	or	t0,t0,t1
   15210:	0c729763          	bne	t0,t2,152de <strcmp+0xf2>
   15214:	06d61863          	bne	a2,a3,15284 <strcmp+0x98>
   15218:	4150                	lw	a2,4(a0)
   1521a:	41d4                	lw	a3,4(a1)
   1521c:	00f672b3          	and	t0,a2,a5
   15220:	00f66333          	or	t1,a2,a5
   15224:	92be                	add	t0,t0,a5
   15226:	0062e2b3          	or	t0,t0,t1
   1522a:	0a729863          	bne	t0,t2,152da <strcmp+0xee>
   1522e:	04d61b63          	bne	a2,a3,15284 <strcmp+0x98>
   15232:	4510                	lw	a2,8(a0)
   15234:	4594                	lw	a3,8(a1)
   15236:	00f672b3          	and	t0,a2,a5
   1523a:	00f66333          	or	t1,a2,a5
   1523e:	92be                	add	t0,t0,a5
   15240:	0062e2b3          	or	t0,t0,t1
   15244:	0a729163          	bne	t0,t2,152e6 <strcmp+0xfa>
   15248:	02d61e63          	bne	a2,a3,15284 <strcmp+0x98>
   1524c:	4550                	lw	a2,12(a0)
   1524e:	45d4                	lw	a3,12(a1)
   15250:	00f672b3          	and	t0,a2,a5
   15254:	00f66333          	or	t1,a2,a5
   15258:	92be                	add	t0,t0,a5
   1525a:	0062e2b3          	or	t0,t0,t1
   1525e:	08729a63          	bne	t0,t2,152f2 <strcmp+0x106>
   15262:	02d61163          	bne	a2,a3,15284 <strcmp+0x98>
   15266:	4910                	lw	a2,16(a0)
   15268:	4994                	lw	a3,16(a1)
   1526a:	00f672b3          	and	t0,a2,a5
   1526e:	00f66333          	or	t1,a2,a5
   15272:	92be                	add	t0,t0,a5
   15274:	0062e2b3          	or	t0,t0,t1
   15278:	08729363          	bne	t0,t2,152fe <strcmp+0x112>
   1527c:	0551                	addi	a0,a0,20
   1527e:	05d1                	addi	a1,a1,20
   15280:	f6d60fe3          	beq	a2,a3,151fe <strcmp+0x12>
   15284:	01061713          	slli	a4,a2,0x10
   15288:	01069793          	slli	a5,a3,0x10
   1528c:	00f71c63          	bne	a4,a5,152a4 <strcmp+0xb8>
   15290:	01065713          	srli	a4,a2,0x10
   15294:	0106d793          	srli	a5,a3,0x10
   15298:	40f70533          	sub	a0,a4,a5
   1529c:	0ff57593          	andi	a1,a0,255
   152a0:	e991                	bnez	a1,152b4 <strcmp+0xc8>
   152a2:	8082                	ret
   152a4:	8341                	srli	a4,a4,0x10
   152a6:	83c1                	srli	a5,a5,0x10
   152a8:	40f70533          	sub	a0,a4,a5
   152ac:	0ff57593          	andi	a1,a0,255
   152b0:	e191                	bnez	a1,152b4 <strcmp+0xc8>
   152b2:	8082                	ret
   152b4:	0ff77713          	andi	a4,a4,255
   152b8:	0ff7f793          	andi	a5,a5,255
   152bc:	40f70533          	sub	a0,a4,a5
   152c0:	8082                	ret
   152c2:	00054603          	lbu	a2,0(a0)
   152c6:	0005c683          	lbu	a3,0(a1)
   152ca:	0505                	addi	a0,a0,1
   152cc:	0585                	addi	a1,a1,1
   152ce:	00d61363          	bne	a2,a3,152d4 <strcmp+0xe8>
   152d2:	fa65                	bnez	a2,152c2 <strcmp+0xd6>
   152d4:	40d60533          	sub	a0,a2,a3
   152d8:	8082                	ret
   152da:	0511                	addi	a0,a0,4
   152dc:	0591                	addi	a1,a1,4
   152de:	fed612e3          	bne	a2,a3,152c2 <strcmp+0xd6>
   152e2:	4501                	li	a0,0
   152e4:	8082                	ret
   152e6:	0521                	addi	a0,a0,8
   152e8:	05a1                	addi	a1,a1,8
   152ea:	fcd61ce3          	bne	a2,a3,152c2 <strcmp+0xd6>
   152ee:	4501                	li	a0,0
   152f0:	8082                	ret
   152f2:	0531                	addi	a0,a0,12
   152f4:	05b1                	addi	a1,a1,12
   152f6:	fcd616e3          	bne	a2,a3,152c2 <strcmp+0xd6>
   152fa:	4501                	li	a0,0
   152fc:	8082                	ret
   152fe:	0541                	addi	a0,a0,16
   15300:	05c1                	addi	a1,a1,16
   15302:	fcd610e3          	bne	a2,a3,152c2 <strcmp+0xd6>
   15306:	4501                	li	a0,0
   15308:	8082                	ret

0001530a <strcmp_optm>:
   1530a:	00b56733          	or	a4,a0,a1
   1530e:	8b0d                	andi	a4,a4,3
   15310:	ef3d                	bnez	a4,1538e <strcmp_optm+0x84>
   15312:	4110                	lw	a2,0(a0)
   15314:	4194                	lw	a3,0(a1)
   15316:	80808eb7          	lui	t4,0x80808
   1531a:	08d61663          	bne	a2,a3,153a6 <strcmp_optm+0x9c>
   1531e:	4158                	lw	a4,4(a0)
   15320:	41dc                	lw	a5,4(a1)
   15322:	080eee93          	ori	t4,t4,128
   15326:	0af71c63          	bne	a4,a5,153de <strcmp_optm+0xd4>
   1532a:	00852803          	lw	a6,8(a0)
   1532e:	0085a883          	lw	a7,8(a1)
   15332:	fffecf13          	not	t5,t4
   15336:	0d181563          	bne	a6,a7,15400 <strcmp_optm+0xf6>
   1533a:	00c52283          	lw	t0,12(a0)
   1533e:	00c5a303          	lw	t1,12(a1)
   15342:	01e606b3          	add	a3,a2,t5
   15346:	0e531763          	bne	t1,t0,15434 <strcmp_optm+0x12a>
   1534a:	01052383          	lw	t2,16(a0)
   1534e:	0105ae03          	lw	t3,16(a1)
   15352:	01e707b3          	add	a5,a4,t5
   15356:	167e0e63          	beq	t3,t2,154d2 <strcmp_optm+0x1c8>
   1535a:	01e808b3          	add	a7,a6,t5
   1535e:	01e28333          	add	t1,t0,t5
   15362:	01e38fb3          	add	t6,t2,t5
   15366:	8efd                	and	a3,a3,a5
   15368:	0116f6b3          	and	a3,a3,a7
   1536c:	0066f6b3          	and	a3,a3,t1
   15370:	01f6f6b3          	and	a3,a3,t6
   15374:	01d6f6b3          	and	a3,a3,t4
   15378:	11d69163          	bne	a3,t4,1547a <strcmp_optm+0x170>
   1537c:	00839613          	slli	a2,t2,0x8
   15380:	008e1693          	slli	a3,t3,0x8
   15384:	1ad61c63          	bne	a2,a3,1553c <strcmp_optm+0x232>
   15388:	41c38533          	sub	a0,t2,t3
   1538c:	8082                	ret
   1538e:	00054603          	lbu	a2,0(a0)
   15392:	0005c683          	lbu	a3,0(a1)
   15396:	0505                	addi	a0,a0,1
   15398:	0585                	addi	a1,a1,1
   1539a:	00d61363          	bne	a2,a3,153a0 <strcmp_optm+0x96>
   1539e:	fa65                	bnez	a2,1538e <strcmp_optm+0x84>
   153a0:	40d60533          	sub	a0,a2,a3
   153a4:	8082                	ret
   153a6:	00054603          	lbu	a2,0(a0)
   153aa:	0005c683          	lbu	a3,0(a1)
   153ae:	fed619e3          	bne	a2,a3,153a0 <strcmp_optm+0x96>
   153b2:	c605                	beqz	a2,153da <strcmp_optm+0xd0>
   153b4:	00154603          	lbu	a2,1(a0)
   153b8:	0015c683          	lbu	a3,1(a1)
   153bc:	fed612e3          	bne	a2,a3,153a0 <strcmp_optm+0x96>
   153c0:	ce09                	beqz	a2,153da <strcmp_optm+0xd0>
   153c2:	00254603          	lbu	a2,2(a0)
   153c6:	0025c683          	lbu	a3,2(a1)
   153ca:	fcd61be3          	bne	a2,a3,153a0 <strcmp_optm+0x96>
   153ce:	c611                	beqz	a2,153da <strcmp_optm+0xd0>
   153d0:	00354603          	lbu	a2,3(a0)
   153d4:	0035c683          	lbu	a3,3(a1)
   153d8:	b7e1                	j	153a0 <strcmp_optm+0x96>
   153da:	4501                	li	a0,0
   153dc:	8082                	ret
   153de:	5efd                	li	t4,-1
   153e0:	7f7f8f37          	lui	t5,0x7f7f8
   153e4:	f7ff0f13          	addi	t5,t5,-129 # 7f7f7f7f <__BSS_END__+0x7f7d931b>
   153e8:	01e67fb3          	and	t6,a2,t5
   153ec:	01e66333          	or	t1,a2,t5
   153f0:	9ffa                	add	t6,t6,t5
   153f2:	006fefb3          	or	t6,t6,t1
   153f6:	ffdf92e3          	bne	t6,t4,153da <strcmp_optm+0xd0>
   153fa:	0511                	addi	a0,a0,4
   153fc:	0591                	addi	a1,a1,4
   153fe:	b765                	j	153a6 <strcmp_optm+0x9c>
   15400:	5efd                	li	t4,-1
   15402:	7f7f8f37          	lui	t5,0x7f7f8
   15406:	f7ff0f13          	addi	t5,t5,-129 # 7f7f7f7f <__BSS_END__+0x7f7d931b>
   1540a:	01e67fb3          	and	t6,a2,t5
   1540e:	01e66333          	or	t1,a2,t5
   15412:	9ffa                	add	t6,t6,t5
   15414:	006fefb3          	or	t6,t6,t1
   15418:	fddf91e3          	bne	t6,t4,153da <strcmp_optm+0xd0>
   1541c:	01e77fb3          	and	t6,a4,t5
   15420:	01e76333          	or	t1,a4,t5
   15424:	9ffa                	add	t6,t6,t5
   15426:	006fefb3          	or	t6,t6,t1
   1542a:	fbdf98e3          	bne	t6,t4,153da <strcmp_optm+0xd0>
   1542e:	0521                	addi	a0,a0,8
   15430:	05a1                	addi	a1,a1,8
   15432:	bf95                	j	153a6 <strcmp_optm+0x9c>
   15434:	5efd                	li	t4,-1
   15436:	7f7f8f37          	lui	t5,0x7f7f8
   1543a:	f7ff0f13          	addi	t5,t5,-129 # 7f7f7f7f <__BSS_END__+0x7f7d931b>
   1543e:	01e67fb3          	and	t6,a2,t5
   15442:	01e66333          	or	t1,a2,t5
   15446:	9ffa                	add	t6,t6,t5
   15448:	006fefb3          	or	t6,t6,t1
   1544c:	f9df97e3          	bne	t6,t4,153da <strcmp_optm+0xd0>
   15450:	01e77fb3          	and	t6,a4,t5
   15454:	01e76333          	or	t1,a4,t5
   15458:	9ffa                	add	t6,t6,t5
   1545a:	006fefb3          	or	t6,t6,t1
   1545e:	f7df9ee3          	bne	t6,t4,153da <strcmp_optm+0xd0>
   15462:	01e87fb3          	and	t6,a6,t5
   15466:	01e86333          	or	t1,a6,t5
   1546a:	9ffa                	add	t6,t6,t5
   1546c:	006fefb3          	or	t6,t6,t1
   15470:	f7df95e3          	bne	t6,t4,153da <strcmp_optm+0xd0>
   15474:	0531                	addi	a0,a0,12
   15476:	05b1                	addi	a1,a1,12
   15478:	b73d                	j	153a6 <strcmp_optm+0x9c>
   1547a:	5efd                	li	t4,-1
   1547c:	7f7f8f37          	lui	t5,0x7f7f8
   15480:	f7ff0f13          	addi	t5,t5,-129 # 7f7f7f7f <__BSS_END__+0x7f7d931b>
   15484:	01e67fb3          	and	t6,a2,t5
   15488:	01e66333          	or	t1,a2,t5
   1548c:	9ffa                	add	t6,t6,t5
   1548e:	006fefb3          	or	t6,t6,t1
   15492:	f5df94e3          	bne	t6,t4,153da <strcmp_optm+0xd0>
   15496:	01e77fb3          	and	t6,a4,t5
   1549a:	01e76333          	or	t1,a4,t5
   1549e:	9ffa                	add	t6,t6,t5
   154a0:	006fefb3          	or	t6,t6,t1
   154a4:	f3df9be3          	bne	t6,t4,153da <strcmp_optm+0xd0>
   154a8:	01e87fb3          	and	t6,a6,t5
   154ac:	01e86333          	or	t1,a6,t5
   154b0:	9ffa                	add	t6,t6,t5
   154b2:	006fefb3          	or	t6,t6,t1
   154b6:	f3df92e3          	bne	t6,t4,153da <strcmp_optm+0xd0>
   154ba:	01e2ffb3          	and	t6,t0,t5
   154be:	01e2e333          	or	t1,t0,t5
   154c2:	9ffa                	add	t6,t6,t5
   154c4:	006fefb3          	or	t6,t6,t1
   154c8:	f1df99e3          	bne	t6,t4,153da <strcmp_optm+0xd0>
   154cc:	0541                	addi	a0,a0,16
   154ce:	05c1                	addi	a1,a1,16
   154d0:	bdd9                	j	153a6 <strcmp_optm+0x9c>
   154d2:	5efd                	li	t4,-1
   154d4:	7f7f8f37          	lui	t5,0x7f7f8
   154d8:	f7ff0f13          	addi	t5,t5,-129 # 7f7f7f7f <__BSS_END__+0x7f7d931b>
   154dc:	01e67fb3          	and	t6,a2,t5
   154e0:	01e66333          	or	t1,a2,t5
   154e4:	9ffa                	add	t6,t6,t5
   154e6:	006fefb3          	or	t6,t6,t1
   154ea:	efdf98e3          	bne	t6,t4,153da <strcmp_optm+0xd0>
   154ee:	01e77fb3          	and	t6,a4,t5
   154f2:	01e76333          	or	t1,a4,t5
   154f6:	9ffa                	add	t6,t6,t5
   154f8:	006fefb3          	or	t6,t6,t1
   154fc:	eddf9fe3          	bne	t6,t4,153da <strcmp_optm+0xd0>
   15500:	01e87fb3          	and	t6,a6,t5
   15504:	01e86333          	or	t1,a6,t5
   15508:	9ffa                	add	t6,t6,t5
   1550a:	006fefb3          	or	t6,t6,t1
   1550e:	eddf96e3          	bne	t6,t4,153da <strcmp_optm+0xd0>
   15512:	01e2ffb3          	and	t6,t0,t5
   15516:	01e2e333          	or	t1,t0,t5
   1551a:	9ffa                	add	t6,t6,t5
   1551c:	006fefb3          	or	t6,t6,t1
   15520:	ebdf9de3          	bne	t6,t4,153da <strcmp_optm+0xd0>
   15524:	01e3ffb3          	and	t6,t2,t5
   15528:	01e3e333          	or	t1,t2,t5
   1552c:	9ffa                	add	t6,t6,t5
   1552e:	006fefb3          	or	t6,t6,t1
   15532:	ebdf94e3          	bne	t6,t4,153da <strcmp_optm+0xd0>
   15536:	0551                	addi	a0,a0,20
   15538:	05d1                	addi	a1,a1,20
   1553a:	a089                	j	1557c <strcmp_optm+0x272>
   1553c:	01039713          	slli	a4,t2,0x10
   15540:	010e1793          	slli	a5,t3,0x10
   15544:	00f71563          	bne	a4,a5,1554e <strcmp_optm+0x244>
   15548:	40d60533          	sub	a0,a2,a3
   1554c:	8082                	ret
   1554e:	0ff3f613          	andi	a2,t2,255
   15552:	0ffe7693          	andi	a3,t3,255
   15556:	00d61d63          	bne	a2,a3,15570 <strcmp_optm+0x266>
   1555a:	0083d613          	srli	a2,t2,0x8
   1555e:	008e5693          	srli	a3,t3,0x8
   15562:	0ff67613          	andi	a2,a2,255
   15566:	0ff6f693          	andi	a3,a3,255
   1556a:	40d60533          	sub	a0,a2,a3
   1556e:	8082                	ret
   15570:	40d60533          	sub	a0,a2,a3
   15574:	8082                	ret
   15576:	0085d513          	srli	a0,a1,0x8
   1557a:	8082                	ret
   1557c:	4110                	lw	a2,0(a0)
   1557e:	4194                	lw	a3,0(a1)
   15580:	01e672b3          	and	t0,a2,t5
   15584:	01e66333          	or	t1,a2,t5
   15588:	92fa                	add	t0,t0,t5
   1558a:	0062e2b3          	or	t0,t0,t1
   1558e:	0bd29b63          	bne	t0,t4,15644 <strcmp_optm+0x33a>
   15592:	06d61863          	bne	a2,a3,15602 <strcmp_optm+0x2f8>
   15596:	4150                	lw	a2,4(a0)
   15598:	41d4                	lw	a3,4(a1)
   1559a:	01e672b3          	and	t0,a2,t5
   1559e:	01e66333          	or	t1,a2,t5
   155a2:	92fa                	add	t0,t0,t5
   155a4:	0062e2b3          	or	t0,t0,t1
   155a8:	09d29c63          	bne	t0,t4,15640 <strcmp_optm+0x336>
   155ac:	04d61b63          	bne	a2,a3,15602 <strcmp_optm+0x2f8>
   155b0:	4510                	lw	a2,8(a0)
   155b2:	4594                	lw	a3,8(a1)
   155b4:	01e672b3          	and	t0,a2,t5
   155b8:	01e66333          	or	t1,a2,t5
   155bc:	92fa                	add	t0,t0,t5
   155be:	0062e2b3          	or	t0,t0,t1
   155c2:	09d29563          	bne	t0,t4,1564c <strcmp_optm+0x342>
   155c6:	02d61e63          	bne	a2,a3,15602 <strcmp_optm+0x2f8>
   155ca:	4550                	lw	a2,12(a0)
   155cc:	45d4                	lw	a3,12(a1)
   155ce:	01e672b3          	and	t0,a2,t5
   155d2:	01e66333          	or	t1,a2,t5
   155d6:	92fa                	add	t0,t0,t5
   155d8:	0062e2b3          	or	t0,t0,t1
   155dc:	07d29e63          	bne	t0,t4,15658 <strcmp_optm+0x34e>
   155e0:	02d61163          	bne	a2,a3,15602 <strcmp_optm+0x2f8>
   155e4:	4910                	lw	a2,16(a0)
   155e6:	4994                	lw	a3,16(a1)
   155e8:	01e672b3          	and	t0,a2,t5
   155ec:	01e66333          	or	t1,a2,t5
   155f0:	92fa                	add	t0,t0,t5
   155f2:	0062e2b3          	or	t0,t0,t1
   155f6:	07d29763          	bne	t0,t4,15664 <strcmp_optm+0x35a>
   155fa:	0551                	addi	a0,a0,20
   155fc:	05d1                	addi	a1,a1,20
   155fe:	f6d60fe3          	beq	a2,a3,1557c <strcmp_optm+0x272>
   15602:	01061713          	slli	a4,a2,0x10
   15606:	01069793          	slli	a5,a3,0x10
   1560a:	00f71c63          	bne	a4,a5,15622 <strcmp_optm+0x318>
   1560e:	01065713          	srli	a4,a2,0x10
   15612:	0106d793          	srli	a5,a3,0x10
   15616:	40f70533          	sub	a0,a4,a5
   1561a:	0ff57593          	andi	a1,a0,255
   1561e:	e991                	bnez	a1,15632 <strcmp_optm+0x328>
   15620:	8082                	ret
   15622:	8341                	srli	a4,a4,0x10
   15624:	83c1                	srli	a5,a5,0x10
   15626:	40f70533          	sub	a0,a4,a5
   1562a:	0ff57593          	andi	a1,a0,255
   1562e:	e191                	bnez	a1,15632 <strcmp_optm+0x328>
   15630:	8082                	ret
   15632:	0ff77713          	andi	a4,a4,255
   15636:	0ff7f793          	andi	a5,a5,255
   1563a:	40f70533          	sub	a0,a4,a5
   1563e:	8082                	ret
   15640:	0511                	addi	a0,a0,4
   15642:	0591                	addi	a1,a1,4
   15644:	d4d615e3          	bne	a2,a3,1538e <strcmp_optm+0x84>
   15648:	4501                	li	a0,0
   1564a:	8082                	ret
   1564c:	0521                	addi	a0,a0,8
   1564e:	05a1                	addi	a1,a1,8
   15650:	d2d61fe3          	bne	a2,a3,1538e <strcmp_optm+0x84>
   15654:	4501                	li	a0,0
   15656:	8082                	ret
   15658:	0531                	addi	a0,a0,12
   1565a:	05b1                	addi	a1,a1,12
   1565c:	d2d619e3          	bne	a2,a3,1538e <strcmp_optm+0x84>
   15660:	4501                	li	a0,0
   15662:	8082                	ret
   15664:	0531                	addi	a0,a0,12
   15666:	05b1                	addi	a1,a1,12
   15668:	d2d613e3          	bne	a2,a3,1538e <strcmp_optm+0x84>
   1566c:	4501                	li	a0,0
   1566e:	8082                	ret

00015670 <strcpy>:
   15670:	87aa                	mv	a5,a0
   15672:	0005c703          	lbu	a4,0(a1)
   15676:	0785                	addi	a5,a5,1
   15678:	0585                	addi	a1,a1,1
   1567a:	fee78fa3          	sb	a4,-1(a5)
   1567e:	fb75                	bnez	a4,15672 <strcpy+0x2>
   15680:	8082                	ret

00015682 <strncpy>:
   15682:	872a                	mv	a4,a0
   15684:	e211                	bnez	a2,15688 <strncpy+0x6>
   15686:	8082                	ret
   15688:	0585                	addi	a1,a1,1
   1568a:	fff5c683          	lbu	a3,-1(a1)
   1568e:	00170793          	addi	a5,a4,1 # fffff001 <__BSS_END__+0xfffe039d>
   15692:	fff60813          	addi	a6,a2,-1
   15696:	fed78fa3          	sb	a3,-1(a5)
   1569a:	e689                	bnez	a3,156a4 <strncpy+0x22>
   1569c:	9732                	add	a4,a4,a2
   1569e:	00e79663          	bne	a5,a4,156aa <strncpy+0x28>
   156a2:	8082                	ret
   156a4:	873e                	mv	a4,a5
   156a6:	8642                	mv	a2,a6
   156a8:	bff1                	j	15684 <strncpy+0x2>
   156aa:	0785                	addi	a5,a5,1
   156ac:	fe078fa3          	sb	zero,-1(a5)
   156b0:	b7fd                	j	1569e <strncpy+0x1c>

000156b2 <_svfprintf_r>:
   156b2:	1cc1a783          	lw	a5,460(gp) # 1ec04 <__stack_chk_guard>
   156b6:	7105                	addi	sp,sp,-480
   156b8:	1c112e23          	sw	ra,476(sp)
   156bc:	1c912a23          	sw	s1,468(sp)
   156c0:	1d212823          	sw	s2,464(sp)
   156c4:	1d312623          	sw	s3,460(sp)
   156c8:	1d512223          	sw	s5,452(sp)
   156cc:	89ae                	mv	s3,a1
   156ce:	84b2                	mv	s1,a2
   156d0:	8ab6                	mv	s5,a3
   156d2:	18f12e23          	sw	a5,412(sp)
   156d6:	1c812c23          	sw	s0,472(sp)
   156da:	1d412423          	sw	s4,456(sp)
   156de:	1d612023          	sw	s6,448(sp)
   156e2:	1b712e23          	sw	s7,444(sp)
   156e6:	1b812c23          	sw	s8,440(sp)
   156ea:	1b912a23          	sw	s9,436(sp)
   156ee:	1ba12823          	sw	s10,432(sp)
   156f2:	1bb12623          	sw	s11,428(sp)
   156f6:	892a                	mv	s2,a0
   156f8:	b8efe0ef          	jal	ra,13a86 <_localeconv_r>
   156fc:	411c                	lw	a5,0(a0)
   156fe:	853e                	mv	a0,a5
   15700:	da3e                	sw	a5,52(sp)
   15702:	d1bfa0ef          	jal	ra,1041c <strlen>
   15706:	00c9d783          	lhu	a5,12(s3)
   1570a:	d02a                	sw	a0,32(sp)
   1570c:	c982                	sw	zero,208(sp)
   1570e:	cb82                	sw	zero,212(sp)
   15710:	cd82                	sw	zero,216(sp)
   15712:	cf82                	sw	zero,220(sp)
   15714:	0807f793          	andi	a5,a5,128
   15718:	cb85                	beqz	a5,15748 <_svfprintf_r+0x96>
   1571a:	0109a783          	lw	a5,16(s3)
   1571e:	e78d                	bnez	a5,15748 <_svfprintf_r+0x96>
   15720:	04000593          	li	a1,64
   15724:	854a                	mv	a0,s2
   15726:	d36fe0ef          	jal	ra,13c5c <_malloc_r>
   1572a:	00a9a023          	sw	a0,0(s3)
   1572e:	00a9a823          	sw	a0,16(s3)
   15732:	e519                	bnez	a0,15740 <_svfprintf_r+0x8e>
   15734:	47b1                	li	a5,12
   15736:	00f92023          	sw	a5,0(s2)
   1573a:	57fd                	li	a5,-1
   1573c:	d23e                	sw	a5,36(sp)
   1573e:	a919                	j	15b54 <_svfprintf_r+0x4a2>
   15740:	04000793          	li	a5,64
   15744:	00f9aa23          	sw	a5,20(s3)
   15748:	67f5                	lui	a5,0x1d
   1574a:	8d078793          	addi	a5,a5,-1840 # 1c8d0 <__mprec_bigtens+0x90>
   1574e:	c6be                	sw	a5,76(sp)
   15750:	67f5                	lui	a5,0x1d
   15752:	0e410893          	addi	a7,sp,228
   15756:	a4c78793          	addi	a5,a5,-1460 # 1ca4c <zeroes.4432>
   1575a:	c3c6                	sw	a7,196(sp)
   1575c:	c782                	sw	zero,204(sp)
   1575e:	c582                	sw	zero,200(sp)
   15760:	4a01                	li	s4,0
   15762:	c082                	sw	zero,64(sp)
   15764:	de02                	sw	zero,60(sp)
   15766:	c802                	sw	zero,16(sp)
   15768:	d802                	sw	zero,48(sp)
   1576a:	dc02                	sw	zero,56(sp)
   1576c:	d202                	sw	zero,36(sp)
   1576e:	ca3e                	sw	a5,20(sp)
   15770:	8426                	mv	s0,s1
   15772:	02500713          	li	a4,37
   15776:	00044783          	lbu	a5,0(s0)
   1577a:	c399                	beqz	a5,15780 <_svfprintf_r+0xce>
   1577c:	08e79163          	bne	a5,a4,157fe <_svfprintf_r+0x14c>
   15780:	40940b33          	sub	s6,s0,s1
   15784:	020b0c63          	beqz	s6,157bc <_svfprintf_r+0x10a>
   15788:	47be                	lw	a5,204(sp)
   1578a:	0098a023          	sw	s1,0(a7)
   1578e:	0168a223          	sw	s6,4(a7)
   15792:	97da                	add	a5,a5,s6
   15794:	c7be                	sw	a5,204(sp)
   15796:	47ae                	lw	a5,200(sp)
   15798:	471d                	li	a4,7
   1579a:	08a1                	addi	a7,a7,8
   1579c:	0785                	addi	a5,a5,1
   1579e:	c5be                	sw	a5,200(sp)
   157a0:	00f75b63          	bge	a4,a5,157b6 <_svfprintf_r+0x104>
   157a4:	01d0                	addi	a2,sp,196
   157a6:	85ce                	mv	a1,s3
   157a8:	854a                	mv	a0,s2
   157aa:	1ab020ef          	jal	ra,18154 <__ssprint_r>
   157ae:	38051d63          	bnez	a0,15b48 <_svfprintf_r+0x496>
   157b2:	0e410893          	addi	a7,sp,228
   157b6:	5792                	lw	a5,36(sp)
   157b8:	97da                	add	a5,a5,s6
   157ba:	d23e                	sw	a5,36(sp)
   157bc:	00044783          	lbu	a5,0(s0)
   157c0:	e399                	bnez	a5,157c6 <_svfprintf_r+0x114>
   157c2:	4540106f          	j	16c16 <_svfprintf_r+0x1564>
   157c6:	00140793          	addi	a5,s0,1
   157ca:	ce3e                	sw	a5,28(sp)
   157cc:	0a010ba3          	sb	zero,183(sp)
   157d0:	5b7d                	li	s6,-1
   157d2:	d402                	sw	zero,40(sp)
   157d4:	4401                	li	s0,0
   157d6:	4c29                	li	s8,10
   157d8:	02a00b93          	li	s7,42
   157dc:	05a00613          	li	a2,90
   157e0:	4725                	li	a4,9
   157e2:	47f2                	lw	a5,28(sp)
   157e4:	0007cd03          	lbu	s10,0(a5)
   157e8:	0785                	addi	a5,a5,1
   157ea:	ce3e                	sw	a5,28(sp)
   157ec:	fe0d0793          	addi	a5,s10,-32 # fe0 <__stack_chk_init-0xf094>
   157f0:	4ef668e3          	bltu	a2,a5,164e0 <_svfprintf_r+0xe2e>
   157f4:	46b6                	lw	a3,76(sp)
   157f6:	078a                	slli	a5,a5,0x2
   157f8:	97b6                	add	a5,a5,a3
   157fa:	439c                	lw	a5,0(a5)
   157fc:	8782                	jr	a5
   157fe:	0405                	addi	s0,s0,1
   15800:	bf9d                	j	15776 <_svfprintf_r+0xc4>
   15802:	67f1                	lui	a5,0x1c
   15804:	49c78793          	addi	a5,a5,1180 # 1c49c <zeroes.4447+0x34>
   15808:	c0be                	sw	a5,64(sp)
   1580a:	02047793          	andi	a5,s0,32
   1580e:	36078be3          	beqz	a5,16384 <_svfprintf_r+0xcd2>
   15812:	0a9d                	addi	s5,s5,7
   15814:	ff8afa93          	andi	s5,s5,-8
   15818:	000aac03          	lw	s8,0(s5)
   1581c:	004aac83          	lw	s9,4(s5)
   15820:	008a8793          	addi	a5,s5,8
   15824:	cc3e                	sw	a5,24(sp)
   15826:	00147793          	andi	a5,s0,1
   1582a:	cf81                	beqz	a5,15842 <_svfprintf_r+0x190>
   1582c:	019c67b3          	or	a5,s8,s9
   15830:	cb89                	beqz	a5,15842 <_svfprintf_r+0x190>
   15832:	03000793          	li	a5,48
   15836:	12f10223          	sb	a5,292(sp)
   1583a:	13a102a3          	sb	s10,293(sp)
   1583e:	00246413          	ori	s0,s0,2
   15842:	bff47413          	andi	s0,s0,-1025
   15846:	4789                	li	a5,2
   15848:	0710006f          	j	160b8 <_svfprintf_r+0xa06>
   1584c:	854a                	mv	a0,s2
   1584e:	c646                	sw	a7,12(sp)
   15850:	a36fe0ef          	jal	ra,13a86 <_localeconv_r>
   15854:	415c                	lw	a5,4(a0)
   15856:	853e                	mv	a0,a5
   15858:	dc3e                	sw	a5,56(sp)
   1585a:	bc3fa0ef          	jal	ra,1041c <strlen>
   1585e:	d82a                	sw	a0,48(sp)
   15860:	854a                	mv	a0,s2
   15862:	a24fe0ef          	jal	ra,13a86 <_localeconv_r>
   15866:	451c                	lw	a5,8(a0)
   15868:	48b2                	lw	a7,12(sp)
   1586a:	c83e                	sw	a5,16(sp)
   1586c:	57c2                	lw	a5,48(sp)
   1586e:	d7bd                	beqz	a5,157dc <_svfprintf_r+0x12a>
   15870:	47c2                	lw	a5,16(sp)
   15872:	d7ad                	beqz	a5,157dc <_svfprintf_r+0x12a>
   15874:	0007c783          	lbu	a5,0(a5)
   15878:	d3b5                	beqz	a5,157dc <_svfprintf_r+0x12a>
   1587a:	40046413          	ori	s0,s0,1024
   1587e:	bfb9                	j	157dc <_svfprintf_r+0x12a>
   15880:	0b714783          	lbu	a5,183(sp)
   15884:	ffa1                	bnez	a5,157dc <_svfprintf_r+0x12a>
   15886:	02000793          	li	a5,32
   1588a:	0af10ba3          	sb	a5,183(sp)
   1588e:	b7b9                	j	157dc <_svfprintf_r+0x12a>
   15890:	00146413          	ori	s0,s0,1
   15894:	b7a1                	j	157dc <_svfprintf_r+0x12a>
   15896:	000aa783          	lw	a5,0(s5)
   1589a:	0a91                	addi	s5,s5,4
   1589c:	d43e                	sw	a5,40(sp)
   1589e:	f207dfe3          	bgez	a5,157dc <_svfprintf_r+0x12a>
   158a2:	40f007b3          	neg	a5,a5
   158a6:	d43e                	sw	a5,40(sp)
   158a8:	00446413          	ori	s0,s0,4
   158ac:	bf05                	j	157dc <_svfprintf_r+0x12a>
   158ae:	02b00793          	li	a5,43
   158b2:	bfe1                	j	1588a <_svfprintf_r+0x1d8>
   158b4:	46f2                	lw	a3,28(sp)
   158b6:	47f2                	lw	a5,28(sp)
   158b8:	0006cd03          	lbu	s10,0(a3)
   158bc:	0785                	addi	a5,a5,1
   158be:	037d1863          	bne	s10,s7,158ee <_svfprintf_r+0x23c>
   158c2:	000aab03          	lw	s6,0(s5)
   158c6:	004a8713          	addi	a4,s5,4
   158ca:	000b5363          	bgez	s6,158d0 <_svfprintf_r+0x21e>
   158ce:	5b7d                	li	s6,-1
   158d0:	8aba                	mv	s5,a4
   158d2:	ce3e                	sw	a5,28(sp)
   158d4:	b721                	j	157dc <_svfprintf_r+0x12a>
   158d6:	038b0333          	mul	t1,s6,s8
   158da:	0785                	addi	a5,a5,1
   158dc:	fff7cd03          	lbu	s10,-1(a5)
   158e0:	00d30b33          	add	s6,t1,a3
   158e4:	fd0d0693          	addi	a3,s10,-48
   158e8:	fed777e3          	bgeu	a4,a3,158d6 <_svfprintf_r+0x224>
   158ec:	bdfd                	j	157ea <_svfprintf_r+0x138>
   158ee:	4b01                	li	s6,0
   158f0:	bfd5                	j	158e4 <_svfprintf_r+0x232>
   158f2:	08046413          	ori	s0,s0,128
   158f6:	b5dd                	j	157dc <_svfprintf_r+0x12a>
   158f8:	47f2                	lw	a5,28(sp)
   158fa:	d402                	sw	zero,40(sp)
   158fc:	56a2                	lw	a3,40(sp)
   158fe:	fd0d0d13          	addi	s10,s10,-48
   15902:	0785                	addi	a5,a5,1
   15904:	038686b3          	mul	a3,a3,s8
   15908:	96ea                	add	a3,a3,s10
   1590a:	fff7cd03          	lbu	s10,-1(a5)
   1590e:	d436                	sw	a3,40(sp)
   15910:	fd0d0693          	addi	a3,s10,-48
   15914:	fed774e3          	bgeu	a4,a3,158fc <_svfprintf_r+0x24a>
   15918:	bdc9                	j	157ea <_svfprintf_r+0x138>
   1591a:	00846413          	ori	s0,s0,8
   1591e:	bd7d                	j	157dc <_svfprintf_r+0x12a>
   15920:	47f2                	lw	a5,28(sp)
   15922:	0007c703          	lbu	a4,0(a5)
   15926:	06800793          	li	a5,104
   1592a:	00f71863          	bne	a4,a5,1593a <_svfprintf_r+0x288>
   1592e:	47f2                	lw	a5,28(sp)
   15930:	20046413          	ori	s0,s0,512
   15934:	0785                	addi	a5,a5,1
   15936:	ce3e                	sw	a5,28(sp)
   15938:	b555                	j	157dc <_svfprintf_r+0x12a>
   1593a:	04046413          	ori	s0,s0,64
   1593e:	bd79                	j	157dc <_svfprintf_r+0x12a>
   15940:	47f2                	lw	a5,28(sp)
   15942:	0007c703          	lbu	a4,0(a5)
   15946:	06c00793          	li	a5,108
   1594a:	00f71863          	bne	a4,a5,1595a <_svfprintf_r+0x2a8>
   1594e:	47f2                	lw	a5,28(sp)
   15950:	0785                	addi	a5,a5,1
   15952:	ce3e                	sw	a5,28(sp)
   15954:	02046413          	ori	s0,s0,32
   15958:	b551                	j	157dc <_svfprintf_r+0x12a>
   1595a:	01046413          	ori	s0,s0,16
   1595e:	bdbd                	j	157dc <_svfprintf_r+0x12a>
   15960:	004a8793          	addi	a5,s5,4
   15964:	cc3e                	sw	a5,24(sp)
   15966:	000aa783          	lw	a5,0(s5)
   1596a:	0a010ba3          	sb	zero,183(sp)
   1596e:	12f10c23          	sb	a5,312(sp)
   15972:	c602                	sw	zero,12(sp)
   15974:	4b05                	li	s6,1
   15976:	4a81                	li	s5,0
   15978:	4c01                	li	s8,0
   1597a:	4b81                	li	s7,0
   1597c:	4c81                	li	s9,0
   1597e:	1a24                	addi	s1,sp,312
   15980:	7f60006f          	j	16176 <_svfprintf_r+0xac4>
   15984:	01046413          	ori	s0,s0,16
   15988:	02047793          	andi	a5,s0,32
   1598c:	cba9                	beqz	a5,159de <_svfprintf_r+0x32c>
   1598e:	0a9d                	addi	s5,s5,7
   15990:	ff8afa93          	andi	s5,s5,-8
   15994:	000aac03          	lw	s8,0(s5)
   15998:	004aac83          	lw	s9,4(s5)
   1599c:	008a8793          	addi	a5,s5,8
   159a0:	cc3e                	sw	a5,24(sp)
   159a2:	000cde63          	bgez	s9,159be <_svfprintf_r+0x30c>
   159a6:	41800c33          	neg	s8,s8
   159aa:	018037b3          	snez	a5,s8
   159ae:	41900cb3          	neg	s9,s9
   159b2:	40fc8cb3          	sub	s9,s9,a5
   159b6:	02d00793          	li	a5,45
   159ba:	0af10ba3          	sb	a5,183(sp)
   159be:	57fd                	li	a5,-1
   159c0:	1efb19e3          	bne	s6,a5,163b2 <_svfprintf_r+0xd00>
   159c4:	240c9be3          	bnez	s9,1641a <_svfprintf_r+0xd68>
   159c8:	47a5                	li	a5,9
   159ca:	2587e8e3          	bltu	a5,s8,1641a <_svfprintf_r+0xd68>
   159ce:	030c0c13          	addi	s8,s8,48
   159d2:	19810da3          	sb	s8,411(sp)
   159d6:	19b10493          	addi	s1,sp,411
   159da:	2290006f          	j	16402 <_svfprintf_r+0xd50>
   159de:	004a8793          	addi	a5,s5,4
   159e2:	cc3e                	sw	a5,24(sp)
   159e4:	01047793          	andi	a5,s0,16
   159e8:	c791                	beqz	a5,159f4 <_svfprintf_r+0x342>
   159ea:	000aac03          	lw	s8,0(s5)
   159ee:	41fc5c93          	srai	s9,s8,0x1f
   159f2:	bf45                	j	159a2 <_svfprintf_r+0x2f0>
   159f4:	04047793          	andi	a5,s0,64
   159f8:	000aac03          	lw	s8,0(s5)
   159fc:	c789                	beqz	a5,15a06 <_svfprintf_r+0x354>
   159fe:	0c42                	slli	s8,s8,0x10
   15a00:	410c5c13          	srai	s8,s8,0x10
   15a04:	b7ed                	j	159ee <_svfprintf_r+0x33c>
   15a06:	20047793          	andi	a5,s0,512
   15a0a:	d3f5                	beqz	a5,159ee <_svfprintf_r+0x33c>
   15a0c:	0c62                	slli	s8,s8,0x18
   15a0e:	418c5c13          	srai	s8,s8,0x18
   15a12:	bff1                	j	159ee <_svfprintf_r+0x33c>
   15a14:	00847793          	andi	a5,s0,8
   15a18:	cfa5                	beqz	a5,15a90 <_svfprintf_r+0x3de>
   15a1a:	004a8793          	addi	a5,s5,4
   15a1e:	cc3e                	sw	a5,24(sp)
   15a20:	000aa783          	lw	a5,0(s5)
   15a24:	4390                	lw	a2,0(a5)
   15a26:	43d4                	lw	a3,4(a5)
   15a28:	4798                	lw	a4,8(a5)
   15a2a:	47dc                	lw	a5,12(a5)
   15a2c:	c9b2                	sw	a2,208(sp)
   15a2e:	cbb6                	sw	a3,212(sp)
   15a30:	cdba                	sw	a4,216(sp)
   15a32:	cfbe                	sw	a5,220(sp)
   15a34:	0988                	addi	a0,sp,208
   15a36:	c646                	sw	a7,12(sp)
   15a38:	ff3fd0ef          	jal	ra,13a2a <_ldcheck>
   15a3c:	dd2a                	sw	a0,184(sp)
   15a3e:	4789                	li	a5,2
   15a40:	48b2                	lw	a7,12(sp)
   15a42:	08f51363          	bne	a0,a5,15ac8 <_svfprintf_r+0x416>
   15a46:	47ce                	lw	a5,208(sp)
   15a48:	090c                	addi	a1,sp,144
   15a4a:	1108                	addi	a0,sp,160
   15a4c:	d13e                	sw	a5,160(sp)
   15a4e:	47de                	lw	a5,212(sp)
   15a50:	c902                	sw	zero,144(sp)
   15a52:	cb02                	sw	zero,148(sp)
   15a54:	d33e                	sw	a5,164(sp)
   15a56:	47ee                	lw	a5,216(sp)
   15a58:	cd02                	sw	zero,152(sp)
   15a5a:	cf02                	sw	zero,156(sp)
   15a5c:	d53e                	sw	a5,168(sp)
   15a5e:	47fe                	lw	a5,220(sp)
   15a60:	d73e                	sw	a5,172(sp)
   15a62:	650040ef          	jal	ra,1a0b2 <__letf2>
   15a66:	48b2                	lw	a7,12(sp)
   15a68:	00055663          	bgez	a0,15a74 <_svfprintf_r+0x3c2>
   15a6c:	02d00793          	li	a5,45
   15a70:	0af10ba3          	sb	a5,183(sp)
   15a74:	04700793          	li	a5,71
   15a78:	05a7c463          	blt	a5,s10,15ac0 <_svfprintf_r+0x40e>
   15a7c:	64f1                	lui	s1,0x1c
   15a7e:	47848493          	addi	s1,s1,1144 # 1c478 <zeroes.4447+0x10>
   15a82:	f7f47413          	andi	s0,s0,-129
   15a86:	c602                	sw	zero,12(sp)
   15a88:	4b0d                	li	s6,3
   15a8a:	4a81                	li	s5,0
   15a8c:	1830006f          	j	1640e <_svfprintf_r+0xd5c>
   15a90:	0a9d                	addi	s5,s5,7
   15a92:	ff8afa93          	andi	s5,s5,-8
   15a96:	000aa583          	lw	a1,0(s5)
   15a9a:	004aa603          	lw	a2,4(s5)
   15a9e:	008a8793          	addi	a5,s5,8
   15aa2:	1108                	addi	a0,sp,160
   15aa4:	c646                	sw	a7,12(sp)
   15aa6:	cc3e                	sw	a5,24(sp)
   15aa8:	2a4060ef          	jal	ra,1bd4c <__extenddftf2>
   15aac:	578a                	lw	a5,160(sp)
   15aae:	48b2                	lw	a7,12(sp)
   15ab0:	c9be                	sw	a5,208(sp)
   15ab2:	579a                	lw	a5,164(sp)
   15ab4:	cbbe                	sw	a5,212(sp)
   15ab6:	57aa                	lw	a5,168(sp)
   15ab8:	cdbe                	sw	a5,216(sp)
   15aba:	57ba                	lw	a5,172(sp)
   15abc:	cfbe                	sw	a5,220(sp)
   15abe:	bf9d                	j	15a34 <_svfprintf_r+0x382>
   15ac0:	64f1                	lui	s1,0x1c
   15ac2:	47c48493          	addi	s1,s1,1148 # 1c47c <zeroes.4447+0x14>
   15ac6:	bf75                	j	15a82 <_svfprintf_r+0x3d0>
   15ac8:	4785                	li	a5,1
   15aca:	02f51563          	bne	a0,a5,15af4 <_svfprintf_r+0x442>
   15ace:	47fe                	lw	a5,220(sp)
   15ad0:	0007d663          	bgez	a5,15adc <_svfprintf_r+0x42a>
   15ad4:	02d00793          	li	a5,45
   15ad8:	0af10ba3          	sb	a5,183(sp)
   15adc:	04700793          	li	a5,71
   15ae0:	01a7c663          	blt	a5,s10,15aec <_svfprintf_r+0x43a>
   15ae4:	64f1                	lui	s1,0x1c
   15ae6:	48048493          	addi	s1,s1,1152 # 1c480 <zeroes.4447+0x18>
   15aea:	bf61                	j	15a82 <_svfprintf_r+0x3d0>
   15aec:	64f1                	lui	s1,0x1c
   15aee:	48448493          	addi	s1,s1,1156 # 1c484 <zeroes.4447+0x1c>
   15af2:	bf41                	j	15a82 <_svfprintf_r+0x3d0>
   15af4:	fdfd7b93          	andi	s7,s10,-33
   15af8:	04100793          	li	a5,65
   15afc:	06fb9763          	bne	s7,a5,15b6a <_svfprintf_r+0x4b8>
   15b00:	03000793          	li	a5,48
   15b04:	12f10223          	sb	a5,292(sp)
   15b08:	06100713          	li	a4,97
   15b0c:	05800793          	li	a5,88
   15b10:	00ed1463          	bne	s10,a4,15b18 <_svfprintf_r+0x466>
   15b14:	07800793          	li	a5,120
   15b18:	12f102a3          	sb	a5,293(sp)
   15b1c:	06300793          	li	a5,99
   15b20:	00246413          	ori	s0,s0,2
   15b24:	3367d263          	bge	a5,s6,15e48 <_svfprintf_r+0x796>
   15b28:	001b0593          	addi	a1,s6,1
   15b2c:	854a                	mv	a0,s2
   15b2e:	c646                	sw	a7,12(sp)
   15b30:	92cfe0ef          	jal	ra,13c5c <_malloc_r>
   15b34:	84aa                	mv	s1,a0
   15b36:	48b2                	lw	a7,12(sp)
   15b38:	30051b63          	bnez	a0,15e4e <_svfprintf_r+0x79c>
   15b3c:	00c9d783          	lhu	a5,12(s3)
   15b40:	0407e793          	ori	a5,a5,64
   15b44:	00f99623          	sh	a5,12(s3)
   15b48:	00c9d783          	lhu	a5,12(s3)
   15b4c:	0407f793          	andi	a5,a5,64
   15b50:	be0795e3          	bnez	a5,1573a <_svfprintf_r+0x88>
   15b54:	19c12703          	lw	a4,412(sp)
   15b58:	1cc1a783          	lw	a5,460(gp) # 1ec04 <__stack_chk_guard>
   15b5c:	5512                	lw	a0,36(sp)
   15b5e:	00f71463          	bne	a4,a5,15b66 <_svfprintf_r+0x4b4>
   15b62:	0ca0106f          	j	16c2c <_svfprintf_r+0x157a>
   15b66:	87dfa0ef          	jal	ra,103e2 <__stack_chk_fail>
   15b6a:	57fd                	li	a5,-1
   15b6c:	2efb0363          	beq	s6,a5,15e52 <_svfprintf_r+0x7a0>
   15b70:	04700793          	li	a5,71
   15b74:	c602                	sw	zero,12(sp)
   15b76:	00fb9463          	bne	s7,a5,15b7e <_svfprintf_r+0x4cc>
   15b7a:	2c0b0f63          	beqz	s6,15e58 <_svfprintf_r+0x7a6>
   15b7e:	4afe                	lw	s5,220(sp)
   15b80:	10046793          	ori	a5,s0,256
   15b84:	d63e                	sw	a5,44(sp)
   15b86:	c282                	sw	zero,68(sp)
   15b88:	4e4e                	lw	t3,208(sp)
   15b8a:	4dde                	lw	s11,212(sp)
   15b8c:	4cee                	lw	s9,216(sp)
   15b8e:	000ad963          	bgez	s5,15ba0 <_svfprintf_r+0x4ee>
   15b92:	800007b7          	lui	a5,0x80000
   15b96:	0157cab3          	xor	s5,a5,s5
   15b9a:	02d00793          	li	a5,45
   15b9e:	c2be                	sw	a5,68(sp)
   15ba0:	04100793          	li	a5,65
   15ba4:	2efb9763          	bne	s7,a5,15e92 <_svfprintf_r+0x7e0>
   15ba8:	1108                	addi	a0,sp,160
   15baa:	ccc6                	sw	a7,88(sp)
   15bac:	d172                	sw	t3,160(sp)
   15bae:	d566                	sw	s9,168(sp)
   15bb0:	d36e                	sw	s11,164(sp)
   15bb2:	d756                	sw	s5,172(sp)
   15bb4:	2fc060ef          	jal	ra,1beb0 <__trunctfdf2>
   15bb8:	1930                	addi	a2,sp,184
   15bba:	ab2ff0ef          	jal	ra,14e6c <frexp>
   15bbe:	862e                	mv	a2,a1
   15bc0:	85aa                	mv	a1,a0
   15bc2:	1108                	addi	a0,sp,160
   15bc4:	188060ef          	jal	ra,1bd4c <__extenddftf2>
   15bc8:	578a                	lw	a5,160(sp)
   15bca:	1890                	addi	a2,sp,112
   15bcc:	010c                	addi	a1,sp,128
   15bce:	c13e                	sw	a5,128(sp)
   15bd0:	579a                	lw	a5,164(sp)
   15bd2:	0908                	addi	a0,sp,144
   15bd4:	d882                	sw	zero,112(sp)
   15bd6:	c33e                	sw	a5,132(sp)
   15bd8:	57aa                	lw	a5,168(sp)
   15bda:	da82                	sw	zero,116(sp)
   15bdc:	dc82                	sw	zero,120(sp)
   15bde:	c53e                	sw	a5,136(sp)
   15be0:	57ba                	lw	a5,172(sp)
   15be2:	c73e                	sw	a5,140(sp)
   15be4:	3ffc07b7          	lui	a5,0x3ffc0
   15be8:	debe                	sw	a5,124(sp)
   15bea:	5da040ef          	jal	ra,1a1c4 <__multf3>
   15bee:	484a                	lw	a6,144(sp)
   15bf0:	465a                	lw	a2,148(sp)
   15bf2:	46ea                	lw	a3,152(sp)
   15bf4:	4cfa                	lw	s9,156(sp)
   15bf6:	090c                	addi	a1,sp,144
   15bf8:	1108                	addi	a0,sp,160
   15bfa:	d142                	sw	a6,160(sp)
   15bfc:	cac2                	sw	a6,84(sp)
   15bfe:	d332                	sw	a2,164(sp)
   15c00:	c8b2                	sw	a2,80(sp)
   15c02:	d536                	sw	a3,168(sp)
   15c04:	c4b6                	sw	a3,72(sp)
   15c06:	d766                	sw	s9,172(sp)
   15c08:	c902                	sw	zero,144(sp)
   15c0a:	cb02                	sw	zero,148(sp)
   15c0c:	cd02                	sw	zero,152(sp)
   15c0e:	cf02                	sw	zero,156(sp)
   15c10:	2ea040ef          	jal	ra,19efa <__eqtf2>
   15c14:	46a6                	lw	a3,72(sp)
   15c16:	4646                	lw	a2,80(sp)
   15c18:	4856                	lw	a6,84(sp)
   15c1a:	48e6                	lw	a7,88(sp)
   15c1c:	e119                	bnez	a0,15c22 <_svfprintf_r+0x570>
   15c1e:	4705                	li	a4,1
   15c20:	dd3a                	sw	a4,184(sp)
   15c22:	06100713          	li	a4,97
   15c26:	22ed1c63          	bne	s10,a4,15e5e <_svfprintf_r+0x7ac>
   15c2a:	6a71                	lui	s4,0x1c
   15c2c:	488a0a13          	addi	s4,s4,1160 # 1c488 <zeroes.4447+0x20>
   15c30:	fffb0e13          	addi	t3,s6,-1
   15c34:	8da6                	mv	s11,s1
   15c36:	400307b7          	lui	a5,0x40030
   15c3a:	090c                	addi	a1,sp,144
   15c3c:	cb32                	sw	a2,148(sp)
   15c3e:	1108                	addi	a0,sp,160
   15c40:	0110                	addi	a2,sp,128
   15c42:	ccc6                	sw	a7,88(sp)
   15c44:	caf2                	sw	t3,84(sp)
   15c46:	c942                	sw	a6,144(sp)
   15c48:	c73e                	sw	a5,140(sp)
   15c4a:	cd36                	sw	a3,152(sp)
   15c4c:	cf66                	sw	s9,156(sp)
   15c4e:	c102                	sw	zero,128(sp)
   15c50:	c302                	sw	zero,132(sp)
   15c52:	c502                	sw	zero,136(sp)
   15c54:	570040ef          	jal	ra,1a1c4 <__multf3>
   15c58:	560a                	lw	a2,160(sp)
   15c5a:	569a                	lw	a3,164(sp)
   15c5c:	1108                	addi	a0,sp,160
   15c5e:	c8b2                	sw	a2,80(sp)
   15c60:	c4b6                	sw	a3,72(sp)
   15c62:	6f9050ef          	jal	ra,1bb5a <__fixtfsi>
   15c66:	85aa                	mv	a1,a0
   15c68:	8aaa                	mv	s5,a0
   15c6a:	1108                	addi	a0,sp,160
   15c6c:	5caa                	lw	s9,168(sp)
   15c6e:	5c3a                	lw	s8,172(sp)
   15c70:	7e5050ef          	jal	ra,1bc54 <__floatsitf>
   15c74:	578a                	lw	a5,160(sp)
   15c76:	4646                	lw	a2,80(sp)
   15c78:	46a6                	lw	a3,72(sp)
   15c7a:	d8be                	sw	a5,112(sp)
   15c7c:	579a                	lw	a5,164(sp)
   15c7e:	c132                	sw	a2,128(sp)
   15c80:	010c                	addi	a1,sp,128
   15c82:	dabe                	sw	a5,116(sp)
   15c84:	57aa                	lw	a5,168(sp)
   15c86:	1890                	addi	a2,sp,112
   15c88:	0908                	addi	a0,sp,144
   15c8a:	dcbe                	sw	a5,120(sp)
   15c8c:	57ba                	lw	a5,172(sp)
   15c8e:	c566                	sw	s9,136(sp)
   15c90:	c762                	sw	s8,140(sp)
   15c92:	debe                	sw	a5,124(sp)
   15c94:	c336                	sw	a3,132(sp)
   15c96:	084050ef          	jal	ra,1ad1a <__subtf3>
   15c9a:	015a05b3          	add	a1,s4,s5
   15c9e:	0005c583          	lbu	a1,0(a1)
   15ca2:	4e56                	lw	t3,84(sp)
   15ca4:	4c7a                	lw	s8,156(sp)
   15ca6:	0d85                	addi	s11,s11,1
   15ca8:	42ca                	lw	t0,144(sp)
   15caa:	4fda                	lw	t6,148(sp)
   15cac:	4f6a                	lw	t5,152(sp)
   15cae:	c4f2                	sw	t3,72(sp)
   15cb0:	febd8fa3          	sb	a1,-1(s11)
   15cb4:	57fd                	li	a5,-1
   15cb6:	8ce2                	mv	s9,s8
   15cb8:	48e6                	lw	a7,88(sp)
   15cba:	04fe0063          	beq	t3,a5,15cfa <_svfprintf_r+0x648>
   15cbe:	1e7d                	addi	t3,t3,-1
   15cc0:	090c                	addi	a1,sp,144
   15cc2:	1108                	addi	a0,sp,160
   15cc4:	d6fa                	sw	t5,108(sp)
   15cc6:	d4fe                	sw	t6,104(sp)
   15cc8:	d296                	sw	t0,100(sp)
   15cca:	d0c6                	sw	a7,96(sp)
   15ccc:	cef2                	sw	t3,92(sp)
   15cce:	d116                	sw	t0,160(sp)
   15cd0:	cc96                	sw	t0,88(sp)
   15cd2:	d37e                	sw	t6,164(sp)
   15cd4:	cafe                	sw	t6,84(sp)
   15cd6:	d57a                	sw	t5,168(sp)
   15cd8:	c8fa                	sw	t5,80(sp)
   15cda:	d762                	sw	s8,172(sp)
   15cdc:	c902                	sw	zero,144(sp)
   15cde:	cb02                	sw	zero,148(sp)
   15ce0:	cd02                	sw	zero,152(sp)
   15ce2:	cf02                	sw	zero,156(sp)
   15ce4:	216040ef          	jal	ra,19efa <__eqtf2>
   15ce8:	46c6                	lw	a3,80(sp)
   15cea:	4656                	lw	a2,84(sp)
   15cec:	4866                	lw	a6,88(sp)
   15cee:	4e76                	lw	t3,92(sp)
   15cf0:	5886                	lw	a7,96(sp)
   15cf2:	5296                	lw	t0,100(sp)
   15cf4:	5fa6                	lw	t6,104(sp)
   15cf6:	5f36                	lw	t5,108(sp)
   15cf8:	fd1d                	bnez	a0,15c36 <_svfprintf_r+0x584>
   15cfa:	3ffe0cb7          	lui	s9,0x3ffe0
   15cfe:	090c                	addi	a1,sp,144
   15d00:	1108                	addi	a0,sp,160
   15d02:	c8c6                	sw	a7,80(sp)
   15d04:	d116                	sw	t0,160(sp)
   15d06:	ce96                	sw	t0,92(sp)
   15d08:	d37e                	sw	t6,164(sp)
   15d0a:	ccfe                	sw	t6,88(sp)
   15d0c:	d57a                	sw	t5,168(sp)
   15d0e:	cafa                	sw	t5,84(sp)
   15d10:	d762                	sw	s8,172(sp)
   15d12:	c902                	sw	zero,144(sp)
   15d14:	cb02                	sw	zero,148(sp)
   15d16:	cd02                	sw	zero,152(sp)
   15d18:	cf66                	sw	s9,156(sp)
   15d1a:	286040ef          	jal	ra,19fa0 <__getf2>
   15d1e:	48c6                	lw	a7,80(sp)
   15d20:	02a04863          	bgtz	a0,15d50 <_svfprintf_r+0x69e>
   15d24:	42f6                	lw	t0,92(sp)
   15d26:	4fe6                	lw	t6,88(sp)
   15d28:	4f56                	lw	t5,84(sp)
   15d2a:	090c                	addi	a1,sp,144
   15d2c:	1108                	addi	a0,sp,160
   15d2e:	d116                	sw	t0,160(sp)
   15d30:	d37e                	sw	t6,164(sp)
   15d32:	d57a                	sw	t5,168(sp)
   15d34:	d762                	sw	s8,172(sp)
   15d36:	c902                	sw	zero,144(sp)
   15d38:	cb02                	sw	zero,148(sp)
   15d3a:	cd02                	sw	zero,152(sp)
   15d3c:	cf66                	sw	s9,156(sp)
   15d3e:	1bc040ef          	jal	ra,19efa <__eqtf2>
   15d42:	48c6                	lw	a7,80(sp)
   15d44:	14051063          	bnez	a0,15e84 <_svfprintf_r+0x7d2>
   15d48:	001afa93          	andi	s5,s5,1
   15d4c:	120a8c63          	beqz	s5,15e84 <_svfprintf_r+0x7d2>
   15d50:	00fa4603          	lbu	a2,15(s4)
   15d54:	c1ee                	sw	s11,192(sp)
   15d56:	03000593          	li	a1,48
   15d5a:	468e                	lw	a3,192(sp)
   15d5c:	fff68793          	addi	a5,a3,-1
   15d60:	c1be                	sw	a5,192(sp)
   15d62:	fff6c783          	lbu	a5,-1(a3)
   15d66:	10c78063          	beq	a5,a2,15e66 <_svfprintf_r+0x7b4>
   15d6a:	03900613          	li	a2,57
   15d6e:	0ec79f63          	bne	a5,a2,15e6c <_svfprintf_r+0x7ba>
   15d72:	00aa4783          	lbu	a5,10(s4)
   15d76:	fef68fa3          	sb	a5,-1(a3)
   15d7a:	8a6e                	mv	s4,s11
   15d7c:	04700713          	li	a4,71
   15d80:	409a0a33          	sub	s4,s4,s1
   15d84:	5cea                	lw	s9,184(sp)
   15d86:	1ceb9e63          	bne	s7,a4,15f62 <_svfprintf_r+0x8b0>
   15d8a:	5775                	li	a4,-3
   15d8c:	00ecc463          	blt	s9,a4,15d94 <_svfprintf_r+0x6e2>
   15d90:	239b5d63          	bge	s6,s9,15fca <_svfprintf_r+0x918>
   15d94:	1d79                	addi	s10,s10,-2
   15d96:	fffc8693          	addi	a3,s9,-1 # 3ffdffff <__BSS_END__+0x3ffc139b>
   15d9a:	dd36                	sw	a3,184(sp)
   15d9c:	fdfd7613          	andi	a2,s10,-33
   15da0:	04100513          	li	a0,65
   15da4:	0ffd7713          	andi	a4,s10,255
   15da8:	4581                	li	a1,0
   15daa:	00a61663          	bne	a2,a0,15db6 <_svfprintf_r+0x704>
   15dae:	073d                	addi	a4,a4,15
   15db0:	0ff77713          	andi	a4,a4,255
   15db4:	4585                	li	a1,1
   15db6:	12e10423          	sb	a4,296(sp)
   15dba:	02b00793          	li	a5,43
   15dbe:	0006d763          	bgez	a3,15dcc <_svfprintf_r+0x71a>
   15dc2:	4685                	li	a3,1
   15dc4:	419686b3          	sub	a3,a3,s9
   15dc8:	02d00793          	li	a5,45
   15dcc:	12f104a3          	sb	a5,297(sp)
   15dd0:	47a5                	li	a5,9
   15dd2:	1cd7d363          	bge	a5,a3,15f98 <_svfprintf_r+0x8e6>
   15dd6:	13710713          	addi	a4,sp,311
   15dda:	853a                	mv	a0,a4
   15ddc:	45a9                	li	a1,10
   15dde:	4825                	li	a6,9
   15de0:	02b6e7b3          	rem	a5,a3,a1
   15de4:	fff70613          	addi	a2,a4,-1
   15de8:	02b6c6b3          	div	a3,a3,a1
   15dec:	03078793          	addi	a5,a5,48 # 40030030 <__BSS_END__+0x400113cc>
   15df0:	fef70fa3          	sb	a5,-1(a4)
   15df4:	18d84963          	blt	a6,a3,15f86 <_svfprintf_r+0x8d4>
   15df8:	03068793          	addi	a5,a3,48
   15dfc:	fef60fa3          	sb	a5,-1(a2)
   15e00:	1779                	addi	a4,a4,-2
   15e02:	12a10613          	addi	a2,sp,298
   15e06:	18a76263          	bltu	a4,a0,15f8a <_svfprintf_r+0x8d8>
   15e0a:	123c                	addi	a5,sp,296
   15e0c:	40f607b3          	sub	a5,a2,a5
   15e10:	de3e                	sw	a5,60(sp)
   15e12:	01478b33          	add	s6,a5,s4
   15e16:	4785                	li	a5,1
   15e18:	0147c563          	blt	a5,s4,15e22 <_svfprintf_r+0x770>
   15e1c:	00147793          	andi	a5,s0,1
   15e20:	c399                	beqz	a5,15e26 <_svfprintf_r+0x774>
   15e22:	5782                	lw	a5,32(sp)
   15e24:	9b3e                	add	s6,s6,a5
   15e26:	bff47413          	andi	s0,s0,-1025
   15e2a:	10046793          	ori	a5,s0,256
   15e2e:	d63e                	sw	a5,44(sp)
   15e30:	4c01                	li	s8,0
   15e32:	4b81                	li	s7,0
   15e34:	4c81                	li	s9,0
   15e36:	4796                	lw	a5,68(sp)
   15e38:	c789                	beqz	a5,15e42 <_svfprintf_r+0x790>
   15e3a:	02d00713          	li	a4,45
   15e3e:	0ae10ba3          	sb	a4,183(sp)
   15e42:	5432                	lw	s0,44(sp)
   15e44:	4a81                	li	s5,0
   15e46:	ae05                	j	16176 <_svfprintf_r+0xac4>
   15e48:	c602                	sw	zero,12(sp)
   15e4a:	1a24                	addi	s1,sp,312
   15e4c:	bb0d                	j	15b7e <_svfprintf_r+0x4cc>
   15e4e:	c62a                	sw	a0,12(sp)
   15e50:	b33d                	j	15b7e <_svfprintf_r+0x4cc>
   15e52:	c602                	sw	zero,12(sp)
   15e54:	4b19                	li	s6,6
   15e56:	b325                	j	15b7e <_svfprintf_r+0x4cc>
   15e58:	c65a                	sw	s6,12(sp)
   15e5a:	4b05                	li	s6,1
   15e5c:	b30d                	j	15b7e <_svfprintf_r+0x4cc>
   15e5e:	6a71                	lui	s4,0x1c
   15e60:	49ca0a13          	addi	s4,s4,1180 # 1c49c <zeroes.4447+0x34>
   15e64:	b3f1                	j	15c30 <_svfprintf_r+0x57e>
   15e66:	feb68fa3          	sb	a1,-1(a3)
   15e6a:	bdc5                	j	15d5a <_svfprintf_r+0x6a8>
   15e6c:	0785                	addi	a5,a5,1
   15e6e:	0ff7f793          	andi	a5,a5,255
   15e72:	b711                	j	15d76 <_svfprintf_r+0x6c4>
   15e74:	0a05                	addi	s4,s4,1
   15e76:	feea0fa3          	sb	a4,-1(s4)
   15e7a:	414c07b3          	sub	a5,s8,s4
   15e7e:	fe07dbe3          	bgez	a5,15e74 <_svfprintf_r+0x7c2>
   15e82:	bded                	j	15d7c <_svfprintf_r+0x6ca>
   15e84:	47a6                	lw	a5,72(sp)
   15e86:	8a6e                	mv	s4,s11
   15e88:	03000713          	li	a4,48
   15e8c:	00fd8c33          	add	s8,s11,a5
   15e90:	b7ed                	j	15e7a <_svfprintf_r+0x7c8>
   15e92:	04600793          	li	a5,70
   15e96:	00fb8b63          	beq	s7,a5,15eac <_svfprintf_r+0x7fa>
   15e9a:	04500793          	li	a5,69
   15e9e:	001b0c13          	addi	s8,s6,1
   15ea2:	00fb8363          	beq	s7,a5,15ea8 <_svfprintf_r+0x7f6>
   15ea6:	8c5a                	mv	s8,s6
   15ea8:	4609                	li	a2,2
   15eaa:	a019                	j	15eb0 <_svfprintf_r+0x7fe>
   15eac:	8c5a                	mv	s8,s6
   15eae:	460d                	li	a2,3
   15eb0:	197c                	addi	a5,sp,188
   15eb2:	0c010813          	addi	a6,sp,192
   15eb6:	1938                	addi	a4,sp,184
   15eb8:	86e2                	mv	a3,s8
   15eba:	110c                	addi	a1,sp,160
   15ebc:	854a                	mv	a0,s2
   15ebe:	c8c6                	sw	a7,80(sp)
   15ec0:	d172                	sw	t3,160(sp)
   15ec2:	c4f2                	sw	t3,72(sp)
   15ec4:	d36e                	sw	s11,164(sp)
   15ec6:	d566                	sw	s9,168(sp)
   15ec8:	d756                	sw	s5,172(sp)
   15eca:	a38fd0ef          	jal	ra,13102 <_ldtoa_r>
   15ece:	04700793          	li	a5,71
   15ed2:	84aa                	mv	s1,a0
   15ed4:	4e26                	lw	t3,72(sp)
   15ed6:	48c6                	lw	a7,80(sp)
   15ed8:	00fb9563          	bne	s7,a5,15ee2 <_svfprintf_r+0x830>
   15edc:	00147793          	andi	a5,s0,1
   15ee0:	c7b5                	beqz	a5,15f4c <_svfprintf_r+0x89a>
   15ee2:	04600793          	li	a5,70
   15ee6:	01848a33          	add	s4,s1,s8
   15eea:	02fb9f63          	bne	s7,a5,15f28 <_svfprintf_r+0x876>
   15eee:	0004c703          	lbu	a4,0(s1)
   15ef2:	03000793          	li	a5,48
   15ef6:	02f71763          	bne	a4,a5,15f24 <_svfprintf_r+0x872>
   15efa:	090c                	addi	a1,sp,144
   15efc:	1108                	addi	a0,sp,160
   15efe:	c8c6                	sw	a7,80(sp)
   15f00:	d172                	sw	t3,160(sp)
   15f02:	c4f2                	sw	t3,72(sp)
   15f04:	d36e                	sw	s11,164(sp)
   15f06:	d566                	sw	s9,168(sp)
   15f08:	d756                	sw	s5,172(sp)
   15f0a:	c902                	sw	zero,144(sp)
   15f0c:	cb02                	sw	zero,148(sp)
   15f0e:	cd02                	sw	zero,152(sp)
   15f10:	cf02                	sw	zero,156(sp)
   15f12:	7e9030ef          	jal	ra,19efa <__eqtf2>
   15f16:	4e26                	lw	t3,72(sp)
   15f18:	48c6                	lw	a7,80(sp)
   15f1a:	c509                	beqz	a0,15f24 <_svfprintf_r+0x872>
   15f1c:	4785                	li	a5,1
   15f1e:	41878c33          	sub	s8,a5,s8
   15f22:	dd62                	sw	s8,184(sp)
   15f24:	57ea                	lw	a5,184(sp)
   15f26:	9a3e                	add	s4,s4,a5
   15f28:	090c                	addi	a1,sp,144
   15f2a:	1108                	addi	a0,sp,160
   15f2c:	c4c6                	sw	a7,72(sp)
   15f2e:	d172                	sw	t3,160(sp)
   15f30:	d36e                	sw	s11,164(sp)
   15f32:	d566                	sw	s9,168(sp)
   15f34:	d756                	sw	s5,172(sp)
   15f36:	c902                	sw	zero,144(sp)
   15f38:	cb02                	sw	zero,148(sp)
   15f3a:	cd02                	sw	zero,152(sp)
   15f3c:	cf02                	sw	zero,156(sp)
   15f3e:	7bd030ef          	jal	ra,19efa <__eqtf2>
   15f42:	48a6                	lw	a7,72(sp)
   15f44:	03000713          	li	a4,48
   15f48:	e909                	bnez	a0,15f5a <_svfprintf_r+0x8a8>
   15f4a:	c1d2                	sw	s4,192(sp)
   15f4c:	4a0e                	lw	s4,192(sp)
   15f4e:	b53d                	j	15d7c <_svfprintf_r+0x6ca>
   15f50:	00178693          	addi	a3,a5,1
   15f54:	c1b6                	sw	a3,192(sp)
   15f56:	00e78023          	sb	a4,0(a5)
   15f5a:	478e                	lw	a5,192(sp)
   15f5c:	ff47eae3          	bltu	a5,s4,15f50 <_svfprintf_r+0x89e>
   15f60:	b7f5                	j	15f4c <_svfprintf_r+0x89a>
   15f62:	04600713          	li	a4,70
   15f66:	e2eb98e3          	bne	s7,a4,15d96 <_svfprintf_r+0x6e4>
   15f6a:	05905763          	blez	s9,15fb8 <_svfprintf_r+0x906>
   15f6e:	000b1563          	bnez	s6,15f78 <_svfprintf_r+0x8c6>
   15f72:	00147713          	andi	a4,s0,1
   15f76:	cf41                	beqz	a4,1600e <_svfprintf_r+0x95c>
   15f78:	5782                	lw	a5,32(sp)
   15f7a:	00fc8733          	add	a4,s9,a5
   15f7e:	9b3a                	add	s6,s6,a4
   15f80:	06600d13          	li	s10,102
   15f84:	a895                	j	15ff8 <_svfprintf_r+0x946>
   15f86:	8732                	mv	a4,a2
   15f88:	bda1                	j	15de0 <_svfprintf_r+0x72e>
   15f8a:	0705                	addi	a4,a4,1
   15f8c:	fff74783          	lbu	a5,-1(a4)
   15f90:	0605                	addi	a2,a2,1
   15f92:	fef60fa3          	sb	a5,-1(a2)
   15f96:	bd85                	j	15e06 <_svfprintf_r+0x754>
   15f98:	12a10713          	addi	a4,sp,298
   15f9c:	e599                	bnez	a1,15faa <_svfprintf_r+0x8f8>
   15f9e:	03000793          	li	a5,48
   15fa2:	12f10523          	sb	a5,298(sp)
   15fa6:	12b10713          	addi	a4,sp,299
   15faa:	03068793          	addi	a5,a3,48
   15fae:	00170613          	addi	a2,a4,1
   15fb2:	00f70023          	sb	a5,0(a4)
   15fb6:	bd91                	j	15e0a <_svfprintf_r+0x758>
   15fb8:	000b1563          	bnez	s6,15fc2 <_svfprintf_r+0x910>
   15fbc:	00147713          	andi	a4,s0,1
   15fc0:	cb29                	beqz	a4,16012 <_svfprintf_r+0x960>
   15fc2:	5782                	lw	a5,32(sp)
   15fc4:	00178713          	addi	a4,a5,1
   15fc8:	bf5d                	j	15f7e <_svfprintf_r+0x8cc>
   15fca:	014ccc63          	blt	s9,s4,15fe2 <_svfprintf_r+0x930>
   15fce:	00147713          	andi	a4,s0,1
   15fd2:	8b66                	mv	s6,s9
   15fd4:	c701                	beqz	a4,15fdc <_svfprintf_r+0x92a>
   15fd6:	5782                	lw	a5,32(sp)
   15fd8:	00fc8b33          	add	s6,s9,a5
   15fdc:	06700d13          	li	s10,103
   15fe0:	a821                	j	15ff8 <_svfprintf_r+0x946>
   15fe2:	5782                	lw	a5,32(sp)
   15fe4:	06700d13          	li	s10,103
   15fe8:	00fa0b33          	add	s6,s4,a5
   15fec:	01904663          	bgtz	s9,15ff8 <_svfprintf_r+0x946>
   15ff0:	419b0333          	sub	t1,s6,s9
   15ff4:	00130b13          	addi	s6,t1,1
   15ff8:	40047b93          	andi	s7,s0,1024
   15ffc:	4c01                	li	s8,0
   15ffe:	e20b8ce3          	beqz	s7,15e36 <_svfprintf_r+0x784>
   16002:	4b81                	li	s7,0
   16004:	e39059e3          	blez	s9,15e36 <_svfprintf_r+0x784>
   16008:	0ff00693          	li	a3,255
   1600c:	a015                	j	16030 <_svfprintf_r+0x97e>
   1600e:	8b66                	mv	s6,s9
   16010:	bf85                	j	15f80 <_svfprintf_r+0x8ce>
   16012:	06600d13          	li	s10,102
   16016:	4b05                	li	s6,1
   16018:	b7c5                	j	15ff8 <_svfprintf_r+0x946>
   1601a:	03975063          	bge	a4,s9,1603a <_svfprintf_r+0x988>
   1601e:	47c2                	lw	a5,16(sp)
   16020:	40ec8cb3          	sub	s9,s9,a4
   16024:	0017c703          	lbu	a4,1(a5)
   16028:	c305                	beqz	a4,16048 <_svfprintf_r+0x996>
   1602a:	0785                	addi	a5,a5,1
   1602c:	0b85                	addi	s7,s7,1
   1602e:	c83e                	sw	a5,16(sp)
   16030:	47c2                	lw	a5,16(sp)
   16032:	0007c703          	lbu	a4,0(a5)
   16036:	fed712e3          	bne	a4,a3,1601a <_svfprintf_r+0x968>
   1603a:	57c2                	lw	a5,48(sp)
   1603c:	018b8733          	add	a4,s7,s8
   16040:	02f70733          	mul	a4,a4,a5
   16044:	9b3a                	add	s6,s6,a4
   16046:	bbc5                	j	15e36 <_svfprintf_r+0x784>
   16048:	0c05                	addi	s8,s8,1
   1604a:	b7dd                	j	16030 <_svfprintf_r+0x97e>
   1604c:	004a8713          	addi	a4,s5,4
   16050:	cc3a                	sw	a4,24(sp)
   16052:	02047713          	andi	a4,s0,32
   16056:	000aa783          	lw	a5,0(s5)
   1605a:	cb09                	beqz	a4,1606c <_svfprintf_r+0x9ba>
   1605c:	5712                	lw	a4,36(sp)
   1605e:	c398                	sw	a4,0(a5)
   16060:	877d                	srai	a4,a4,0x1f
   16062:	c3d8                	sw	a4,4(a5)
   16064:	4ae2                	lw	s5,24(sp)
   16066:	44f2                	lw	s1,28(sp)
   16068:	f08ff06f          	j	15770 <_svfprintf_r+0xbe>
   1606c:	01047713          	andi	a4,s0,16
   16070:	c701                	beqz	a4,16078 <_svfprintf_r+0x9c6>
   16072:	5712                	lw	a4,36(sp)
   16074:	c398                	sw	a4,0(a5)
   16076:	b7fd                	j	16064 <_svfprintf_r+0x9b2>
   16078:	04047713          	andi	a4,s0,64
   1607c:	c709                	beqz	a4,16086 <_svfprintf_r+0x9d4>
   1607e:	5712                	lw	a4,36(sp)
   16080:	00e79023          	sh	a4,0(a5)
   16084:	b7c5                	j	16064 <_svfprintf_r+0x9b2>
   16086:	20047413          	andi	s0,s0,512
   1608a:	d465                	beqz	s0,16072 <_svfprintf_r+0x9c0>
   1608c:	5712                	lw	a4,36(sp)
   1608e:	00e78023          	sb	a4,0(a5)
   16092:	bfc9                	j	16064 <_svfprintf_r+0x9b2>
   16094:	01046413          	ori	s0,s0,16
   16098:	02047793          	andi	a5,s0,32
   1609c:	c3a1                	beqz	a5,160dc <_svfprintf_r+0xa2a>
   1609e:	0a9d                	addi	s5,s5,7
   160a0:	ff8afa93          	andi	s5,s5,-8
   160a4:	000aac03          	lw	s8,0(s5)
   160a8:	004aac83          	lw	s9,4(s5)
   160ac:	008a8793          	addi	a5,s5,8
   160b0:	cc3e                	sw	a5,24(sp)
   160b2:	bff47413          	andi	s0,s0,-1025
   160b6:	4781                	li	a5,0
   160b8:	0a010ba3          	sb	zero,183(sp)
   160bc:	577d                	li	a4,-1
   160be:	2eeb0d63          	beq	s6,a4,163b8 <_svfprintf_r+0xd06>
   160c2:	8722                	mv	a4,s0
   160c4:	019c66b3          	or	a3,s8,s9
   160c8:	f7f47413          	andi	s0,s0,-129
   160cc:	2e069663          	bnez	a3,163b8 <_svfprintf_r+0xd06>
   160d0:	3e0b0e63          	beqz	s6,164cc <_svfprintf_r+0xe1a>
   160d4:	4705                	li	a4,1
   160d6:	2ee79463          	bne	a5,a4,163be <_svfprintf_r+0xd0c>
   160da:	b8d5                	j	159ce <_svfprintf_r+0x31c>
   160dc:	004a8793          	addi	a5,s5,4
   160e0:	cc3e                	sw	a5,24(sp)
   160e2:	01047793          	andi	a5,s0,16
   160e6:	c781                	beqz	a5,160ee <_svfprintf_r+0xa3c>
   160e8:	000aac03          	lw	s8,0(s5)
   160ec:	a031                	j	160f8 <_svfprintf_r+0xa46>
   160ee:	04047793          	andi	a5,s0,64
   160f2:	c789                	beqz	a5,160fc <_svfprintf_r+0xa4a>
   160f4:	000adc03          	lhu	s8,0(s5)
   160f8:	4c81                	li	s9,0
   160fa:	bf65                	j	160b2 <_svfprintf_r+0xa00>
   160fc:	20047793          	andi	a5,s0,512
   16100:	d7e5                	beqz	a5,160e8 <_svfprintf_r+0xa36>
   16102:	000acc03          	lbu	s8,0(s5)
   16106:	bfcd                	j	160f8 <_svfprintf_r+0xa46>
   16108:	004a8793          	addi	a5,s5,4
   1610c:	cc3e                	sw	a5,24(sp)
   1610e:	77e1                	lui	a5,0xffff8
   16110:	8307c793          	xori	a5,a5,-2000
   16114:	12f11223          	sh	a5,292(sp)
   16118:	67f1                	lui	a5,0x1c
   1611a:	48878793          	addi	a5,a5,1160 # 1c488 <zeroes.4447+0x20>
   1611e:	c0be                	sw	a5,64(sp)
   16120:	000aac03          	lw	s8,0(s5)
   16124:	4c81                	li	s9,0
   16126:	00246413          	ori	s0,s0,2
   1612a:	4789                	li	a5,2
   1612c:	07800d13          	li	s10,120
   16130:	b761                	j	160b8 <_svfprintf_r+0xa06>
   16132:	004a8793          	addi	a5,s5,4
   16136:	cc3e                	sw	a5,24(sp)
   16138:	0a010ba3          	sb	zero,183(sp)
   1613c:	57fd                	li	a5,-1
   1613e:	d646                	sw	a7,44(sp)
   16140:	000aa483          	lw	s1,0(s5)
   16144:	00fb0f63          	beq	s6,a5,16162 <_svfprintf_r+0xab0>
   16148:	865a                	mv	a2,s6
   1614a:	4581                	li	a1,0
   1614c:	8526                	mv	a0,s1
   1614e:	fe9fd0ef          	jal	ra,14136 <memchr>
   16152:	c62a                	sw	a0,12(sp)
   16154:	58b2                	lw	a7,44(sp)
   16156:	92050ae3          	beqz	a0,15a8a <_svfprintf_r+0x3d8>
   1615a:	40950b33          	sub	s6,a0,s1
   1615e:	c602                	sw	zero,12(sp)
   16160:	b22d                	j	15a8a <_svfprintf_r+0x3d8>
   16162:	8526                	mv	a0,s1
   16164:	ab8fa0ef          	jal	ra,1041c <strlen>
   16168:	58b2                	lw	a7,44(sp)
   1616a:	8b2a                	mv	s6,a0
   1616c:	c602                	sw	zero,12(sp)
   1616e:	4a81                	li	s5,0
   16170:	4c01                	li	s8,0
   16172:	4b81                	li	s7,0
   16174:	4c81                	li	s9,0
   16176:	d656                	sw	s5,44(sp)
   16178:	016ad363          	bge	s5,s6,1617e <_svfprintf_r+0xacc>
   1617c:	d65a                	sw	s6,44(sp)
   1617e:	0b714703          	lbu	a4,183(sp)
   16182:	c701                	beqz	a4,1618a <_svfprintf_r+0xad8>
   16184:	57b2                	lw	a5,44(sp)
   16186:	0785                	addi	a5,a5,1
   16188:	d63e                	sw	a5,44(sp)
   1618a:	00247d93          	andi	s11,s0,2
   1618e:	000d8563          	beqz	s11,16198 <_svfprintf_r+0xae6>
   16192:	57b2                	lw	a5,44(sp)
   16194:	0789                	addi	a5,a5,2
   16196:	d63e                	sw	a5,44(sp)
   16198:	08447793          	andi	a5,s0,132
   1619c:	c2be                	sw	a5,68(sp)
   1619e:	e7b9                	bnez	a5,161ec <_svfprintf_r+0xb3a>
   161a0:	57a2                	lw	a5,40(sp)
   161a2:	5732                	lw	a4,44(sp)
   161a4:	40e78e33          	sub	t3,a5,a4
   161a8:	05c05263          	blez	t3,161ec <_svfprintf_r+0xb3a>
   161ac:	6ef5                	lui	t4,0x1d
   161ae:	4f41                	li	t5,16
   161b0:	a3ce8e93          	addi	t4,t4,-1476 # 1ca3c <blanks.4431>
   161b4:	4f9d                	li	t6,7
   161b6:	46ae                	lw	a3,200(sp)
   161b8:	01d8a023          	sw	t4,0(a7)
   161bc:	473e                	lw	a4,204(sp)
   161be:	0685                	addi	a3,a3,1
   161c0:	00888613          	addi	a2,a7,8
   161c4:	33cf4763          	blt	t5,t3,164f2 <_svfprintf_r+0xe40>
   161c8:	9772                	add	a4,a4,t3
   161ca:	01c8a223          	sw	t3,4(a7)
   161ce:	c7ba                	sw	a4,204(sp)
   161d0:	c5b6                	sw	a3,200(sp)
   161d2:	471d                	li	a4,7
   161d4:	88b2                	mv	a7,a2
   161d6:	00d75b63          	bge	a4,a3,161ec <_svfprintf_r+0xb3a>
   161da:	01d0                	addi	a2,sp,196
   161dc:	85ce                	mv	a1,s3
   161de:	854a                	mv	a0,s2
   161e0:	775010ef          	jal	ra,18154 <__ssprint_r>
   161e4:	1e0518e3          	bnez	a0,16bd4 <_svfprintf_r+0x1522>
   161e8:	0e410893          	addi	a7,sp,228
   161ec:	0b714703          	lbu	a4,183(sp)
   161f0:	cb1d                	beqz	a4,16226 <_svfprintf_r+0xb74>
   161f2:	0b710713          	addi	a4,sp,183
   161f6:	00e8a023          	sw	a4,0(a7)
   161fa:	4705                	li	a4,1
   161fc:	00e8a223          	sw	a4,4(a7)
   16200:	473e                	lw	a4,204(sp)
   16202:	469d                	li	a3,7
   16204:	08a1                	addi	a7,a7,8
   16206:	0705                	addi	a4,a4,1
   16208:	c7ba                	sw	a4,204(sp)
   1620a:	472e                	lw	a4,200(sp)
   1620c:	0705                	addi	a4,a4,1
   1620e:	c5ba                	sw	a4,200(sp)
   16210:	00e6db63          	bge	a3,a4,16226 <_svfprintf_r+0xb74>
   16214:	01d0                	addi	a2,sp,196
   16216:	85ce                	mv	a1,s3
   16218:	854a                	mv	a0,s2
   1621a:	73b010ef          	jal	ra,18154 <__ssprint_r>
   1621e:	1a051be3          	bnez	a0,16bd4 <_svfprintf_r+0x1522>
   16222:	0e410893          	addi	a7,sp,228
   16226:	020d8b63          	beqz	s11,1625c <_svfprintf_r+0xbaa>
   1622a:	1258                	addi	a4,sp,292
   1622c:	00e8a023          	sw	a4,0(a7)
   16230:	4709                	li	a4,2
   16232:	00e8a223          	sw	a4,4(a7)
   16236:	473e                	lw	a4,204(sp)
   16238:	469d                	li	a3,7
   1623a:	08a1                	addi	a7,a7,8
   1623c:	0709                	addi	a4,a4,2
   1623e:	c7ba                	sw	a4,204(sp)
   16240:	472e                	lw	a4,200(sp)
   16242:	0705                	addi	a4,a4,1
   16244:	c5ba                	sw	a4,200(sp)
   16246:	00e6db63          	bge	a3,a4,1625c <_svfprintf_r+0xbaa>
   1624a:	01d0                	addi	a2,sp,196
   1624c:	85ce                	mv	a1,s3
   1624e:	854a                	mv	a0,s2
   16250:	705010ef          	jal	ra,18154 <__ssprint_r>
   16254:	180510e3          	bnez	a0,16bd4 <_svfprintf_r+0x1522>
   16258:	0e410893          	addi	a7,sp,228
   1625c:	4796                	lw	a5,68(sp)
   1625e:	08000713          	li	a4,128
   16262:	04e79663          	bne	a5,a4,162ae <_svfprintf_r+0xbfc>
   16266:	57a2                	lw	a5,40(sp)
   16268:	5732                	lw	a4,44(sp)
   1626a:	40e78db3          	sub	s11,a5,a4
   1626e:	05b05063          	blez	s11,162ae <_svfprintf_r+0xbfc>
   16272:	47c1                	li	a5,16
   16274:	4e1d                	li	t3,7
   16276:	472e                	lw	a4,200(sp)
   16278:	46be                	lw	a3,204(sp)
   1627a:	00888613          	addi	a2,a7,8
   1627e:	0705                	addi	a4,a4,1
   16280:	2bb7c363          	blt	a5,s11,16526 <_svfprintf_r+0xe74>
   16284:	47d2                	lw	a5,20(sp)
   16286:	01b8a223          	sw	s11,4(a7)
   1628a:	9db6                	add	s11,s11,a3
   1628c:	00f8a023          	sw	a5,0(a7)
   16290:	c7ee                	sw	s11,204(sp)
   16292:	c5ba                	sw	a4,200(sp)
   16294:	469d                	li	a3,7
   16296:	88b2                	mv	a7,a2
   16298:	00e6db63          	bge	a3,a4,162ae <_svfprintf_r+0xbfc>
   1629c:	01d0                	addi	a2,sp,196
   1629e:	85ce                	mv	a1,s3
   162a0:	854a                	mv	a0,s2
   162a2:	6b3010ef          	jal	ra,18154 <__ssprint_r>
   162a6:	120517e3          	bnez	a0,16bd4 <_svfprintf_r+0x1522>
   162aa:	0e410893          	addi	a7,sp,228
   162ae:	416a8ab3          	sub	s5,s5,s6
   162b2:	05505063          	blez	s5,162f2 <_svfprintf_r+0xc40>
   162b6:	4dc1                	li	s11,16
   162b8:	481d                	li	a6,7
   162ba:	47d2                	lw	a5,20(sp)
   162bc:	472e                	lw	a4,200(sp)
   162be:	46be                	lw	a3,204(sp)
   162c0:	00f8a023          	sw	a5,0(a7)
   162c4:	0705                	addi	a4,a4,1
   162c6:	00888613          	addi	a2,a7,8
   162ca:	295dc763          	blt	s11,s5,16558 <_svfprintf_r+0xea6>
   162ce:	0158a223          	sw	s5,4(a7)
   162d2:	9ab6                	add	s5,s5,a3
   162d4:	c7d6                	sw	s5,204(sp)
   162d6:	c5ba                	sw	a4,200(sp)
   162d8:	469d                	li	a3,7
   162da:	88b2                	mv	a7,a2
   162dc:	00e6db63          	bge	a3,a4,162f2 <_svfprintf_r+0xc40>
   162e0:	01d0                	addi	a2,sp,196
   162e2:	85ce                	mv	a1,s3
   162e4:	854a                	mv	a0,s2
   162e6:	66f010ef          	jal	ra,18154 <__ssprint_r>
   162ea:	0e0515e3          	bnez	a0,16bd4 <_svfprintf_r+0x1522>
   162ee:	0e410893          	addi	a7,sp,228
   162f2:	10047713          	andi	a4,s0,256
   162f6:	4dbe                	lw	s11,204(sp)
   162f8:	28071463          	bnez	a4,16580 <_svfprintf_r+0xece>
   162fc:	01bb0333          	add	t1,s6,s11
   16300:	0098a023          	sw	s1,0(a7)
   16304:	0168a223          	sw	s6,4(a7)
   16308:	c79a                	sw	t1,204(sp)
   1630a:	47ae                	lw	a5,200(sp)
   1630c:	471d                	li	a4,7
   1630e:	08a1                	addi	a7,a7,8
   16310:	0785                	addi	a5,a5,1
   16312:	c5be                	sw	a5,200(sp)
   16314:	34f75163          	bge	a4,a5,16656 <_svfprintf_r+0xfa4>
   16318:	01d0                	addi	a2,sp,196
   1631a:	85ce                	mv	a1,s3
   1631c:	854a                	mv	a0,s2
   1631e:	637010ef          	jal	ra,18154 <__ssprint_r>
   16322:	0a0519e3          	bnez	a0,16bd4 <_svfprintf_r+0x1522>
   16326:	0e410893          	addi	a7,sp,228
   1632a:	a635                	j	16656 <_svfprintf_r+0xfa4>
   1632c:	01046413          	ori	s0,s0,16
   16330:	02047793          	andi	a5,s0,32
   16334:	cf89                	beqz	a5,1634e <_svfprintf_r+0xc9c>
   16336:	0a9d                	addi	s5,s5,7
   16338:	ff8afa93          	andi	s5,s5,-8
   1633c:	000aac03          	lw	s8,0(s5)
   16340:	004aac83          	lw	s9,4(s5)
   16344:	008a8793          	addi	a5,s5,8
   16348:	cc3e                	sw	a5,24(sp)
   1634a:	4785                	li	a5,1
   1634c:	b3b5                	j	160b8 <_svfprintf_r+0xa06>
   1634e:	004a8793          	addi	a5,s5,4
   16352:	cc3e                	sw	a5,24(sp)
   16354:	01047793          	andi	a5,s0,16
   16358:	c781                	beqz	a5,16360 <_svfprintf_r+0xcae>
   1635a:	000aac03          	lw	s8,0(s5)
   1635e:	a031                	j	1636a <_svfprintf_r+0xcb8>
   16360:	04047793          	andi	a5,s0,64
   16364:	c789                	beqz	a5,1636e <_svfprintf_r+0xcbc>
   16366:	000adc03          	lhu	s8,0(s5)
   1636a:	4c81                	li	s9,0
   1636c:	bff9                	j	1634a <_svfprintf_r+0xc98>
   1636e:	20047793          	andi	a5,s0,512
   16372:	d7e5                	beqz	a5,1635a <_svfprintf_r+0xca8>
   16374:	000acc03          	lbu	s8,0(s5)
   16378:	bfcd                	j	1636a <_svfprintf_r+0xcb8>
   1637a:	67f1                	lui	a5,0x1c
   1637c:	48878793          	addi	a5,a5,1160 # 1c488 <zeroes.4447+0x20>
   16380:	c88ff06f          	j	15808 <_svfprintf_r+0x156>
   16384:	004a8793          	addi	a5,s5,4
   16388:	cc3e                	sw	a5,24(sp)
   1638a:	01047793          	andi	a5,s0,16
   1638e:	c781                	beqz	a5,16396 <_svfprintf_r+0xce4>
   16390:	000aac03          	lw	s8,0(s5)
   16394:	a031                	j	163a0 <_svfprintf_r+0xcee>
   16396:	04047793          	andi	a5,s0,64
   1639a:	c791                	beqz	a5,163a6 <_svfprintf_r+0xcf4>
   1639c:	000adc03          	lhu	s8,0(s5)
   163a0:	4c81                	li	s9,0
   163a2:	c84ff06f          	j	15826 <_svfprintf_r+0x174>
   163a6:	20047793          	andi	a5,s0,512
   163aa:	d3fd                	beqz	a5,16390 <_svfprintf_r+0xcde>
   163ac:	000acc03          	lbu	s8,0(s5)
   163b0:	bfc5                	j	163a0 <_svfprintf_r+0xcee>
   163b2:	8722                	mv	a4,s0
   163b4:	4785                	li	a5,1
   163b6:	b339                	j	160c4 <_svfprintf_r+0xa12>
   163b8:	4705                	li	a4,1
   163ba:	e0e78563          	beq	a5,a4,159c4 <_svfprintf_r+0x312>
   163be:	4709                	li	a4,2
   163c0:	0ee78063          	beq	a5,a4,164a0 <_svfprintf_r+0xdee>
   163c4:	0b7c                	addi	a5,sp,412
   163c6:	01dc9693          	slli	a3,s9,0x1d
   163ca:	007c7713          	andi	a4,s8,7
   163ce:	003c5c13          	srli	s8,s8,0x3
   163d2:	03070713          	addi	a4,a4,48
   163d6:	0186ec33          	or	s8,a3,s8
   163da:	003cdc93          	srli	s9,s9,0x3
   163de:	fee78fa3          	sb	a4,-1(a5)
   163e2:	019c66b3          	or	a3,s8,s9
   163e6:	fff78493          	addi	s1,a5,-1
   163ea:	e695                	bnez	a3,16416 <_svfprintf_r+0xd64>
   163ec:	00147693          	andi	a3,s0,1
   163f0:	ca89                	beqz	a3,16402 <_svfprintf_r+0xd50>
   163f2:	03000693          	li	a3,48
   163f6:	00d70663          	beq	a4,a3,16402 <_svfprintf_r+0xd50>
   163fa:	fed48fa3          	sb	a3,-1(s1)
   163fe:	ffe78493          	addi	s1,a5,-2
   16402:	19c10313          	addi	t1,sp,412
   16406:	8ada                	mv	s5,s6
   16408:	c602                	sw	zero,12(sp)
   1640a:	40930b33          	sub	s6,t1,s1
   1640e:	4c01                	li	s8,0
   16410:	4b81                	li	s7,0
   16412:	4c81                	li	s9,0
   16414:	b38d                	j	16176 <_svfprintf_r+0xac4>
   16416:	87a6                	mv	a5,s1
   16418:	b77d                	j	163c6 <_svfprintf_r+0xd14>
   1641a:	4a01                	li	s4,0
   1641c:	19c10d93          	addi	s11,sp,412
   16420:	40047a93          	andi	s5,s0,1024
   16424:	4ba5                	li	s7,9
   16426:	4629                	li	a2,10
   16428:	4681                	li	a3,0
   1642a:	8562                	mv	a0,s8
   1642c:	85e6                	mv	a1,s9
   1642e:	c646                	sw	a7,12(sp)
   16430:	5f3020ef          	jal	ra,19222 <__umoddi3>
   16434:	03050513          	addi	a0,a0,48
   16438:	fead8fa3          	sb	a0,-1(s11)
   1643c:	fffd8493          	addi	s1,s11,-1
   16440:	0a05                	addi	s4,s4,1
   16442:	48b2                	lw	a7,12(sp)
   16444:	040a8063          	beqz	s5,16484 <_svfprintf_r+0xdd2>
   16448:	47c2                	lw	a5,16(sp)
   1644a:	0007c783          	lbu	a5,0(a5)
   1644e:	02fa1b63          	bne	s4,a5,16484 <_svfprintf_r+0xdd2>
   16452:	0ff00793          	li	a5,255
   16456:	02fa0763          	beq	s4,a5,16484 <_svfprintf_r+0xdd2>
   1645a:	000c9463          	bnez	s9,16462 <_svfprintf_r+0xdb0>
   1645e:	038bf363          	bgeu	s7,s8,16484 <_svfprintf_r+0xdd2>
   16462:	57c2                	lw	a5,48(sp)
   16464:	55e2                	lw	a1,56(sp)
   16466:	c646                	sw	a7,12(sp)
   16468:	8c9d                	sub	s1,s1,a5
   1646a:	863e                	mv	a2,a5
   1646c:	8526                	mv	a0,s1
   1646e:	a14ff0ef          	jal	ra,15682 <strncpy>
   16472:	47c2                	lw	a5,16(sp)
   16474:	4a01                	li	s4,0
   16476:	48b2                	lw	a7,12(sp)
   16478:	0017c783          	lbu	a5,1(a5)
   1647c:	c781                	beqz	a5,16484 <_svfprintf_r+0xdd2>
   1647e:	47c2                	lw	a5,16(sp)
   16480:	0785                	addi	a5,a5,1
   16482:	c83e                	sw	a5,16(sp)
   16484:	8562                	mv	a0,s8
   16486:	85e6                	mv	a1,s9
   16488:	4629                	li	a2,10
   1648a:	4681                	li	a3,0
   1648c:	c646                	sw	a7,12(sp)
   1648e:	23b020ef          	jal	ra,18ec8 <__udivdi3>
   16492:	8cae                	mv	s9,a1
   16494:	8dc9                	or	a1,a1,a0
   16496:	8c2a                	mv	s8,a0
   16498:	48b2                	lw	a7,12(sp)
   1649a:	d5a5                	beqz	a1,16402 <_svfprintf_r+0xd50>
   1649c:	8da6                	mv	s11,s1
   1649e:	b761                	j	16426 <_svfprintf_r+0xd74>
   164a0:	0b64                	addi	s1,sp,412
   164a2:	4706                	lw	a4,64(sp)
   164a4:	00fc7793          	andi	a5,s8,15
   164a8:	14fd                	addi	s1,s1,-1
   164aa:	97ba                	add	a5,a5,a4
   164ac:	0007c783          	lbu	a5,0(a5)
   164b0:	004c5c13          	srli	s8,s8,0x4
   164b4:	00f48023          	sb	a5,0(s1)
   164b8:	01cc9793          	slli	a5,s9,0x1c
   164bc:	0187ec33          	or	s8,a5,s8
   164c0:	004cdc93          	srli	s9,s9,0x4
   164c4:	019c67b3          	or	a5,s8,s9
   164c8:	ffe9                	bnez	a5,164a2 <_svfprintf_r+0xdf0>
   164ca:	bf25                	j	16402 <_svfprintf_r+0xd50>
   164cc:	0b64                	addi	s1,sp,412
   164ce:	fb95                	bnez	a5,16402 <_svfprintf_r+0xd50>
   164d0:	8b05                	andi	a4,a4,1
   164d2:	db05                	beqz	a4,16402 <_svfprintf_r+0xd50>
   164d4:	03000793          	li	a5,48
   164d8:	18f10da3          	sb	a5,411(sp)
   164dc:	cfaff06f          	j	159d6 <_svfprintf_r+0x324>
   164e0:	720d0b63          	beqz	s10,16c16 <_svfprintf_r+0x1564>
   164e4:	13a10c23          	sb	s10,312(sp)
   164e8:	0a010ba3          	sb	zero,183(sp)
   164ec:	cc56                	sw	s5,24(sp)
   164ee:	c84ff06f          	j	15972 <_svfprintf_r+0x2c0>
   164f2:	0741                	addi	a4,a4,16
   164f4:	01e8a223          	sw	t5,4(a7)
   164f8:	c7ba                	sw	a4,204(sp)
   164fa:	c5b6                	sw	a3,200(sp)
   164fc:	02dfd263          	bge	t6,a3,16520 <_svfprintf_r+0xe6e>
   16500:	01d0                	addi	a2,sp,196
   16502:	85ce                	mv	a1,s3
   16504:	854a                	mv	a0,s2
   16506:	ccfe                	sw	t6,88(sp)
   16508:	caf6                	sw	t4,84(sp)
   1650a:	c8fa                	sw	t5,80(sp)
   1650c:	c4f2                	sw	t3,72(sp)
   1650e:	447010ef          	jal	ra,18154 <__ssprint_r>
   16512:	6c051163          	bnez	a0,16bd4 <_svfprintf_r+0x1522>
   16516:	4fe6                	lw	t6,88(sp)
   16518:	4ed6                	lw	t4,84(sp)
   1651a:	4f46                	lw	t5,80(sp)
   1651c:	4e26                	lw	t3,72(sp)
   1651e:	11d0                	addi	a2,sp,228
   16520:	1e41                	addi	t3,t3,-16
   16522:	88b2                	mv	a7,a2
   16524:	b949                	j	161b6 <_svfprintf_r+0xb04>
   16526:	45d2                	lw	a1,20(sp)
   16528:	06c1                	addi	a3,a3,16
   1652a:	00f8a223          	sw	a5,4(a7)
   1652e:	00b8a023          	sw	a1,0(a7)
   16532:	c7b6                	sw	a3,204(sp)
   16534:	c5ba                	sw	a4,200(sp)
   16536:	00ee5e63          	bge	t3,a4,16552 <_svfprintf_r+0xea0>
   1653a:	01d0                	addi	a2,sp,196
   1653c:	85ce                	mv	a1,s3
   1653e:	854a                	mv	a0,s2
   16540:	c4f2                	sw	t3,72(sp)
   16542:	c2be                	sw	a5,68(sp)
   16544:	411010ef          	jal	ra,18154 <__ssprint_r>
   16548:	68051663          	bnez	a0,16bd4 <_svfprintf_r+0x1522>
   1654c:	4e26                	lw	t3,72(sp)
   1654e:	4796                	lw	a5,68(sp)
   16550:	11d0                	addi	a2,sp,228
   16552:	1dc1                	addi	s11,s11,-16
   16554:	88b2                	mv	a7,a2
   16556:	b305                	j	16276 <_svfprintf_r+0xbc4>
   16558:	06c1                	addi	a3,a3,16
   1655a:	01b8a223          	sw	s11,4(a7)
   1655e:	c7b6                	sw	a3,204(sp)
   16560:	c5ba                	sw	a4,200(sp)
   16562:	00e85c63          	bge	a6,a4,1657a <_svfprintf_r+0xec8>
   16566:	01d0                	addi	a2,sp,196
   16568:	85ce                	mv	a1,s3
   1656a:	854a                	mv	a0,s2
   1656c:	c2c2                	sw	a6,68(sp)
   1656e:	3e7010ef          	jal	ra,18154 <__ssprint_r>
   16572:	66051163          	bnez	a0,16bd4 <_svfprintf_r+0x1522>
   16576:	4816                	lw	a6,68(sp)
   16578:	11d0                	addi	a2,sp,228
   1657a:	1ac1                	addi	s5,s5,-16
   1657c:	88b2                	mv	a7,a2
   1657e:	bb35                	j	162ba <_svfprintf_r+0xc08>
   16580:	06500713          	li	a4,101
   16584:	4da75063          	bge	a4,s10,16a44 <_svfprintf_r+0x1392>
   16588:	474e                	lw	a4,208(sp)
   1658a:	090c                	addi	a1,sp,144
   1658c:	1108                	addi	a0,sp,160
   1658e:	d13a                	sw	a4,160(sp)
   16590:	475e                	lw	a4,212(sp)
   16592:	c2c6                	sw	a7,68(sp)
   16594:	c902                	sw	zero,144(sp)
   16596:	d33a                	sw	a4,164(sp)
   16598:	476e                	lw	a4,216(sp)
   1659a:	cb02                	sw	zero,148(sp)
   1659c:	cd02                	sw	zero,152(sp)
   1659e:	d53a                	sw	a4,168(sp)
   165a0:	477e                	lw	a4,220(sp)
   165a2:	cf02                	sw	zero,156(sp)
   165a4:	d73a                	sw	a4,172(sp)
   165a6:	155030ef          	jal	ra,19efa <__eqtf2>
   165aa:	4896                	lw	a7,68(sp)
   165ac:	10051263          	bnez	a0,166b0 <_svfprintf_r+0xffe>
   165b0:	67f1                	lui	a5,0x1c
   165b2:	4b078793          	addi	a5,a5,1200 # 1c4b0 <zeroes.4447+0x48>
   165b6:	00f8a023          	sw	a5,0(a7)
   165ba:	4785                	li	a5,1
   165bc:	00f8a223          	sw	a5,4(a7)
   165c0:	47ae                	lw	a5,200(sp)
   165c2:	0d85                	addi	s11,s11,1
   165c4:	c7ee                	sw	s11,204(sp)
   165c6:	0785                	addi	a5,a5,1
   165c8:	c5be                	sw	a5,200(sp)
   165ca:	471d                	li	a4,7
   165cc:	08a1                	addi	a7,a7,8
   165ce:	00f75b63          	bge	a4,a5,165e4 <_svfprintf_r+0xf32>
   165d2:	01d0                	addi	a2,sp,196
   165d4:	85ce                	mv	a1,s3
   165d6:	854a                	mv	a0,s2
   165d8:	37d010ef          	jal	ra,18154 <__ssprint_r>
   165dc:	5e051c63          	bnez	a0,16bd4 <_svfprintf_r+0x1522>
   165e0:	0e410893          	addi	a7,sp,228
   165e4:	57ea                	lw	a5,184(sp)
   165e6:	0147c563          	blt	a5,s4,165f0 <_svfprintf_r+0xf3e>
   165ea:	00147793          	andi	a5,s0,1
   165ee:	c7a5                	beqz	a5,16656 <_svfprintf_r+0xfa4>
   165f0:	57d2                	lw	a5,52(sp)
   165f2:	5702                	lw	a4,32(sp)
   165f4:	08a1                	addi	a7,a7,8
   165f6:	fef8ac23          	sw	a5,-8(a7)
   165fa:	5782                	lw	a5,32(sp)
   165fc:	fef8ae23          	sw	a5,-4(a7)
   16600:	47be                	lw	a5,204(sp)
   16602:	97ba                	add	a5,a5,a4
   16604:	c7be                	sw	a5,204(sp)
   16606:	47ae                	lw	a5,200(sp)
   16608:	471d                	li	a4,7
   1660a:	0785                	addi	a5,a5,1
   1660c:	c5be                	sw	a5,200(sp)
   1660e:	00f75b63          	bge	a4,a5,16624 <_svfprintf_r+0xf72>
   16612:	01d0                	addi	a2,sp,196
   16614:	85ce                	mv	a1,s3
   16616:	854a                	mv	a0,s2
   16618:	33d010ef          	jal	ra,18154 <__ssprint_r>
   1661c:	5a051c63          	bnez	a0,16bd4 <_svfprintf_r+0x1522>
   16620:	0e410893          	addi	a7,sp,228
   16624:	fffa0493          	addi	s1,s4,-1
   16628:	02905763          	blez	s1,16656 <_svfprintf_r+0xfa4>
   1662c:	4ac1                	li	s5,16
   1662e:	4b9d                	li	s7,7
   16630:	4652                	lw	a2,20(sp)
   16632:	47ae                	lw	a5,200(sp)
   16634:	473e                	lw	a4,204(sp)
   16636:	00c8a023          	sw	a2,0(a7)
   1663a:	0785                	addi	a5,a5,1
   1663c:	00888693          	addi	a3,a7,8
   16640:	049ac663          	blt	s5,s1,1668c <_svfprintf_r+0xfda>
   16644:	0098a223          	sw	s1,4(a7)
   16648:	94ba                	add	s1,s1,a4
   1664a:	c7a6                	sw	s1,204(sp)
   1664c:	c5be                	sw	a5,200(sp)
   1664e:	471d                	li	a4,7
   16650:	88b6                	mv	a7,a3
   16652:	ccf743e3          	blt	a4,a5,16318 <_svfprintf_r+0xc66>
   16656:	8811                	andi	s0,s0,4
   16658:	52041d63          	bnez	s0,16b92 <_svfprintf_r+0x14e0>
   1665c:	5d22                	lw	s10,40(sp)
   1665e:	57b2                	lw	a5,44(sp)
   16660:	00fd5363          	bge	s10,a5,16666 <_svfprintf_r+0xfb4>
   16664:	8d3e                	mv	s10,a5
   16666:	5792                	lw	a5,36(sp)
   16668:	97ea                	add	a5,a5,s10
   1666a:	d23e                	sw	a5,36(sp)
   1666c:	47be                	lw	a5,204(sp)
   1666e:	cb81                	beqz	a5,1667e <_svfprintf_r+0xfcc>
   16670:	01d0                	addi	a2,sp,196
   16672:	85ce                	mv	a1,s3
   16674:	854a                	mv	a0,s2
   16676:	2df010ef          	jal	ra,18154 <__ssprint_r>
   1667a:	54051d63          	bnez	a0,16bd4 <_svfprintf_r+0x1522>
   1667e:	47b2                	lw	a5,12(sp)
   16680:	c582                	sw	zero,200(sp)
   16682:	58079563          	bnez	a5,16c0c <_svfprintf_r+0x155a>
   16686:	0e410893          	addi	a7,sp,228
   1668a:	bae9                	j	16064 <_svfprintf_r+0x9b2>
   1668c:	0741                	addi	a4,a4,16
   1668e:	0158a223          	sw	s5,4(a7)
   16692:	c7ba                	sw	a4,204(sp)
   16694:	c5be                	sw	a5,200(sp)
   16696:	00fbda63          	bge	s7,a5,166aa <_svfprintf_r+0xff8>
   1669a:	01d0                	addi	a2,sp,196
   1669c:	85ce                	mv	a1,s3
   1669e:	854a                	mv	a0,s2
   166a0:	2b5010ef          	jal	ra,18154 <__ssprint_r>
   166a4:	52051863          	bnez	a0,16bd4 <_svfprintf_r+0x1522>
   166a8:	11d4                	addi	a3,sp,228
   166aa:	14c1                	addi	s1,s1,-16
   166ac:	88b6                	mv	a7,a3
   166ae:	b749                	j	16630 <_svfprintf_r+0xf7e>
   166b0:	576a                	lw	a4,184(sp)
   166b2:	0ee04963          	bgtz	a4,167a4 <_svfprintf_r+0x10f2>
   166b6:	67f1                	lui	a5,0x1c
   166b8:	4b078793          	addi	a5,a5,1200 # 1c4b0 <zeroes.4447+0x48>
   166bc:	00f8a023          	sw	a5,0(a7)
   166c0:	4785                	li	a5,1
   166c2:	00f8a223          	sw	a5,4(a7)
   166c6:	47ae                	lw	a5,200(sp)
   166c8:	0d85                	addi	s11,s11,1
   166ca:	c7ee                	sw	s11,204(sp)
   166cc:	0785                	addi	a5,a5,1
   166ce:	c5be                	sw	a5,200(sp)
   166d0:	471d                	li	a4,7
   166d2:	08a1                	addi	a7,a7,8
   166d4:	00f75b63          	bge	a4,a5,166ea <_svfprintf_r+0x1038>
   166d8:	01d0                	addi	a2,sp,196
   166da:	85ce                	mv	a1,s3
   166dc:	854a                	mv	a0,s2
   166de:	277010ef          	jal	ra,18154 <__ssprint_r>
   166e2:	4e051963          	bnez	a0,16bd4 <_svfprintf_r+0x1522>
   166e6:	0e410893          	addi	a7,sp,228
   166ea:	57ea                	lw	a5,184(sp)
   166ec:	e791                	bnez	a5,166f8 <_svfprintf_r+0x1046>
   166ee:	000a1563          	bnez	s4,166f8 <_svfprintf_r+0x1046>
   166f2:	00147793          	andi	a5,s0,1
   166f6:	d3a5                	beqz	a5,16656 <_svfprintf_r+0xfa4>
   166f8:	57d2                	lw	a5,52(sp)
   166fa:	5702                	lw	a4,32(sp)
   166fc:	08a1                	addi	a7,a7,8
   166fe:	fef8ac23          	sw	a5,-8(a7)
   16702:	5782                	lw	a5,32(sp)
   16704:	fef8ae23          	sw	a5,-4(a7)
   16708:	47be                	lw	a5,204(sp)
   1670a:	97ba                	add	a5,a5,a4
   1670c:	c7be                	sw	a5,204(sp)
   1670e:	47ae                	lw	a5,200(sp)
   16710:	471d                	li	a4,7
   16712:	0785                	addi	a5,a5,1
   16714:	c5be                	sw	a5,200(sp)
   16716:	00f75b63          	bge	a4,a5,1672c <_svfprintf_r+0x107a>
   1671a:	01d0                	addi	a2,sp,196
   1671c:	85ce                	mv	a1,s3
   1671e:	854a                	mv	a0,s2
   16720:	235010ef          	jal	ra,18154 <__ssprint_r>
   16724:	4a051863          	bnez	a0,16bd4 <_svfprintf_r+0x1522>
   16728:	0e410893          	addi	a7,sp,228
   1672c:	5aea                	lw	s5,184(sp)
   1672e:	040ad063          	bgez	s5,1676e <_svfprintf_r+0x10bc>
   16732:	41500ab3          	neg	s5,s5
   16736:	8746                	mv	a4,a7
   16738:	4bc1                	li	s7,16
   1673a:	4c1d                	li	s8,7
   1673c:	4652                	lw	a2,20(sp)
   1673e:	47ae                	lw	a5,200(sp)
   16740:	46be                	lw	a3,204(sp)
   16742:	c310                	sw	a2,0(a4)
   16744:	0785                	addi	a5,a5,1
   16746:	08a1                	addi	a7,a7,8
   16748:	035bcb63          	blt	s7,s5,1677e <_svfprintf_r+0x10cc>
   1674c:	01572223          	sw	s5,4(a4)
   16750:	9ab6                	add	s5,s5,a3
   16752:	c7d6                	sw	s5,204(sp)
   16754:	c5be                	sw	a5,200(sp)
   16756:	471d                	li	a4,7
   16758:	00f75b63          	bge	a4,a5,1676e <_svfprintf_r+0x10bc>
   1675c:	01d0                	addi	a2,sp,196
   1675e:	85ce                	mv	a1,s3
   16760:	854a                	mv	a0,s2
   16762:	1f3010ef          	jal	ra,18154 <__ssprint_r>
   16766:	46051763          	bnez	a0,16bd4 <_svfprintf_r+0x1522>
   1676a:	0e410893          	addi	a7,sp,228
   1676e:	47be                	lw	a5,204(sp)
   16770:	0098a023          	sw	s1,0(a7)
   16774:	0148a223          	sw	s4,4(a7)
   16778:	97d2                	add	a5,a5,s4
   1677a:	c7be                	sw	a5,204(sp)
   1677c:	b679                	j	1630a <_svfprintf_r+0xc58>
   1677e:	06c1                	addi	a3,a3,16
   16780:	01772223          	sw	s7,4(a4)
   16784:	c7b6                	sw	a3,204(sp)
   16786:	c5be                	sw	a5,200(sp)
   16788:	00fc5b63          	bge	s8,a5,1679e <_svfprintf_r+0x10ec>
   1678c:	01d0                	addi	a2,sp,196
   1678e:	85ce                	mv	a1,s3
   16790:	854a                	mv	a0,s2
   16792:	1c3010ef          	jal	ra,18154 <__ssprint_r>
   16796:	42051f63          	bnez	a0,16bd4 <_svfprintf_r+0x1522>
   1679a:	0e410893          	addi	a7,sp,228
   1679e:	1ac1                	addi	s5,s5,-16
   167a0:	8746                	mv	a4,a7
   167a2:	bf69                	j	1673c <_svfprintf_r+0x108a>
   167a4:	8ae6                	mv	s5,s9
   167a6:	019a5363          	bge	s4,s9,167ac <_svfprintf_r+0x10fa>
   167aa:	8ad2                	mv	s5,s4
   167ac:	03505863          	blez	s5,167dc <_svfprintf_r+0x112a>
   167b0:	472e                	lw	a4,200(sp)
   167b2:	9dd6                	add	s11,s11,s5
   167b4:	0098a023          	sw	s1,0(a7)
   167b8:	0705                	addi	a4,a4,1
   167ba:	0158a223          	sw	s5,4(a7)
   167be:	c7ee                	sw	s11,204(sp)
   167c0:	c5ba                	sw	a4,200(sp)
   167c2:	469d                	li	a3,7
   167c4:	08a1                	addi	a7,a7,8
   167c6:	00e6db63          	bge	a3,a4,167dc <_svfprintf_r+0x112a>
   167ca:	01d0                	addi	a2,sp,196
   167cc:	85ce                	mv	a1,s3
   167ce:	854a                	mv	a0,s2
   167d0:	185010ef          	jal	ra,18154 <__ssprint_r>
   167d4:	40051063          	bnez	a0,16bd4 <_svfprintf_r+0x1522>
   167d8:	0e410893          	addi	a7,sp,228
   167dc:	000ad363          	bgez	s5,167e2 <_svfprintf_r+0x1130>
   167e0:	4a81                	li	s5,0
   167e2:	415c8ab3          	sub	s5,s9,s5
   167e6:	05505063          	blez	s5,16826 <_svfprintf_r+0x1174>
   167ea:	4d41                	li	s10,16
   167ec:	4d9d                	li	s11,7
   167ee:	47d2                	lw	a5,20(sp)
   167f0:	472e                	lw	a4,200(sp)
   167f2:	46be                	lw	a3,204(sp)
   167f4:	00f8a023          	sw	a5,0(a7)
   167f8:	0705                	addi	a4,a4,1
   167fa:	00888613          	addi	a2,a7,8
   167fe:	115d4f63          	blt	s10,s5,1691c <_svfprintf_r+0x126a>
   16802:	0158a223          	sw	s5,4(a7)
   16806:	9ab6                	add	s5,s5,a3
   16808:	c7d6                	sw	s5,204(sp)
   1680a:	c5ba                	sw	a4,200(sp)
   1680c:	469d                	li	a3,7
   1680e:	88b2                	mv	a7,a2
   16810:	00e6db63          	bge	a3,a4,16826 <_svfprintf_r+0x1174>
   16814:	01d0                	addi	a2,sp,196
   16816:	85ce                	mv	a1,s3
   16818:	854a                	mv	a0,s2
   1681a:	13b010ef          	jal	ra,18154 <__ssprint_r>
   1681e:	3a051b63          	bnez	a0,16bd4 <_svfprintf_r+0x1522>
   16822:	0e410893          	addi	a7,sp,228
   16826:	40047793          	andi	a5,s0,1024
   1682a:	01948ab3          	add	s5,s1,s9
   1682e:	cf89                	beqz	a5,16848 <_svfprintf_r+0x1196>
   16830:	4d1d                	li	s10,7
   16832:	01448db3          	add	s11,s1,s4
   16836:	100b9563          	bnez	s7,16940 <_svfprintf_r+0x128e>
   1683a:	100c1563          	bnez	s8,16944 <_svfprintf_r+0x1292>
   1683e:	014487b3          	add	a5,s1,s4
   16842:	0157f363          	bgeu	a5,s5,16848 <_svfprintf_r+0x1196>
   16846:	8abe                	mv	s5,a5
   16848:	57ea                	lw	a5,184(sp)
   1684a:	0147c563          	blt	a5,s4,16854 <_svfprintf_r+0x11a2>
   1684e:	00147793          	andi	a5,s0,1
   16852:	cb9d                	beqz	a5,16888 <_svfprintf_r+0x11d6>
   16854:	57d2                	lw	a5,52(sp)
   16856:	5702                	lw	a4,32(sp)
   16858:	08a1                	addi	a7,a7,8
   1685a:	fef8ac23          	sw	a5,-8(a7)
   1685e:	5782                	lw	a5,32(sp)
   16860:	fef8ae23          	sw	a5,-4(a7)
   16864:	47be                	lw	a5,204(sp)
   16866:	97ba                	add	a5,a5,a4
   16868:	c7be                	sw	a5,204(sp)
   1686a:	47ae                	lw	a5,200(sp)
   1686c:	471d                	li	a4,7
   1686e:	0785                	addi	a5,a5,1
   16870:	c5be                	sw	a5,200(sp)
   16872:	00f75b63          	bge	a4,a5,16888 <_svfprintf_r+0x11d6>
   16876:	01d0                	addi	a2,sp,196
   16878:	85ce                	mv	a1,s3
   1687a:	854a                	mv	a0,s2
   1687c:	0d9010ef          	jal	ra,18154 <__ssprint_r>
   16880:	34051a63          	bnez	a0,16bd4 <_svfprintf_r+0x1522>
   16884:	0e410893          	addi	a7,sp,228
   16888:	94d2                	add	s1,s1,s4
   1688a:	415487b3          	sub	a5,s1,s5
   1688e:	54ea                	lw	s1,184(sp)
   16890:	409a04b3          	sub	s1,s4,s1
   16894:	0097d363          	bge	a5,s1,1689a <_svfprintf_r+0x11e8>
   16898:	84be                	mv	s1,a5
   1689a:	02905963          	blez	s1,168cc <_svfprintf_r+0x121a>
   1689e:	47be                	lw	a5,204(sp)
   168a0:	0158a023          	sw	s5,0(a7)
   168a4:	0098a223          	sw	s1,4(a7)
   168a8:	97a6                	add	a5,a5,s1
   168aa:	c7be                	sw	a5,204(sp)
   168ac:	47ae                	lw	a5,200(sp)
   168ae:	471d                	li	a4,7
   168b0:	08a1                	addi	a7,a7,8
   168b2:	0785                	addi	a5,a5,1
   168b4:	c5be                	sw	a5,200(sp)
   168b6:	00f75b63          	bge	a4,a5,168cc <_svfprintf_r+0x121a>
   168ba:	01d0                	addi	a2,sp,196
   168bc:	85ce                	mv	a1,s3
   168be:	854a                	mv	a0,s2
   168c0:	095010ef          	jal	ra,18154 <__ssprint_r>
   168c4:	30051863          	bnez	a0,16bd4 <_svfprintf_r+0x1522>
   168c8:	0e410893          	addi	a7,sp,228
   168cc:	87a6                	mv	a5,s1
   168ce:	0004d363          	bgez	s1,168d4 <_svfprintf_r+0x1222>
   168d2:	4781                	li	a5,0
   168d4:	54ea                	lw	s1,184(sp)
   168d6:	409a04b3          	sub	s1,s4,s1
   168da:	8c9d                	sub	s1,s1,a5
   168dc:	d6905de3          	blez	s1,16656 <_svfprintf_r+0xfa4>
   168e0:	4ac1                	li	s5,16
   168e2:	4b9d                	li	s7,7
   168e4:	4652                	lw	a2,20(sp)
   168e6:	47ae                	lw	a5,200(sp)
   168e8:	473e                	lw	a4,204(sp)
   168ea:	00c8a023          	sw	a2,0(a7)
   168ee:	0785                	addi	a5,a5,1
   168f0:	00888693          	addi	a3,a7,8
   168f4:	d49ad8e3          	bge	s5,s1,16644 <_svfprintf_r+0xf92>
   168f8:	0741                	addi	a4,a4,16
   168fa:	0158a223          	sw	s5,4(a7)
   168fe:	c7ba                	sw	a4,204(sp)
   16900:	c5be                	sw	a5,200(sp)
   16902:	00fbda63          	bge	s7,a5,16916 <_svfprintf_r+0x1264>
   16906:	01d0                	addi	a2,sp,196
   16908:	85ce                	mv	a1,s3
   1690a:	854a                	mv	a0,s2
   1690c:	049010ef          	jal	ra,18154 <__ssprint_r>
   16910:	2c051263          	bnez	a0,16bd4 <_svfprintf_r+0x1522>
   16914:	11d4                	addi	a3,sp,228
   16916:	14c1                	addi	s1,s1,-16
   16918:	88b6                	mv	a7,a3
   1691a:	b7e9                	j	168e4 <_svfprintf_r+0x1232>
   1691c:	06c1                	addi	a3,a3,16
   1691e:	01a8a223          	sw	s10,4(a7)
   16922:	c7b6                	sw	a3,204(sp)
   16924:	c5ba                	sw	a4,200(sp)
   16926:	00edda63          	bge	s11,a4,1693a <_svfprintf_r+0x1288>
   1692a:	01d0                	addi	a2,sp,196
   1692c:	85ce                	mv	a1,s3
   1692e:	854a                	mv	a0,s2
   16930:	025010ef          	jal	ra,18154 <__ssprint_r>
   16934:	2a051063          	bnez	a0,16bd4 <_svfprintf_r+0x1522>
   16938:	11d0                	addi	a2,sp,228
   1693a:	1ac1                	addi	s5,s5,-16
   1693c:	88b2                	mv	a7,a2
   1693e:	bd45                	j	167ee <_svfprintf_r+0x113c>
   16940:	080c0d63          	beqz	s8,169da <_svfprintf_r+0x1328>
   16944:	1c7d                	addi	s8,s8,-1
   16946:	57e2                	lw	a5,56(sp)
   16948:	5742                	lw	a4,48(sp)
   1694a:	08a1                	addi	a7,a7,8
   1694c:	fef8ac23          	sw	a5,-8(a7)
   16950:	57c2                	lw	a5,48(sp)
   16952:	fef8ae23          	sw	a5,-4(a7)
   16956:	47be                	lw	a5,204(sp)
   16958:	97ba                	add	a5,a5,a4
   1695a:	c7be                	sw	a5,204(sp)
   1695c:	47ae                	lw	a5,200(sp)
   1695e:	0785                	addi	a5,a5,1
   16960:	c5be                	sw	a5,200(sp)
   16962:	00fd5b63          	bge	s10,a5,16978 <_svfprintf_r+0x12c6>
   16966:	01d0                	addi	a2,sp,196
   16968:	85ce                	mv	a1,s3
   1696a:	854a                	mv	a0,s2
   1696c:	7e8010ef          	jal	ra,18154 <__ssprint_r>
   16970:	26051263          	bnez	a0,16bd4 <_svfprintf_r+0x1522>
   16974:	0e410893          	addi	a7,sp,228
   16978:	47c2                	lw	a5,16(sp)
   1697a:	415d8733          	sub	a4,s11,s5
   1697e:	0007cb03          	lbu	s6,0(a5)
   16982:	01675363          	bge	a4,s6,16988 <_svfprintf_r+0x12d6>
   16986:	8b3a                	mv	s6,a4
   16988:	03605863          	blez	s6,169b8 <_svfprintf_r+0x1306>
   1698c:	473e                	lw	a4,204(sp)
   1698e:	0158a023          	sw	s5,0(a7)
   16992:	0168a223          	sw	s6,4(a7)
   16996:	975a                	add	a4,a4,s6
   16998:	c7ba                	sw	a4,204(sp)
   1699a:	472e                	lw	a4,200(sp)
   1699c:	08a1                	addi	a7,a7,8
   1699e:	0705                	addi	a4,a4,1
   169a0:	c5ba                	sw	a4,200(sp)
   169a2:	00ed5b63          	bge	s10,a4,169b8 <_svfprintf_r+0x1306>
   169a6:	01d0                	addi	a2,sp,196
   169a8:	85ce                	mv	a1,s3
   169aa:	854a                	mv	a0,s2
   169ac:	7a8010ef          	jal	ra,18154 <__ssprint_r>
   169b0:	22051263          	bnez	a0,16bd4 <_svfprintf_r+0x1522>
   169b4:	0e410893          	addi	a7,sp,228
   169b8:	875a                	mv	a4,s6
   169ba:	000b5363          	bgez	s6,169c0 <_svfprintf_r+0x130e>
   169be:	4701                	li	a4,0
   169c0:	47c2                	lw	a5,16(sp)
   169c2:	4841                	li	a6,16
   169c4:	0007c783          	lbu	a5,0(a5)
   169c8:	40e78b33          	sub	s6,a5,a4
   169cc:	03604f63          	bgtz	s6,16a0a <_svfprintf_r+0x1358>
   169d0:	47c2                	lw	a5,16(sp)
   169d2:	0007c783          	lbu	a5,0(a5)
   169d6:	9abe                	add	s5,s5,a5
   169d8:	bdb9                	j	16836 <_svfprintf_r+0x1184>
   169da:	47c2                	lw	a5,16(sp)
   169dc:	1bfd                	addi	s7,s7,-1
   169de:	17fd                	addi	a5,a5,-1
   169e0:	c83e                	sw	a5,16(sp)
   169e2:	b795                	j	16946 <_svfprintf_r+0x1294>
   169e4:	06c1                	addi	a3,a3,16
   169e6:	0108a223          	sw	a6,4(a7)
   169ea:	c7b6                	sw	a3,204(sp)
   169ec:	c5ba                	sw	a4,200(sp)
   169ee:	00ed5c63          	bge	s10,a4,16a06 <_svfprintf_r+0x1354>
   169f2:	01d0                	addi	a2,sp,196
   169f4:	85ce                	mv	a1,s3
   169f6:	854a                	mv	a0,s2
   169f8:	c2c2                	sw	a6,68(sp)
   169fa:	75a010ef          	jal	ra,18154 <__ssprint_r>
   169fe:	1c051b63          	bnez	a0,16bd4 <_svfprintf_r+0x1522>
   16a02:	4816                	lw	a6,68(sp)
   16a04:	11d0                	addi	a2,sp,228
   16a06:	1b41                	addi	s6,s6,-16
   16a08:	88b2                	mv	a7,a2
   16a0a:	47d2                	lw	a5,20(sp)
   16a0c:	472e                	lw	a4,200(sp)
   16a0e:	46be                	lw	a3,204(sp)
   16a10:	00f8a023          	sw	a5,0(a7)
   16a14:	0705                	addi	a4,a4,1
   16a16:	00888613          	addi	a2,a7,8
   16a1a:	fd6845e3          	blt	a6,s6,169e4 <_svfprintf_r+0x1332>
   16a1e:	00db07b3          	add	a5,s6,a3
   16a22:	0168a223          	sw	s6,4(a7)
   16a26:	c7be                	sw	a5,204(sp)
   16a28:	c5ba                	sw	a4,200(sp)
   16a2a:	88b2                	mv	a7,a2
   16a2c:	faed52e3          	bge	s10,a4,169d0 <_svfprintf_r+0x131e>
   16a30:	01d0                	addi	a2,sp,196
   16a32:	85ce                	mv	a1,s3
   16a34:	854a                	mv	a0,s2
   16a36:	71e010ef          	jal	ra,18154 <__ssprint_r>
   16a3a:	18051d63          	bnez	a0,16bd4 <_svfprintf_r+0x1522>
   16a3e:	0e410893          	addi	a7,sp,228
   16a42:	b779                	j	169d0 <_svfprintf_r+0x131e>
   16a44:	47ae                	lw	a5,200(sp)
   16a46:	4705                	li	a4,1
   16a48:	0098a023          	sw	s1,0(a7)
   16a4c:	0d85                	addi	s11,s11,1
   16a4e:	0785                	addi	a5,a5,1
   16a50:	00888b93          	addi	s7,a7,8
   16a54:	01474663          	blt	a4,s4,16a60 <_svfprintf_r+0x13ae>
   16a58:	00147693          	andi	a3,s0,1
   16a5c:	12068363          	beqz	a3,16b82 <_svfprintf_r+0x14d0>
   16a60:	4705                	li	a4,1
   16a62:	00e8a223          	sw	a4,4(a7)
   16a66:	c7ee                	sw	s11,204(sp)
   16a68:	c5be                	sw	a5,200(sp)
   16a6a:	471d                	li	a4,7
   16a6c:	00f75b63          	bge	a4,a5,16a82 <_svfprintf_r+0x13d0>
   16a70:	01d0                	addi	a2,sp,196
   16a72:	85ce                	mv	a1,s3
   16a74:	854a                	mv	a0,s2
   16a76:	6de010ef          	jal	ra,18154 <__ssprint_r>
   16a7a:	14051d63          	bnez	a0,16bd4 <_svfprintf_r+0x1522>
   16a7e:	0e410b93          	addi	s7,sp,228
   16a82:	57d2                	lw	a5,52(sp)
   16a84:	5702                	lw	a4,32(sp)
   16a86:	0ba1                	addi	s7,s7,8
   16a88:	fefbac23          	sw	a5,-8(s7)
   16a8c:	5782                	lw	a5,32(sp)
   16a8e:	fefbae23          	sw	a5,-4(s7)
   16a92:	47be                	lw	a5,204(sp)
   16a94:	97ba                	add	a5,a5,a4
   16a96:	c7be                	sw	a5,204(sp)
   16a98:	47ae                	lw	a5,200(sp)
   16a9a:	471d                	li	a4,7
   16a9c:	0785                	addi	a5,a5,1
   16a9e:	c5be                	sw	a5,200(sp)
   16aa0:	00f75b63          	bge	a4,a5,16ab6 <_svfprintf_r+0x1404>
   16aa4:	01d0                	addi	a2,sp,196
   16aa6:	85ce                	mv	a1,s3
   16aa8:	854a                	mv	a0,s2
   16aaa:	6aa010ef          	jal	ra,18154 <__ssprint_r>
   16aae:	12051363          	bnez	a0,16bd4 <_svfprintf_r+0x1522>
   16ab2:	0e410b93          	addi	s7,sp,228
   16ab6:	47ce                	lw	a5,208(sp)
   16ab8:	090c                	addi	a1,sp,144
   16aba:	1108                	addi	a0,sp,160
   16abc:	d13e                	sw	a5,160(sp)
   16abe:	47de                	lw	a5,212(sp)
   16ac0:	fffa0a93          	addi	s5,s4,-1
   16ac4:	c902                	sw	zero,144(sp)
   16ac6:	d33e                	sw	a5,164(sp)
   16ac8:	47ee                	lw	a5,216(sp)
   16aca:	cb02                	sw	zero,148(sp)
   16acc:	cd02                	sw	zero,152(sp)
   16ace:	d53e                	sw	a5,168(sp)
   16ad0:	47fe                	lw	a5,220(sp)
   16ad2:	cf02                	sw	zero,156(sp)
   16ad4:	d73e                	sw	a5,172(sp)
   16ad6:	424030ef          	jal	ra,19efa <__eqtf2>
   16ada:	cd29                	beqz	a0,16b34 <_svfprintf_r+0x1482>
   16adc:	47be                	lw	a5,204(sp)
   16ade:	472e                	lw	a4,200(sp)
   16ae0:	0485                	addi	s1,s1,1
   16ae2:	17fd                	addi	a5,a5,-1
   16ae4:	97d2                	add	a5,a5,s4
   16ae6:	0705                	addi	a4,a4,1
   16ae8:	009ba023          	sw	s1,0(s7)
   16aec:	015ba223          	sw	s5,4(s7)
   16af0:	c7be                	sw	a5,204(sp)
   16af2:	c5ba                	sw	a4,200(sp)
   16af4:	479d                	li	a5,7
   16af6:	0ba1                	addi	s7,s7,8
   16af8:	00e7da63          	bge	a5,a4,16b0c <_svfprintf_r+0x145a>
   16afc:	01d0                	addi	a2,sp,196
   16afe:	85ce                	mv	a1,s3
   16b00:	854a                	mv	a0,s2
   16b02:	652010ef          	jal	ra,18154 <__ssprint_r>
   16b06:	e579                	bnez	a0,16bd4 <_svfprintf_r+0x1522>
   16b08:	0e410b93          	addi	s7,sp,228
   16b0c:	123c                	addi	a5,sp,296
   16b0e:	00fba023          	sw	a5,0(s7)
   16b12:	57f2                	lw	a5,60(sp)
   16b14:	5772                	lw	a4,60(sp)
   16b16:	008b8893          	addi	a7,s7,8
   16b1a:	00fba223          	sw	a5,4(s7)
   16b1e:	47be                	lw	a5,204(sp)
   16b20:	97ba                	add	a5,a5,a4
   16b22:	c7be                	sw	a5,204(sp)
   16b24:	47ae                	lw	a5,200(sp)
   16b26:	471d                	li	a4,7
   16b28:	0785                	addi	a5,a5,1
   16b2a:	c5be                	sw	a5,200(sp)
   16b2c:	b2f755e3          	bge	a4,a5,16656 <_svfprintf_r+0xfa4>
   16b30:	fe8ff06f          	j	16318 <_svfprintf_r+0xc66>
   16b34:	fd505ce3          	blez	s5,16b0c <_svfprintf_r+0x145a>
   16b38:	44c1                	li	s1,16
   16b3a:	4c1d                	li	s8,7
   16b3c:	4652                	lw	a2,20(sp)
   16b3e:	472e                	lw	a4,200(sp)
   16b40:	47be                	lw	a5,204(sp)
   16b42:	00cba023          	sw	a2,0(s7)
   16b46:	0705                	addi	a4,a4,1
   16b48:	008b8693          	addi	a3,s7,8
   16b4c:	0154ca63          	blt	s1,s5,16b60 <_svfprintf_r+0x14ae>
   16b50:	97d6                	add	a5,a5,s5
   16b52:	015ba223          	sw	s5,4(s7)
   16b56:	c7be                	sw	a5,204(sp)
   16b58:	c5ba                	sw	a4,200(sp)
   16b5a:	479d                	li	a5,7
   16b5c:	8bb6                	mv	s7,a3
   16b5e:	bf69                	j	16af8 <_svfprintf_r+0x1446>
   16b60:	07c1                	addi	a5,a5,16
   16b62:	009ba223          	sw	s1,4(s7)
   16b66:	c7be                	sw	a5,204(sp)
   16b68:	c5ba                	sw	a4,200(sp)
   16b6a:	00ec5963          	bge	s8,a4,16b7c <_svfprintf_r+0x14ca>
   16b6e:	01d0                	addi	a2,sp,196
   16b70:	85ce                	mv	a1,s3
   16b72:	854a                	mv	a0,s2
   16b74:	5e0010ef          	jal	ra,18154 <__ssprint_r>
   16b78:	ed31                	bnez	a0,16bd4 <_svfprintf_r+0x1522>
   16b7a:	11d4                	addi	a3,sp,228
   16b7c:	1ac1                	addi	s5,s5,-16
   16b7e:	8bb6                	mv	s7,a3
   16b80:	bf75                	j	16b3c <_svfprintf_r+0x148a>
   16b82:	00e8a223          	sw	a4,4(a7)
   16b86:	c7ee                	sw	s11,204(sp)
   16b88:	c5be                	sw	a5,200(sp)
   16b8a:	471d                	li	a4,7
   16b8c:	f8f750e3          	bge	a4,a5,16b0c <_svfprintf_r+0x145a>
   16b90:	b7b5                	j	16afc <_svfprintf_r+0x144a>
   16b92:	57a2                	lw	a5,40(sp)
   16b94:	5732                	lw	a4,44(sp)
   16b96:	40e78433          	sub	s0,a5,a4
   16b9a:	ac8051e3          	blez	s0,1665c <_svfprintf_r+0xfaa>
   16b9e:	64f5                	lui	s1,0x1d
   16ba0:	4ac1                	li	s5,16
   16ba2:	a3c48493          	addi	s1,s1,-1476 # 1ca3c <blanks.4431>
   16ba6:	4b9d                	li	s7,7
   16ba8:	47ae                	lw	a5,200(sp)
   16baa:	0098a023          	sw	s1,0(a7)
   16bae:	473e                	lw	a4,204(sp)
   16bb0:	0785                	addi	a5,a5,1
   16bb2:	028acb63          	blt	s5,s0,16be8 <_svfprintf_r+0x1536>
   16bb6:	0088a223          	sw	s0,4(a7)
   16bba:	943a                	add	s0,s0,a4
   16bbc:	c7a2                	sw	s0,204(sp)
   16bbe:	c5be                	sw	a5,200(sp)
   16bc0:	471d                	li	a4,7
   16bc2:	a8f75de3          	bge	a4,a5,1665c <_svfprintf_r+0xfaa>
   16bc6:	01d0                	addi	a2,sp,196
   16bc8:	85ce                	mv	a1,s3
   16bca:	854a                	mv	a0,s2
   16bcc:	588010ef          	jal	ra,18154 <__ssprint_r>
   16bd0:	a80506e3          	beqz	a0,1665c <_svfprintf_r+0xfaa>
   16bd4:	47b2                	lw	a5,12(sp)
   16bd6:	e399                	bnez	a5,16bdc <_svfprintf_r+0x152a>
   16bd8:	f71fe06f          	j	15b48 <_svfprintf_r+0x496>
   16bdc:	85be                	mv	a1,a5
   16bde:	854a                	mv	a0,s2
   16be0:	d28fb0ef          	jal	ra,12108 <_free_r>
   16be4:	f65fe06f          	j	15b48 <_svfprintf_r+0x496>
   16be8:	0741                	addi	a4,a4,16
   16bea:	0158a223          	sw	s5,4(a7)
   16bee:	c7ba                	sw	a4,204(sp)
   16bf0:	c5be                	sw	a5,200(sp)
   16bf2:	08a1                	addi	a7,a7,8
   16bf4:	00fbda63          	bge	s7,a5,16c08 <_svfprintf_r+0x1556>
   16bf8:	01d0                	addi	a2,sp,196
   16bfa:	85ce                	mv	a1,s3
   16bfc:	854a                	mv	a0,s2
   16bfe:	556010ef          	jal	ra,18154 <__ssprint_r>
   16c02:	f969                	bnez	a0,16bd4 <_svfprintf_r+0x1522>
   16c04:	0e410893          	addi	a7,sp,228
   16c08:	1441                	addi	s0,s0,-16
   16c0a:	bf79                	j	16ba8 <_svfprintf_r+0x14f6>
   16c0c:	45b2                	lw	a1,12(sp)
   16c0e:	854a                	mv	a0,s2
   16c10:	cf8fb0ef          	jal	ra,12108 <_free_r>
   16c14:	bc8d                	j	16686 <_svfprintf_r+0xfd4>
   16c16:	47be                	lw	a5,204(sp)
   16c18:	e399                	bnez	a5,16c1e <_svfprintf_r+0x156c>
   16c1a:	f2ffe06f          	j	15b48 <_svfprintf_r+0x496>
   16c1e:	01d0                	addi	a2,sp,196
   16c20:	85ce                	mv	a1,s3
   16c22:	854a                	mv	a0,s2
   16c24:	530010ef          	jal	ra,18154 <__ssprint_r>
   16c28:	f21fe06f          	j	15b48 <_svfprintf_r+0x496>
   16c2c:	1dc12083          	lw	ra,476(sp)
   16c30:	1d812403          	lw	s0,472(sp)
   16c34:	1d412483          	lw	s1,468(sp)
   16c38:	1d012903          	lw	s2,464(sp)
   16c3c:	1cc12983          	lw	s3,460(sp)
   16c40:	1c812a03          	lw	s4,456(sp)
   16c44:	1c412a83          	lw	s5,452(sp)
   16c48:	1c012b03          	lw	s6,448(sp)
   16c4c:	1bc12b83          	lw	s7,444(sp)
   16c50:	1b812c03          	lw	s8,440(sp)
   16c54:	1b412c83          	lw	s9,436(sp)
   16c58:	1b012d03          	lw	s10,432(sp)
   16c5c:	1ac12d83          	lw	s11,428(sp)
   16c60:	613d                	addi	sp,sp,480
   16c62:	8082                	ret

00016c64 <__sprint_r>:
   16c64:	461c                	lw	a5,8(a2)
   16c66:	7179                	addi	sp,sp,-48
   16c68:	d422                	sw	s0,40(sp)
   16c6a:	d606                	sw	ra,44(sp)
   16c6c:	d226                	sw	s1,36(sp)
   16c6e:	d04a                	sw	s2,32(sp)
   16c70:	ce4e                	sw	s3,28(sp)
   16c72:	cc52                	sw	s4,24(sp)
   16c74:	ca56                	sw	s5,20(sp)
   16c76:	c85a                	sw	s6,16(sp)
   16c78:	c65e                	sw	s7,12(sp)
   16c7a:	c462                	sw	s8,8(sp)
   16c7c:	8432                	mv	s0,a2
   16c7e:	e385                	bnez	a5,16c9e <__sprint_r+0x3a>
   16c80:	00062223          	sw	zero,4(a2)
   16c84:	4501                	li	a0,0
   16c86:	50b2                	lw	ra,44(sp)
   16c88:	5422                	lw	s0,40(sp)
   16c8a:	5492                	lw	s1,36(sp)
   16c8c:	5902                	lw	s2,32(sp)
   16c8e:	49f2                	lw	s3,28(sp)
   16c90:	4a62                	lw	s4,24(sp)
   16c92:	4ad2                	lw	s5,20(sp)
   16c94:	4b42                	lw	s6,16(sp)
   16c96:	4bb2                	lw	s7,12(sp)
   16c98:	4c22                	lw	s8,8(sp)
   16c9a:	6145                	addi	sp,sp,48
   16c9c:	8082                	ret
   16c9e:	51fc                	lw	a5,100(a1)
   16ca0:	892e                	mv	s2,a1
   16ca2:	01279713          	slli	a4,a5,0x12
   16ca6:	04075a63          	bgez	a4,16cfa <__sprint_r+0x96>
   16caa:	4204                	lw	s1,0(a2)
   16cac:	8a2a                	mv	s4,a0
   16cae:	5bfd                	li	s7,-1
   16cb0:	441c                	lw	a5,8(s0)
   16cb2:	e799                	bnez	a5,16cc0 <__sprint_r+0x5c>
   16cb4:	4501                	li	a0,0
   16cb6:	00042423          	sw	zero,8(s0)
   16cba:	00042223          	sw	zero,4(s0)
   16cbe:	b7e1                	j	16c86 <__sprint_r+0x22>
   16cc0:	0044a983          	lw	s3,4(s1)
   16cc4:	0004ab03          	lw	s6,0(s1)
   16cc8:	4a81                	li	s5,0
   16cca:	0029dc13          	srli	s8,s3,0x2
   16cce:	018acb63          	blt	s5,s8,16ce4 <__sprint_r+0x80>
   16cd2:	441c                	lw	a5,8(s0)
   16cd4:	ffc9f993          	andi	s3,s3,-4
   16cd8:	04a1                	addi	s1,s1,8
   16cda:	413789b3          	sub	s3,a5,s3
   16cde:	01342423          	sw	s3,8(s0)
   16ce2:	b7f9                	j	16cb0 <__sprint_r+0x4c>
   16ce4:	000b2583          	lw	a1,0(s6)
   16ce8:	864a                	mv	a2,s2
   16cea:	8552                	mv	a0,s4
   16cec:	4a9000ef          	jal	ra,17994 <_fputwc_r>
   16cf0:	0b11                	addi	s6,s6,4
   16cf2:	01750763          	beq	a0,s7,16d00 <__sprint_r+0x9c>
   16cf6:	0a85                	addi	s5,s5,1
   16cf8:	bfd9                	j	16cce <__sprint_r+0x6a>
   16cfa:	515000ef          	jal	ra,17a0e <__sfvwrite_r>
   16cfe:	bf65                	j	16cb6 <__sprint_r+0x52>
   16d00:	557d                	li	a0,-1
   16d02:	bf55                	j	16cb6 <__sprint_r+0x52>

00016d04 <_vfiprintf_r>:
   16d04:	1cc1a703          	lw	a4,460(gp) # 1ec04 <__stack_chk_guard>
   16d08:	7129                	addi	sp,sp,-320
   16d0a:	12912a23          	sw	s1,308(sp)
   16d0e:	13212823          	sw	s2,304(sp)
   16d12:	13312623          	sw	s3,300(sp)
   16d16:	13412423          	sw	s4,296(sp)
   16d1a:	12112e23          	sw	ra,316(sp)
   16d1e:	12812c23          	sw	s0,312(sp)
   16d22:	13512223          	sw	s5,292(sp)
   16d26:	13612023          	sw	s6,288(sp)
   16d2a:	11712e23          	sw	s7,284(sp)
   16d2e:	11812c23          	sw	s8,280(sp)
   16d32:	11912a23          	sw	s9,276(sp)
   16d36:	11a12823          	sw	s10,272(sp)
   16d3a:	11b12623          	sw	s11,268(sp)
   16d3e:	dfba                	sw	a4,252(sp)
   16d40:	d43e                	sw	a5,40(sp)
   16d42:	89aa                	mv	s3,a0
   16d44:	84ae                	mv	s1,a1
   16d46:	8a32                	mv	s4,a2
   16d48:	8936                	mv	s2,a3
   16d4a:	c509                	beqz	a0,16d54 <_vfiprintf_r+0x50>
   16d4c:	5d1c                	lw	a5,56(a0)
   16d4e:	e399                	bnez	a5,16d54 <_vfiprintf_r+0x50>
   16d50:	9fafb0ef          	jal	ra,11f4a <__sinit>
   16d54:	00c49783          	lh	a5,12(s1)
   16d58:	01279713          	slli	a4,a5,0x12
   16d5c:	00074b63          	bltz	a4,16d72 <_vfiprintf_r+0x6e>
   16d60:	6689                	lui	a3,0x2
   16d62:	50f8                	lw	a4,100(s1)
   16d64:	8fd5                	or	a5,a5,a3
   16d66:	00f49623          	sh	a5,12(s1)
   16d6a:	77f9                	lui	a5,0xffffe
   16d6c:	17fd                	addi	a5,a5,-1
   16d6e:	8ff9                	and	a5,a5,a4
   16d70:	d0fc                	sw	a5,100(s1)
   16d72:	00c4d783          	lhu	a5,12(s1)
   16d76:	8ba1                	andi	a5,a5,8
   16d78:	cf8d                	beqz	a5,16db2 <_vfiprintf_r+0xae>
   16d7a:	489c                	lw	a5,16(s1)
   16d7c:	cb9d                	beqz	a5,16db2 <_vfiprintf_r+0xae>
   16d7e:	00c4d783          	lhu	a5,12(s1)
   16d82:	4729                	li	a4,10
   16d84:	8be9                	andi	a5,a5,26
   16d86:	02e79d63          	bne	a5,a4,16dc0 <_vfiprintf_r+0xbc>
   16d8a:	00e49783          	lh	a5,14(s1)
   16d8e:	0207c963          	bltz	a5,16dc0 <_vfiprintf_r+0xbc>
   16d92:	86ca                	mv	a3,s2
   16d94:	8652                	mv	a2,s4
   16d96:	85a6                	mv	a1,s1
   16d98:	854e                	mv	a0,s3
   16d9a:	065000ef          	jal	ra,175fe <__sbprintf>
   16d9e:	8baa                	mv	s7,a0
   16da0:	57a2                	lw	a5,40(sp)
   16da2:	577e                	lw	a4,252(sp)
   16da4:	855e                	mv	a0,s7
   16da6:	1cc1a783          	lw	a5,460(gp) # 1ec04 <__stack_chk_guard>
   16daa:	00f707e3          	beq	a4,a5,175b8 <_vfiprintf_r+0x8b4>
   16dae:	e34f90ef          	jal	ra,103e2 <__stack_chk_fail>
   16db2:	85a6                	mv	a1,s1
   16db4:	854e                	mv	a0,s3
   16db6:	d57fa0ef          	jal	ra,11b0c <__swsetup_r>
   16dba:	d171                	beqz	a0,16d7e <_vfiprintf_r+0x7a>
   16dbc:	5bfd                	li	s7,-1
   16dbe:	b7cd                	j	16da0 <_vfiprintf_r+0x9c>
   16dc0:	67f5                	lui	a5,0x1d
   16dc2:	a5c78793          	addi	a5,a5,-1444 # 1ca5c <zeroes.4432+0x10>
   16dc6:	d63e                	sw	a5,44(sp)
   16dc8:	67f5                	lui	a5,0x1d
   16dca:	05410b13          	addi	s6,sp,84
   16dce:	bd878793          	addi	a5,a5,-1064 # 1cbd8 <zeroes.4423>
   16dd2:	c4da                	sw	s6,72(sp)
   16dd4:	c882                	sw	zero,80(sp)
   16dd6:	c682                	sw	zero,76(sp)
   16dd8:	875a                	mv	a4,s6
   16dda:	ca02                	sw	zero,20(sp)
   16ddc:	c802                	sw	zero,16(sp)
   16dde:	cc02                	sw	zero,24(sp)
   16de0:	d002                	sw	zero,32(sp)
   16de2:	4b81                	li	s7,0
   16de4:	ce3e                	sw	a5,28(sp)
   16de6:	8452                	mv	s0,s4
   16de8:	02500693          	li	a3,37
   16dec:	00044783          	lbu	a5,0(s0)
   16df0:	c399                	beqz	a5,16df6 <_vfiprintf_r+0xf2>
   16df2:	06d79963          	bne	a5,a3,16e64 <_vfiprintf_r+0x160>
   16df6:	41440ab3          	sub	s5,s0,s4
   16dfa:	020a8863          	beqz	s5,16e2a <_vfiprintf_r+0x126>
   16dfe:	47c6                	lw	a5,80(sp)
   16e00:	01472023          	sw	s4,0(a4)
   16e04:	01572223          	sw	s5,4(a4)
   16e08:	97d6                	add	a5,a5,s5
   16e0a:	c8be                	sw	a5,80(sp)
   16e0c:	47b6                	lw	a5,76(sp)
   16e0e:	469d                	li	a3,7
   16e10:	0721                	addi	a4,a4,8
   16e12:	0785                	addi	a5,a5,1
   16e14:	c6be                	sw	a5,76(sp)
   16e16:	00f6d963          	bge	a3,a5,16e28 <_vfiprintf_r+0x124>
   16e1a:	00b0                	addi	a2,sp,72
   16e1c:	85a6                	mv	a1,s1
   16e1e:	854e                	mv	a0,s3
   16e20:	3591                	jal	16c64 <__sprint_r>
   16e22:	74051a63          	bnez	a0,17576 <_vfiprintf_r+0x872>
   16e26:	875a                	mv	a4,s6
   16e28:	9bd6                	add	s7,s7,s5
   16e2a:	00044783          	lbu	a5,0(s0)
   16e2e:	76078d63          	beqz	a5,175a8 <_vfiprintf_r+0x8a4>
   16e32:	00140a13          	addi	s4,s0,1
   16e36:	040103a3          	sb	zero,71(sp)
   16e3a:	547d                	li	s0,-1
   16e3c:	4a81                	li	s5,0
   16e3e:	4d01                	li	s10,0
   16e40:	4c29                	li	s8,10
   16e42:	02a00c93          	li	s9,42
   16e46:	05a00813          	li	a6,90
   16e4a:	45a5                	li	a1,9
   16e4c:	000a4603          	lbu	a2,0(s4)
   16e50:	0a05                	addi	s4,s4,1
   16e52:	fe060693          	addi	a3,a2,-32
   16e56:	64d86863          	bltu	a6,a3,174a6 <_vfiprintf_r+0x7a2>
   16e5a:	57b2                	lw	a5,44(sp)
   16e5c:	068a                	slli	a3,a3,0x2
   16e5e:	96be                	add	a3,a3,a5
   16e60:	4294                	lw	a3,0(a3)
   16e62:	8682                	jr	a3
   16e64:	0405                	addi	s0,s0,1
   16e66:	b759                	j	16dec <_vfiprintf_r+0xe8>
   16e68:	66f1                	lui	a3,0x1c
   16e6a:	49c68793          	addi	a5,a3,1180 # 1c49c <zeroes.4447+0x34>
   16e6e:	ca3e                	sw	a5,20(sp)
   16e70:	020d7693          	andi	a3,s10,32
   16e74:	4c068a63          	beqz	a3,17348 <_vfiprintf_r+0x644>
   16e78:	091d                	addi	s2,s2,7
   16e7a:	ff897913          	andi	s2,s2,-8
   16e7e:	00092883          	lw	a7,0(s2)
   16e82:	00492c83          	lw	s9,4(s2)
   16e86:	00890c13          	addi	s8,s2,8
   16e8a:	001d7693          	andi	a3,s10,1
   16e8e:	ce81                	beqz	a3,16ea6 <_vfiprintf_r+0x1a2>
   16e90:	0198e6b3          	or	a3,a7,s9
   16e94:	ca89                	beqz	a3,16ea6 <_vfiprintf_r+0x1a2>
   16e96:	03000693          	li	a3,48
   16e9a:	08d10a23          	sb	a3,148(sp)
   16e9e:	08c10aa3          	sb	a2,149(sp)
   16ea2:	002d6d13          	ori	s10,s10,2
   16ea6:	bffd7d13          	andi	s10,s10,-1025
   16eaa:	a4ad                	j	17114 <_vfiprintf_r+0x410>
   16eac:	854e                	mv	a0,s3
   16eae:	c63a                	sw	a4,12(sp)
   16eb0:	bd7fc0ef          	jal	ra,13a86 <_localeconv_r>
   16eb4:	415c                	lw	a5,4(a0)
   16eb6:	853e                	mv	a0,a5
   16eb8:	d03e                	sw	a5,32(sp)
   16eba:	d62f90ef          	jal	ra,1041c <strlen>
   16ebe:	cc2a                	sw	a0,24(sp)
   16ec0:	854e                	mv	a0,s3
   16ec2:	bc5fc0ef          	jal	ra,13a86 <_localeconv_r>
   16ec6:	451c                	lw	a5,8(a0)
   16ec8:	4732                	lw	a4,12(sp)
   16eca:	c83e                	sw	a5,16(sp)
   16ecc:	47e2                	lw	a5,24(sp)
   16ece:	dfa5                	beqz	a5,16e46 <_vfiprintf_r+0x142>
   16ed0:	47c2                	lw	a5,16(sp)
   16ed2:	dbb5                	beqz	a5,16e46 <_vfiprintf_r+0x142>
   16ed4:	0007c683          	lbu	a3,0(a5)
   16ed8:	d6bd                	beqz	a3,16e46 <_vfiprintf_r+0x142>
   16eda:	400d6d13          	ori	s10,s10,1024
   16ede:	b7a5                	j	16e46 <_vfiprintf_r+0x142>
   16ee0:	04714683          	lbu	a3,71(sp)
   16ee4:	f2ad                	bnez	a3,16e46 <_vfiprintf_r+0x142>
   16ee6:	02000693          	li	a3,32
   16eea:	04d103a3          	sb	a3,71(sp)
   16eee:	bfa1                	j	16e46 <_vfiprintf_r+0x142>
   16ef0:	001d6d13          	ori	s10,s10,1
   16ef4:	bf89                	j	16e46 <_vfiprintf_r+0x142>
   16ef6:	00092a83          	lw	s5,0(s2)
   16efa:	0911                	addi	s2,s2,4
   16efc:	f40ad5e3          	bgez	s5,16e46 <_vfiprintf_r+0x142>
   16f00:	41500ab3          	neg	s5,s5
   16f04:	004d6d13          	ori	s10,s10,4
   16f08:	bf3d                	j	16e46 <_vfiprintf_r+0x142>
   16f0a:	02b00693          	li	a3,43
   16f0e:	bff1                	j	16eea <_vfiprintf_r+0x1e6>
   16f10:	000a4603          	lbu	a2,0(s4)
   16f14:	001a0693          	addi	a3,s4,1
   16f18:	03961863          	bne	a2,s9,16f48 <_vfiprintf_r+0x244>
   16f1c:	00092403          	lw	s0,0(s2)
   16f20:	00490613          	addi	a2,s2,4
   16f24:	00045363          	bgez	s0,16f2a <_vfiprintf_r+0x226>
   16f28:	547d                	li	s0,-1
   16f2a:	8932                	mv	s2,a2
   16f2c:	8a36                	mv	s4,a3
   16f2e:	bf21                	j	16e46 <_vfiprintf_r+0x142>
   16f30:	03840433          	mul	s0,s0,s8
   16f34:	0685                	addi	a3,a3,1
   16f36:	fff6c603          	lbu	a2,-1(a3)
   16f3a:	942a                	add	s0,s0,a0
   16f3c:	fd060513          	addi	a0,a2,-48
   16f40:	fea5f8e3          	bgeu	a1,a0,16f30 <_vfiprintf_r+0x22c>
   16f44:	8a36                	mv	s4,a3
   16f46:	b731                	j	16e52 <_vfiprintf_r+0x14e>
   16f48:	4401                	li	s0,0
   16f4a:	bfcd                	j	16f3c <_vfiprintf_r+0x238>
   16f4c:	080d6d13          	ori	s10,s10,128
   16f50:	bddd                	j	16e46 <_vfiprintf_r+0x142>
   16f52:	86d2                	mv	a3,s4
   16f54:	4a81                	li	s5,0
   16f56:	038a8ab3          	mul	s5,s5,s8
   16f5a:	fd060613          	addi	a2,a2,-48
   16f5e:	0685                	addi	a3,a3,1
   16f60:	9ab2                	add	s5,s5,a2
   16f62:	fff6c603          	lbu	a2,-1(a3)
   16f66:	fd060513          	addi	a0,a2,-48
   16f6a:	fea5f6e3          	bgeu	a1,a0,16f56 <_vfiprintf_r+0x252>
   16f6e:	bfd9                	j	16f44 <_vfiprintf_r+0x240>
   16f70:	000a4603          	lbu	a2,0(s4)
   16f74:	06800693          	li	a3,104
   16f78:	00d61663          	bne	a2,a3,16f84 <_vfiprintf_r+0x280>
   16f7c:	0a05                	addi	s4,s4,1
   16f7e:	200d6d13          	ori	s10,s10,512
   16f82:	b5d1                	j	16e46 <_vfiprintf_r+0x142>
   16f84:	040d6d13          	ori	s10,s10,64
   16f88:	bd7d                	j	16e46 <_vfiprintf_r+0x142>
   16f8a:	000a4603          	lbu	a2,0(s4)
   16f8e:	06c00693          	li	a3,108
   16f92:	00d61663          	bne	a2,a3,16f9e <_vfiprintf_r+0x29a>
   16f96:	0a05                	addi	s4,s4,1
   16f98:	020d6d13          	ori	s10,s10,32
   16f9c:	b56d                	j	16e46 <_vfiprintf_r+0x142>
   16f9e:	010d6d13          	ori	s10,s10,16
   16fa2:	b555                	j	16e46 <_vfiprintf_r+0x142>
   16fa4:	00092683          	lw	a3,0(s2)
   16fa8:	00490c13          	addi	s8,s2,4
   16fac:	040103a3          	sb	zero,71(sp)
   16fb0:	08d10c23          	sb	a3,152(sp)
   16fb4:	4405                	li	s0,1
   16fb6:	4c81                	li	s9,0
   16fb8:	09810913          	addi	s2,sp,152
   16fbc:	a251                	j	17140 <_vfiprintf_r+0x43c>
   16fbe:	010d6d13          	ori	s10,s10,16
   16fc2:	020d7693          	andi	a3,s10,32
   16fc6:	c6b9                	beqz	a3,17014 <_vfiprintf_r+0x310>
   16fc8:	091d                	addi	s2,s2,7
   16fca:	ff897913          	andi	s2,s2,-8
   16fce:	00092883          	lw	a7,0(s2)
   16fd2:	00492c83          	lw	s9,4(s2)
   16fd6:	00890c13          	addi	s8,s2,8
   16fda:	000cde63          	bgez	s9,16ff6 <_vfiprintf_r+0x2f2>
   16fde:	411008b3          	neg	a7,a7
   16fe2:	011036b3          	snez	a3,a7
   16fe6:	41900333          	neg	t1,s9
   16fea:	40d30cb3          	sub	s9,t1,a3
   16fee:	02d00693          	li	a3,45
   16ff2:	04d103a3          	sb	a3,71(sp)
   16ff6:	56fd                	li	a3,-1
   16ff8:	36d41d63          	bne	s0,a3,17372 <_vfiprintf_r+0x66e>
   16ffc:	3c0c9a63          	bnez	s9,173d0 <_vfiprintf_r+0x6cc>
   17000:	46a5                	li	a3,9
   17002:	3d16e763          	bltu	a3,a7,173d0 <_vfiprintf_r+0x6cc>
   17006:	03088893          	addi	a7,a7,48
   1700a:	0f110da3          	sb	a7,251(sp)
   1700e:	0fb10913          	addi	s2,sp,251
   17012:	ae45                	j	173c2 <_vfiprintf_r+0x6be>
   17014:	010d7693          	andi	a3,s10,16
   17018:	00490c13          	addi	s8,s2,4
   1701c:	c691                	beqz	a3,17028 <_vfiprintf_r+0x324>
   1701e:	00092883          	lw	a7,0(s2)
   17022:	41f8dc93          	srai	s9,a7,0x1f
   17026:	bf55                	j	16fda <_vfiprintf_r+0x2d6>
   17028:	040d7693          	andi	a3,s10,64
   1702c:	00092883          	lw	a7,0(s2)
   17030:	c689                	beqz	a3,1703a <_vfiprintf_r+0x336>
   17032:	08c2                	slli	a7,a7,0x10
   17034:	4108d893          	srai	a7,a7,0x10
   17038:	b7ed                	j	17022 <_vfiprintf_r+0x31e>
   1703a:	200d7693          	andi	a3,s10,512
   1703e:	d2f5                	beqz	a3,17022 <_vfiprintf_r+0x31e>
   17040:	08e2                	slli	a7,a7,0x18
   17042:	4188d893          	srai	a7,a7,0x18
   17046:	bff1                	j	17022 <_vfiprintf_r+0x31e>
   17048:	020d7613          	andi	a2,s10,32
   1704c:	00092683          	lw	a3,0(s2)
   17050:	0911                	addi	s2,s2,4
   17052:	c619                	beqz	a2,17060 <_vfiprintf_r+0x35c>
   17054:	41fbd793          	srai	a5,s7,0x1f
   17058:	0176a023          	sw	s7,0(a3)
   1705c:	c2dc                	sw	a5,4(a3)
   1705e:	b361                	j	16de6 <_vfiprintf_r+0xe2>
   17060:	010d7613          	andi	a2,s10,16
   17064:	c601                	beqz	a2,1706c <_vfiprintf_r+0x368>
   17066:	0176a023          	sw	s7,0(a3)
   1706a:	bbb5                	j	16de6 <_vfiprintf_r+0xe2>
   1706c:	040d7613          	andi	a2,s10,64
   17070:	c601                	beqz	a2,17078 <_vfiprintf_r+0x374>
   17072:	01769023          	sh	s7,0(a3)
   17076:	bb85                	j	16de6 <_vfiprintf_r+0xe2>
   17078:	200d7793          	andi	a5,s10,512
   1707c:	d7ed                	beqz	a5,17066 <_vfiprintf_r+0x362>
   1707e:	01768023          	sb	s7,0(a3)
   17082:	b395                	j	16de6 <_vfiprintf_r+0xe2>
   17084:	010d6d13          	ori	s10,s10,16
   17088:	020d7693          	andi	a3,s10,32
   1708c:	ce9d                	beqz	a3,170ca <_vfiprintf_r+0x3c6>
   1708e:	091d                	addi	s2,s2,7
   17090:	ff897913          	andi	s2,s2,-8
   17094:	00092883          	lw	a7,0(s2)
   17098:	00492c83          	lw	s9,4(s2)
   1709c:	00890c13          	addi	s8,s2,8
   170a0:	bffd7d13          	andi	s10,s10,-1025
   170a4:	4681                	li	a3,0
   170a6:	040103a3          	sb	zero,71(sp)
   170aa:	567d                	li	a2,-1
   170ac:	2cc40663          	beq	s0,a2,17378 <_vfiprintf_r+0x674>
   170b0:	866a                	mv	a2,s10
   170b2:	0198e5b3          	or	a1,a7,s9
   170b6:	f7fd7d13          	andi	s10,s10,-129
   170ba:	2a059f63          	bnez	a1,17378 <_vfiprintf_r+0x674>
   170be:	3c040a63          	beqz	s0,17492 <_vfiprintf_r+0x78e>
   170c2:	4605                	li	a2,1
   170c4:	2ac69d63          	bne	a3,a2,1737e <_vfiprintf_r+0x67a>
   170c8:	bf3d                	j	17006 <_vfiprintf_r+0x302>
   170ca:	010d7693          	andi	a3,s10,16
   170ce:	00490c13          	addi	s8,s2,4
   170d2:	c681                	beqz	a3,170da <_vfiprintf_r+0x3d6>
   170d4:	00092883          	lw	a7,0(s2)
   170d8:	a031                	j	170e4 <_vfiprintf_r+0x3e0>
   170da:	040d7693          	andi	a3,s10,64
   170de:	c689                	beqz	a3,170e8 <_vfiprintf_r+0x3e4>
   170e0:	00095883          	lhu	a7,0(s2)
   170e4:	4c81                	li	s9,0
   170e6:	bf6d                	j	170a0 <_vfiprintf_r+0x39c>
   170e8:	200d7693          	andi	a3,s10,512
   170ec:	d6e5                	beqz	a3,170d4 <_vfiprintf_r+0x3d0>
   170ee:	00094883          	lbu	a7,0(s2)
   170f2:	bfcd                	j	170e4 <_vfiprintf_r+0x3e0>
   170f4:	76e1                	lui	a3,0xffff8
   170f6:	8306c693          	xori	a3,a3,-2000
   170fa:	08d11a23          	sh	a3,148(sp)
   170fe:	00092883          	lw	a7,0(s2)
   17102:	66f1                	lui	a3,0x1c
   17104:	48868793          	addi	a5,a3,1160 # 1c488 <zeroes.4447+0x20>
   17108:	00490c13          	addi	s8,s2,4
   1710c:	4c81                	li	s9,0
   1710e:	002d6d13          	ori	s10,s10,2
   17112:	ca3e                	sw	a5,20(sp)
   17114:	4689                	li	a3,2
   17116:	bf41                	j	170a6 <_vfiprintf_r+0x3a2>
   17118:	040103a3          	sb	zero,71(sp)
   1711c:	56fd                	li	a3,-1
   1711e:	c63a                	sw	a4,12(sp)
   17120:	00490c13          	addi	s8,s2,4
   17124:	00092903          	lw	s2,0(s2)
   17128:	1cd40063          	beq	s0,a3,172e8 <_vfiprintf_r+0x5e4>
   1712c:	8622                	mv	a2,s0
   1712e:	4581                	li	a1,0
   17130:	854a                	mv	a0,s2
   17132:	804fd0ef          	jal	ra,14136 <memchr>
   17136:	4c81                	li	s9,0
   17138:	4732                	lw	a4,12(sp)
   1713a:	c119                	beqz	a0,17140 <_vfiprintf_r+0x43c>
   1713c:	41250433          	sub	s0,a0,s2
   17140:	c666                	sw	s9,12(sp)
   17142:	008cd363          	bge	s9,s0,17148 <_vfiprintf_r+0x444>
   17146:	c622                	sw	s0,12(sp)
   17148:	04714683          	lbu	a3,71(sp)
   1714c:	c681                	beqz	a3,17154 <_vfiprintf_r+0x450>
   1714e:	47b2                	lw	a5,12(sp)
   17150:	0785                	addi	a5,a5,1
   17152:	c63e                	sw	a5,12(sp)
   17154:	002d7d93          	andi	s11,s10,2
   17158:	000d8563          	beqz	s11,17162 <_vfiprintf_r+0x45e>
   1715c:	47b2                	lw	a5,12(sp)
   1715e:	0789                	addi	a5,a5,2
   17160:	c63e                	sw	a5,12(sp)
   17162:	084d7793          	andi	a5,s10,132
   17166:	d23e                	sw	a5,36(sp)
   17168:	e3b9                	bnez	a5,171ae <_vfiprintf_r+0x4aa>
   1716a:	47b2                	lw	a5,12(sp)
   1716c:	40fa86b3          	sub	a3,s5,a5
   17170:	02d05f63          	blez	a3,171ae <_vfiprintf_r+0x4aa>
   17174:	67f5                	lui	a5,0x1d
   17176:	48c1                	li	a7,16
   17178:	bc878813          	addi	a6,a5,-1080 # 1cbc8 <blanks.4422>
   1717c:	431d                	li	t1,7
   1717e:	4636                	lw	a2,76(sp)
   17180:	01072023          	sw	a6,0(a4)
   17184:	45c6                	lw	a1,80(sp)
   17186:	0605                	addi	a2,a2,1
   17188:	00870513          	addi	a0,a4,8
   1718c:	32d8c563          	blt	a7,a3,174b6 <_vfiprintf_r+0x7b2>
   17190:	c354                	sw	a3,4(a4)
   17192:	96ae                	add	a3,a3,a1
   17194:	c8b6                	sw	a3,80(sp)
   17196:	c6b2                	sw	a2,76(sp)
   17198:	469d                	li	a3,7
   1719a:	872a                	mv	a4,a0
   1719c:	00c6d963          	bge	a3,a2,171ae <_vfiprintf_r+0x4aa>
   171a0:	00b0                	addi	a2,sp,72
   171a2:	85a6                	mv	a1,s1
   171a4:	854e                	mv	a0,s3
   171a6:	3c7d                	jal	16c64 <__sprint_r>
   171a8:	3c051763          	bnez	a0,17576 <_vfiprintf_r+0x872>
   171ac:	875a                	mv	a4,s6
   171ae:	04714683          	lbu	a3,71(sp)
   171b2:	c69d                	beqz	a3,171e0 <_vfiprintf_r+0x4dc>
   171b4:	04710613          	addi	a2,sp,71
   171b8:	c310                	sw	a2,0(a4)
   171ba:	4605                	li	a2,1
   171bc:	46b6                	lw	a3,76(sp)
   171be:	c350                	sw	a2,4(a4)
   171c0:	4646                	lw	a2,80(sp)
   171c2:	0685                	addi	a3,a3,1
   171c4:	c6b6                	sw	a3,76(sp)
   171c6:	0605                	addi	a2,a2,1
   171c8:	c8b2                	sw	a2,80(sp)
   171ca:	461d                	li	a2,7
   171cc:	0721                	addi	a4,a4,8
   171ce:	00d65963          	bge	a2,a3,171e0 <_vfiprintf_r+0x4dc>
   171d2:	00b0                	addi	a2,sp,72
   171d4:	85a6                	mv	a1,s1
   171d6:	854e                	mv	a0,s3
   171d8:	3471                	jal	16c64 <__sprint_r>
   171da:	38051e63          	bnez	a0,17576 <_vfiprintf_r+0x872>
   171de:	875a                	mv	a4,s6
   171e0:	020d8763          	beqz	s11,1720e <_vfiprintf_r+0x50a>
   171e4:	0950                	addi	a2,sp,148
   171e6:	c310                	sw	a2,0(a4)
   171e8:	4609                	li	a2,2
   171ea:	46b6                	lw	a3,76(sp)
   171ec:	c350                	sw	a2,4(a4)
   171ee:	4646                	lw	a2,80(sp)
   171f0:	0685                	addi	a3,a3,1
   171f2:	c6b6                	sw	a3,76(sp)
   171f4:	0609                	addi	a2,a2,2
   171f6:	c8b2                	sw	a2,80(sp)
   171f8:	461d                	li	a2,7
   171fa:	0721                	addi	a4,a4,8
   171fc:	00d65963          	bge	a2,a3,1720e <_vfiprintf_r+0x50a>
   17200:	00b0                	addi	a2,sp,72
   17202:	85a6                	mv	a1,s1
   17204:	854e                	mv	a0,s3
   17206:	3cb9                	jal	16c64 <__sprint_r>
   17208:	36051763          	bnez	a0,17576 <_vfiprintf_r+0x872>
   1720c:	875a                	mv	a4,s6
   1720e:	5792                	lw	a5,36(sp)
   17210:	08000693          	li	a3,128
   17214:	04d79263          	bne	a5,a3,17258 <_vfiprintf_r+0x554>
   17218:	47b2                	lw	a5,12(sp)
   1721a:	40fa8db3          	sub	s11,s5,a5
   1721e:	03b05d63          	blez	s11,17258 <_vfiprintf_r+0x554>
   17222:	4841                	li	a6,16
   17224:	489d                	li	a7,7
   17226:	47f2                	lw	a5,28(sp)
   17228:	46b6                	lw	a3,76(sp)
   1722a:	4646                	lw	a2,80(sp)
   1722c:	c31c                	sw	a5,0(a4)
   1722e:	0685                	addi	a3,a3,1
   17230:	00870593          	addi	a1,a4,8
   17234:	2bb84a63          	blt	a6,s11,174e8 <_vfiprintf_r+0x7e4>
   17238:	01b72223          	sw	s11,4(a4)
   1723c:	9db2                	add	s11,s11,a2
   1723e:	c8ee                	sw	s11,80(sp)
   17240:	c6b6                	sw	a3,76(sp)
   17242:	461d                	li	a2,7
   17244:	872e                	mv	a4,a1
   17246:	00d65963          	bge	a2,a3,17258 <_vfiprintf_r+0x554>
   1724a:	00b0                	addi	a2,sp,72
   1724c:	85a6                	mv	a1,s1
   1724e:	854e                	mv	a0,s3
   17250:	3c11                	jal	16c64 <__sprint_r>
   17252:	32051263          	bnez	a0,17576 <_vfiprintf_r+0x872>
   17256:	875a                	mv	a4,s6
   17258:	408c8cb3          	sub	s9,s9,s0
   1725c:	03905d63          	blez	s9,17296 <_vfiprintf_r+0x592>
   17260:	4dc1                	li	s11,16
   17262:	481d                	li	a6,7
   17264:	47f2                	lw	a5,28(sp)
   17266:	46b6                	lw	a3,76(sp)
   17268:	4646                	lw	a2,80(sp)
   1726a:	c31c                	sw	a5,0(a4)
   1726c:	0685                	addi	a3,a3,1
   1726e:	00870593          	addi	a1,a4,8
   17272:	2b9dc063          	blt	s11,s9,17512 <_vfiprintf_r+0x80e>
   17276:	01972223          	sw	s9,4(a4)
   1727a:	9cb2                	add	s9,s9,a2
   1727c:	c8e6                	sw	s9,80(sp)
   1727e:	c6b6                	sw	a3,76(sp)
   17280:	461d                	li	a2,7
   17282:	872e                	mv	a4,a1
   17284:	00d65963          	bge	a2,a3,17296 <_vfiprintf_r+0x592>
   17288:	00b0                	addi	a2,sp,72
   1728a:	85a6                	mv	a1,s1
   1728c:	854e                	mv	a0,s3
   1728e:	3ad9                	jal	16c64 <__sprint_r>
   17290:	2e051363          	bnez	a0,17576 <_vfiprintf_r+0x872>
   17294:	875a                	mv	a4,s6
   17296:	46c6                	lw	a3,80(sp)
   17298:	c340                	sw	s0,4(a4)
   1729a:	01272023          	sw	s2,0(a4)
   1729e:	9436                	add	s0,s0,a3
   172a0:	46b6                	lw	a3,76(sp)
   172a2:	c8a2                	sw	s0,80(sp)
   172a4:	461d                	li	a2,7
   172a6:	0685                	addi	a3,a3,1
   172a8:	c6b6                	sw	a3,76(sp)
   172aa:	0721                	addi	a4,a4,8
   172ac:	00d65963          	bge	a2,a3,172be <_vfiprintf_r+0x5ba>
   172b0:	00b0                	addi	a2,sp,72
   172b2:	85a6                	mv	a1,s1
   172b4:	854e                	mv	a0,s3
   172b6:	327d                	jal	16c64 <__sprint_r>
   172b8:	2a051f63          	bnez	a0,17576 <_vfiprintf_r+0x872>
   172bc:	875a                	mv	a4,s6
   172be:	004d7793          	andi	a5,s10,4
   172c2:	26079b63          	bnez	a5,17538 <_vfiprintf_r+0x834>
   172c6:	47b2                	lw	a5,12(sp)
   172c8:	00fad363          	bge	s5,a5,172ce <_vfiprintf_r+0x5ca>
   172cc:	8abe                	mv	s5,a5
   172ce:	47c6                	lw	a5,80(sp)
   172d0:	9bd6                	add	s7,s7,s5
   172d2:	c799                	beqz	a5,172e0 <_vfiprintf_r+0x5dc>
   172d4:	00b0                	addi	a2,sp,72
   172d6:	85a6                	mv	a1,s1
   172d8:	854e                	mv	a0,s3
   172da:	3269                	jal	16c64 <__sprint_r>
   172dc:	28051d63          	bnez	a0,17576 <_vfiprintf_r+0x872>
   172e0:	c682                	sw	zero,76(sp)
   172e2:	8962                	mv	s2,s8
   172e4:	875a                	mv	a4,s6
   172e6:	b601                	j	16de6 <_vfiprintf_r+0xe2>
   172e8:	854a                	mv	a0,s2
   172ea:	932f90ef          	jal	ra,1041c <strlen>
   172ee:	842a                	mv	s0,a0
   172f0:	4c81                	li	s9,0
   172f2:	4732                	lw	a4,12(sp)
   172f4:	b5b1                	j	17140 <_vfiprintf_r+0x43c>
   172f6:	010d6d13          	ori	s10,s10,16
   172fa:	020d7693          	andi	a3,s10,32
   172fe:	ce81                	beqz	a3,17316 <_vfiprintf_r+0x612>
   17300:	091d                	addi	s2,s2,7
   17302:	ff897913          	andi	s2,s2,-8
   17306:	00092883          	lw	a7,0(s2)
   1730a:	00492c83          	lw	s9,4(s2)
   1730e:	00890c13          	addi	s8,s2,8
   17312:	4685                	li	a3,1
   17314:	bb49                	j	170a6 <_vfiprintf_r+0x3a2>
   17316:	010d7693          	andi	a3,s10,16
   1731a:	00490c13          	addi	s8,s2,4
   1731e:	c681                	beqz	a3,17326 <_vfiprintf_r+0x622>
   17320:	00092883          	lw	a7,0(s2)
   17324:	a031                	j	17330 <_vfiprintf_r+0x62c>
   17326:	040d7693          	andi	a3,s10,64
   1732a:	c689                	beqz	a3,17334 <_vfiprintf_r+0x630>
   1732c:	00095883          	lhu	a7,0(s2)
   17330:	4c81                	li	s9,0
   17332:	b7c5                	j	17312 <_vfiprintf_r+0x60e>
   17334:	200d7693          	andi	a3,s10,512
   17338:	d6e5                	beqz	a3,17320 <_vfiprintf_r+0x61c>
   1733a:	00094883          	lbu	a7,0(s2)
   1733e:	bfcd                	j	17330 <_vfiprintf_r+0x62c>
   17340:	66f1                	lui	a3,0x1c
   17342:	48868793          	addi	a5,a3,1160 # 1c488 <zeroes.4447+0x20>
   17346:	b625                	j	16e6e <_vfiprintf_r+0x16a>
   17348:	010d7693          	andi	a3,s10,16
   1734c:	00490c13          	addi	s8,s2,4
   17350:	c681                	beqz	a3,17358 <_vfiprintf_r+0x654>
   17352:	00092883          	lw	a7,0(s2)
   17356:	a031                	j	17362 <_vfiprintf_r+0x65e>
   17358:	040d7693          	andi	a3,s10,64
   1735c:	c689                	beqz	a3,17366 <_vfiprintf_r+0x662>
   1735e:	00095883          	lhu	a7,0(s2)
   17362:	4c81                	li	s9,0
   17364:	b61d                	j	16e8a <_vfiprintf_r+0x186>
   17366:	200d7693          	andi	a3,s10,512
   1736a:	d6e5                	beqz	a3,17352 <_vfiprintf_r+0x64e>
   1736c:	00094883          	lbu	a7,0(s2)
   17370:	bfcd                	j	17362 <_vfiprintf_r+0x65e>
   17372:	866a                	mv	a2,s10
   17374:	4685                	li	a3,1
   17376:	bb35                	j	170b2 <_vfiprintf_r+0x3ae>
   17378:	4605                	li	a2,1
   1737a:	c8c681e3          	beq	a3,a2,16ffc <_vfiprintf_r+0x2f8>
   1737e:	4609                	li	a2,2
   17380:	0ec68263          	beq	a3,a2,17464 <_vfiprintf_r+0x760>
   17384:	19f4                	addi	a3,sp,252
   17386:	01dc9593          	slli	a1,s9,0x1d
   1738a:	0078f613          	andi	a2,a7,7
   1738e:	0038d893          	srli	a7,a7,0x3
   17392:	03060613          	addi	a2,a2,48
   17396:	0115e8b3          	or	a7,a1,a7
   1739a:	003cdc93          	srli	s9,s9,0x3
   1739e:	fec68fa3          	sb	a2,-1(a3)
   173a2:	0198e5b3          	or	a1,a7,s9
   173a6:	fff68913          	addi	s2,a3,-1
   173aa:	e18d                	bnez	a1,173cc <_vfiprintf_r+0x6c8>
   173ac:	001d7593          	andi	a1,s10,1
   173b0:	c989                	beqz	a1,173c2 <_vfiprintf_r+0x6be>
   173b2:	03000593          	li	a1,48
   173b6:	00b60663          	beq	a2,a1,173c2 <_vfiprintf_r+0x6be>
   173ba:	feb90fa3          	sb	a1,-1(s2)
   173be:	ffe68913          	addi	s2,a3,-2
   173c2:	8ca2                	mv	s9,s0
   173c4:	19e0                	addi	s0,sp,252
   173c6:	41240433          	sub	s0,s0,s2
   173ca:	bb9d                	j	17140 <_vfiprintf_r+0x43c>
   173cc:	86ca                	mv	a3,s2
   173ce:	bf65                	j	17386 <_vfiprintf_r+0x682>
   173d0:	400d7793          	andi	a5,s10,1024
   173d4:	4d81                	li	s11,0
   173d6:	0fc10e13          	addi	t3,sp,252
   173da:	c63e                	sw	a5,12(sp)
   173dc:	8546                	mv	a0,a7
   173de:	4629                	li	a2,10
   173e0:	4681                	li	a3,0
   173e2:	85e6                	mv	a1,s9
   173e4:	da3a                	sw	a4,52(sp)
   173e6:	fffe0913          	addi	s2,t3,-1 # ffff <__stack_chk_init-0x75>
   173ea:	d872                	sw	t3,48(sp)
   173ec:	d246                	sw	a7,36(sp)
   173ee:	635010ef          	jal	ra,19222 <__umoddi3>
   173f2:	5e42                	lw	t3,48(sp)
   173f4:	47b2                	lw	a5,12(sp)
   173f6:	03050513          	addi	a0,a0,48
   173fa:	feae0fa3          	sb	a0,-1(t3)
   173fe:	0d85                	addi	s11,s11,1
   17400:	5892                	lw	a7,36(sp)
   17402:	5752                	lw	a4,52(sp)
   17404:	c3b1                	beqz	a5,17448 <_vfiprintf_r+0x744>
   17406:	47c2                	lw	a5,16(sp)
   17408:	0007c683          	lbu	a3,0(a5)
   1740c:	03b69e63          	bne	a3,s11,17448 <_vfiprintf_r+0x744>
   17410:	0ff00793          	li	a5,255
   17414:	02fd8a63          	beq	s11,a5,17448 <_vfiprintf_r+0x744>
   17418:	000c9563          	bnez	s9,17422 <_vfiprintf_r+0x71e>
   1741c:	47a5                	li	a5,9
   1741e:	0317f563          	bgeu	a5,a7,17448 <_vfiprintf_r+0x744>
   17422:	47e2                	lw	a5,24(sp)
   17424:	5582                	lw	a1,32(sp)
   17426:	d846                	sw	a7,48(sp)
   17428:	40f90933          	sub	s2,s2,a5
   1742c:	863e                	mv	a2,a5
   1742e:	854a                	mv	a0,s2
   17430:	d23a                	sw	a4,36(sp)
   17432:	a50fe0ef          	jal	ra,15682 <strncpy>
   17436:	47c2                	lw	a5,16(sp)
   17438:	4d81                	li	s11,0
   1743a:	5712                	lw	a4,36(sp)
   1743c:	0017c683          	lbu	a3,1(a5)
   17440:	58c2                	lw	a7,48(sp)
   17442:	c299                	beqz	a3,17448 <_vfiprintf_r+0x744>
   17444:	0785                	addi	a5,a5,1
   17446:	c83e                	sw	a5,16(sp)
   17448:	8546                	mv	a0,a7
   1744a:	85e6                	mv	a1,s9
   1744c:	4629                	li	a2,10
   1744e:	4681                	li	a3,0
   17450:	d23a                	sw	a4,36(sp)
   17452:	277010ef          	jal	ra,18ec8 <__udivdi3>
   17456:	8cae                	mv	s9,a1
   17458:	8dc9                	or	a1,a1,a0
   1745a:	88aa                	mv	a7,a0
   1745c:	5712                	lw	a4,36(sp)
   1745e:	d1b5                	beqz	a1,173c2 <_vfiprintf_r+0x6be>
   17460:	8e4a                	mv	t3,s2
   17462:	bfad                	j	173dc <_vfiprintf_r+0x6d8>
   17464:	0fc10913          	addi	s2,sp,252
   17468:	47d2                	lw	a5,20(sp)
   1746a:	00f8f693          	andi	a3,a7,15
   1746e:	197d                	addi	s2,s2,-1
   17470:	96be                	add	a3,a3,a5
   17472:	0006c683          	lbu	a3,0(a3)
   17476:	0048d893          	srli	a7,a7,0x4
   1747a:	00d90023          	sb	a3,0(s2)
   1747e:	01cc9693          	slli	a3,s9,0x1c
   17482:	0116e8b3          	or	a7,a3,a7
   17486:	004cdc93          	srli	s9,s9,0x4
   1748a:	0198e6b3          	or	a3,a7,s9
   1748e:	fee9                	bnez	a3,17468 <_vfiprintf_r+0x764>
   17490:	bf0d                	j	173c2 <_vfiprintf_r+0x6be>
   17492:	0fc10913          	addi	s2,sp,252
   17496:	f695                	bnez	a3,173c2 <_vfiprintf_r+0x6be>
   17498:	8a05                	andi	a2,a2,1
   1749a:	d605                	beqz	a2,173c2 <_vfiprintf_r+0x6be>
   1749c:	03000693          	li	a3,48
   174a0:	0ed10da3          	sb	a3,251(sp)
   174a4:	b6ad                	j	1700e <_vfiprintf_r+0x30a>
   174a6:	10060163          	beqz	a2,175a8 <_vfiprintf_r+0x8a4>
   174aa:	08c10c23          	sb	a2,152(sp)
   174ae:	040103a3          	sb	zero,71(sp)
   174b2:	8c4a                	mv	s8,s2
   174b4:	b601                	j	16fb4 <_vfiprintf_r+0x2b0>
   174b6:	05c1                	addi	a1,a1,16
   174b8:	01172223          	sw	a7,4(a4)
   174bc:	c8ae                	sw	a1,80(sp)
   174be:	c6b2                	sw	a2,76(sp)
   174c0:	02c35163          	bge	t1,a2,174e2 <_vfiprintf_r+0x7de>
   174c4:	00b0                	addi	a2,sp,72
   174c6:	85a6                	mv	a1,s1
   174c8:	854e                	mv	a0,s3
   174ca:	de1a                	sw	t1,60(sp)
   174cc:	dc42                	sw	a6,56(sp)
   174ce:	da46                	sw	a7,52(sp)
   174d0:	d836                	sw	a3,48(sp)
   174d2:	f92ff0ef          	jal	ra,16c64 <__sprint_r>
   174d6:	e145                	bnez	a0,17576 <_vfiprintf_r+0x872>
   174d8:	5372                	lw	t1,60(sp)
   174da:	5862                	lw	a6,56(sp)
   174dc:	58d2                	lw	a7,52(sp)
   174de:	56c2                	lw	a3,48(sp)
   174e0:	855a                	mv	a0,s6
   174e2:	16c1                	addi	a3,a3,-16
   174e4:	872a                	mv	a4,a0
   174e6:	b961                	j	1717e <_vfiprintf_r+0x47a>
   174e8:	0641                	addi	a2,a2,16
   174ea:	01072223          	sw	a6,4(a4)
   174ee:	c8b2                	sw	a2,80(sp)
   174f0:	c6b6                	sw	a3,76(sp)
   174f2:	00d8dd63          	bge	a7,a3,1750c <_vfiprintf_r+0x808>
   174f6:	00b0                	addi	a2,sp,72
   174f8:	85a6                	mv	a1,s1
   174fa:	854e                	mv	a0,s3
   174fc:	d846                	sw	a7,48(sp)
   174fe:	d242                	sw	a6,36(sp)
   17500:	f64ff0ef          	jal	ra,16c64 <__sprint_r>
   17504:	e92d                	bnez	a0,17576 <_vfiprintf_r+0x872>
   17506:	58c2                	lw	a7,48(sp)
   17508:	5812                	lw	a6,36(sp)
   1750a:	85da                	mv	a1,s6
   1750c:	1dc1                	addi	s11,s11,-16
   1750e:	872e                	mv	a4,a1
   17510:	bb19                	j	17226 <_vfiprintf_r+0x522>
   17512:	0641                	addi	a2,a2,16
   17514:	01b72223          	sw	s11,4(a4)
   17518:	c8b2                	sw	a2,80(sp)
   1751a:	c6b6                	sw	a3,76(sp)
   1751c:	00d85b63          	bge	a6,a3,17532 <_vfiprintf_r+0x82e>
   17520:	00b0                	addi	a2,sp,72
   17522:	85a6                	mv	a1,s1
   17524:	854e                	mv	a0,s3
   17526:	d242                	sw	a6,36(sp)
   17528:	f3cff0ef          	jal	ra,16c64 <__sprint_r>
   1752c:	e529                	bnez	a0,17576 <_vfiprintf_r+0x872>
   1752e:	5812                	lw	a6,36(sp)
   17530:	85da                	mv	a1,s6
   17532:	1cc1                	addi	s9,s9,-16
   17534:	872e                	mv	a4,a1
   17536:	b33d                	j	17264 <_vfiprintf_r+0x560>
   17538:	47b2                	lw	a5,12(sp)
   1753a:	40fa8433          	sub	s0,s5,a5
   1753e:	d88054e3          	blez	s0,172c6 <_vfiprintf_r+0x5c2>
   17542:	67f5                	lui	a5,0x1d
   17544:	4cc1                	li	s9,16
   17546:	bc878913          	addi	s2,a5,-1080 # 1cbc8 <blanks.4422>
   1754a:	4d9d                	li	s11,7
   1754c:	47b6                	lw	a5,76(sp)
   1754e:	01272023          	sw	s2,0(a4)
   17552:	46c6                	lw	a3,80(sp)
   17554:	0785                	addi	a5,a5,1
   17556:	028cc863          	blt	s9,s0,17586 <_vfiprintf_r+0x882>
   1755a:	c340                	sw	s0,4(a4)
   1755c:	9436                	add	s0,s0,a3
   1755e:	c8a2                	sw	s0,80(sp)
   17560:	c6be                	sw	a5,76(sp)
   17562:	471d                	li	a4,7
   17564:	d6f751e3          	bge	a4,a5,172c6 <_vfiprintf_r+0x5c2>
   17568:	00b0                	addi	a2,sp,72
   1756a:	85a6                	mv	a1,s1
   1756c:	854e                	mv	a0,s3
   1756e:	ef6ff0ef          	jal	ra,16c64 <__sprint_r>
   17572:	d4050ae3          	beqz	a0,172c6 <_vfiprintf_r+0x5c2>
   17576:	00c4d783          	lhu	a5,12(s1)
   1757a:	0407f793          	andi	a5,a5,64
   1757e:	820781e3          	beqz	a5,16da0 <_vfiprintf_r+0x9c>
   17582:	83bff06f          	j	16dbc <_vfiprintf_r+0xb8>
   17586:	06c1                	addi	a3,a3,16
   17588:	01972223          	sw	s9,4(a4)
   1758c:	c8b6                	sw	a3,80(sp)
   1758e:	c6be                	sw	a5,76(sp)
   17590:	0721                	addi	a4,a4,8
   17592:	00fdd963          	bge	s11,a5,175a4 <_vfiprintf_r+0x8a0>
   17596:	00b0                	addi	a2,sp,72
   17598:	85a6                	mv	a1,s1
   1759a:	854e                	mv	a0,s3
   1759c:	ec8ff0ef          	jal	ra,16c64 <__sprint_r>
   175a0:	f979                	bnez	a0,17576 <_vfiprintf_r+0x872>
   175a2:	875a                	mv	a4,s6
   175a4:	1441                	addi	s0,s0,-16
   175a6:	b75d                	j	1754c <_vfiprintf_r+0x848>
   175a8:	47c6                	lw	a5,80(sp)
   175aa:	d7f1                	beqz	a5,17576 <_vfiprintf_r+0x872>
   175ac:	00b0                	addi	a2,sp,72
   175ae:	85a6                	mv	a1,s1
   175b0:	854e                	mv	a0,s3
   175b2:	eb2ff0ef          	jal	ra,16c64 <__sprint_r>
   175b6:	b7c1                	j	17576 <_vfiprintf_r+0x872>
   175b8:	13c12083          	lw	ra,316(sp)
   175bc:	13812403          	lw	s0,312(sp)
   175c0:	13412483          	lw	s1,308(sp)
   175c4:	13012903          	lw	s2,304(sp)
   175c8:	12c12983          	lw	s3,300(sp)
   175cc:	12812a03          	lw	s4,296(sp)
   175d0:	12412a83          	lw	s5,292(sp)
   175d4:	12012b03          	lw	s6,288(sp)
   175d8:	11c12b83          	lw	s7,284(sp)
   175dc:	11812c03          	lw	s8,280(sp)
   175e0:	11412c83          	lw	s9,276(sp)
   175e4:	11012d03          	lw	s10,272(sp)
   175e8:	10c12d83          	lw	s11,268(sp)
   175ec:	6131                	addi	sp,sp,320
   175ee:	8082                	ret

000175f0 <vfiprintf>:
   175f0:	86b2                	mv	a3,a2
   175f2:	862e                	mv	a2,a1
   175f4:	85aa                	mv	a1,a0
   175f6:	1c01a503          	lw	a0,448(gp) # 1ebf8 <_impure_ptr>
   175fa:	f0aff06f          	j	16d04 <_vfiprintf_r>

000175fe <__sbprintf>:
   175fe:	b7010113          	addi	sp,sp,-1168
   17602:	48912223          	sw	s1,1156(sp)
   17606:	1cc1a783          	lw	a5,460(gp) # 1ec04 <__stack_chk_guard>
   1760a:	48812423          	sw	s0,1160(sp)
   1760e:	842e                	mv	s0,a1
   17610:	46f12623          	sw	a5,1132(sp)
   17614:	00c5d783          	lhu	a5,12(a1)
   17618:	49212023          	sw	s2,1152(sp)
   1761c:	47312e23          	sw	s3,1148(sp)
   17620:	9bf5                	andi	a5,a5,-3
   17622:	00f11823          	sh	a5,16(sp)
   17626:	51fc                	lw	a5,100(a1)
   17628:	48112623          	sw	ra,1164(sp)
   1762c:	89aa                	mv	s3,a0
   1762e:	d4be                	sw	a5,104(sp)
   17630:	00e5d783          	lhu	a5,14(a1)
   17634:	ce02                	sw	zero,28(sp)
   17636:	00f11923          	sh	a5,18(sp)
   1763a:	4ddc                	lw	a5,28(a1)
   1763c:	d03e                	sw	a5,32(sp)
   1763e:	51dc                	lw	a5,36(a1)
   17640:	004c                	addi	a1,sp,4
   17642:	d43e                	sw	a5,40(sp)
   17644:	10fc                	addi	a5,sp,108
   17646:	c23e                	sw	a5,4(sp)
   17648:	ca3e                	sw	a5,20(sp)
   1764a:	40000793          	li	a5,1024
   1764e:	c63e                	sw	a5,12(sp)
   17650:	cc3e                	sw	a5,24(sp)
   17652:	eb2ff0ef          	jal	ra,16d04 <_vfiprintf_r>
   17656:	892a                	mv	s2,a0
   17658:	00054863          	bltz	a0,17668 <__sbprintf+0x6a>
   1765c:	004c                	addi	a1,sp,4
   1765e:	854e                	mv	a0,s3
   17660:	fe6fa0ef          	jal	ra,11e46 <_fflush_r>
   17664:	c111                	beqz	a0,17668 <__sbprintf+0x6a>
   17666:	597d                	li	s2,-1
   17668:	01015783          	lhu	a5,16(sp)
   1766c:	0407f793          	andi	a5,a5,64
   17670:	c799                	beqz	a5,1767e <__sbprintf+0x80>
   17672:	00c45783          	lhu	a5,12(s0)
   17676:	0407e793          	ori	a5,a5,64
   1767a:	00f41623          	sh	a5,12(s0)
   1767e:	46c12703          	lw	a4,1132(sp)
   17682:	1cc1a783          	lw	a5,460(gp) # 1ec04 <__stack_chk_guard>
   17686:	854a                	mv	a0,s2
   17688:	00f70463          	beq	a4,a5,17690 <__sbprintf+0x92>
   1768c:	d57f80ef          	jal	ra,103e2 <__stack_chk_fail>
   17690:	48c12083          	lw	ra,1164(sp)
   17694:	48812403          	lw	s0,1160(sp)
   17698:	48412483          	lw	s1,1156(sp)
   1769c:	48012903          	lw	s2,1152(sp)
   176a0:	47c12983          	lw	s3,1148(sp)
   176a4:	49010113          	addi	sp,sp,1168
   176a8:	8082                	ret

000176aa <_wctomb_r>:
   176aa:	1c01a783          	lw	a5,448(gp) # 1ebf8 <_impure_ptr>
   176ae:	5bdc                	lw	a5,52(a5)
   176b0:	e399                	bnez	a5,176b6 <_wctomb_r+0xc>
   176b2:	c2818793          	addi	a5,gp,-984 # 1e660 <__global_locale>
   176b6:	0e07a303          	lw	t1,224(a5)
   176ba:	8302                	jr	t1

000176bc <__ascii_wctomb>:
   176bc:	cd91                	beqz	a1,176d8 <__ascii_wctomb+0x1c>
   176be:	0ff00793          	li	a5,255
   176c2:	00c7f763          	bgeu	a5,a2,176d0 <__ascii_wctomb+0x14>
   176c6:	08a00793          	li	a5,138
   176ca:	c11c                	sw	a5,0(a0)
   176cc:	557d                	li	a0,-1
   176ce:	8082                	ret
   176d0:	00c58023          	sb	a2,0(a1)
   176d4:	4505                	li	a0,1
   176d6:	8082                	ret
   176d8:	4501                	li	a0,0
   176da:	8082                	ret

000176dc <__assert_func>:
   176dc:	1c01a783          	lw	a5,448(gp) # 1ebf8 <_impure_ptr>
   176e0:	1141                	addi	sp,sp,-16
   176e2:	8832                	mv	a6,a2
   176e4:	c606                	sw	ra,12(sp)
   176e6:	88aa                	mv	a7,a0
   176e8:	872e                	mv	a4,a1
   176ea:	8636                	mv	a2,a3
   176ec:	47c8                	lw	a0,12(a5)
   176ee:	00080c63          	beqz	a6,17706 <__assert_func+0x2a>
   176f2:	67f5                	lui	a5,0x1d
   176f4:	be878793          	addi	a5,a5,-1048 # 1cbe8 <zeroes.4423+0x10>
   176f8:	65f5                	lui	a1,0x1d
   176fa:	86c6                	mv	a3,a7
   176fc:	bf858593          	addi	a1,a1,-1032 # 1cbf8 <zeroes.4423+0x20>
   17700:	2269                	jal	1788a <fiprintf>
   17702:	558010ef          	jal	ra,18c5a <abort>
   17706:	6871                	lui	a6,0x1c
   17708:	2e880793          	addi	a5,a6,744 # 1c2e8 <push_pop_regs+0x70>
   1770c:	2e880813          	addi	a6,a6,744
   17710:	b7e5                	j	176f8 <__assert_func+0x1c>

00017712 <__assert>:
   17712:	1141                	addi	sp,sp,-16
   17714:	86b2                	mv	a3,a2
   17716:	4601                	li	a2,0
   17718:	c606                	sw	ra,12(sp)
   1771a:	37c9                	jal	176dc <__assert_func>

0001771c <_calloc_r>:
   1771c:	02c585b3          	mul	a1,a1,a2
   17720:	1141                	addi	sp,sp,-16
   17722:	c422                	sw	s0,8(sp)
   17724:	c606                	sw	ra,12(sp)
   17726:	d36fc0ef          	jal	ra,13c5c <_malloc_r>
   1772a:	842a                	mv	s0,a0
   1772c:	cd05                	beqz	a0,17764 <_calloc_r+0x48>
   1772e:	ffc52603          	lw	a2,-4(a0)
   17732:	02400713          	li	a4,36
   17736:	9a71                	andi	a2,a2,-4
   17738:	1671                	addi	a2,a2,-4
   1773a:	04c76963          	bltu	a4,a2,1778c <_calloc_r+0x70>
   1773e:	46cd                	li	a3,19
   17740:	87aa                	mv	a5,a0
   17742:	00c6fb63          	bgeu	a3,a2,17758 <_calloc_r+0x3c>
   17746:	00052023          	sw	zero,0(a0)
   1774a:	00052223          	sw	zero,4(a0)
   1774e:	47ed                	li	a5,27
   17750:	00c7ef63          	bltu	a5,a2,1776e <_calloc_r+0x52>
   17754:	00850793          	addi	a5,a0,8
   17758:	0007a023          	sw	zero,0(a5)
   1775c:	0007a223          	sw	zero,4(a5)
   17760:	0007a423          	sw	zero,8(a5)
   17764:	8522                	mv	a0,s0
   17766:	40b2                	lw	ra,12(sp)
   17768:	4422                	lw	s0,8(sp)
   1776a:	0141                	addi	sp,sp,16
   1776c:	8082                	ret
   1776e:	00052423          	sw	zero,8(a0)
   17772:	00052623          	sw	zero,12(a0)
   17776:	01050793          	addi	a5,a0,16
   1777a:	fce61fe3          	bne	a2,a4,17758 <_calloc_r+0x3c>
   1777e:	00052823          	sw	zero,16(a0)
   17782:	01850793          	addi	a5,a0,24
   17786:	00052a23          	sw	zero,20(a0)
   1778a:	b7f9                	j	17758 <_calloc_r+0x3c>
   1778c:	4581                	li	a1,0
   1778e:	b39f80ef          	jal	ra,102c6 <memset>
   17792:	bfc9                	j	17764 <_calloc_r+0x48>

00017794 <_close_r>:
   17794:	1141                	addi	sp,sp,-16
   17796:	c422                	sw	s0,8(sp)
   17798:	c226                	sw	s1,4(sp)
   1779a:	84aa                	mv	s1,a0
   1779c:	852e                	mv	a0,a1
   1779e:	c606                	sw	ra,12(sp)
   177a0:	2201a423          	sw	zero,552(gp) # 1ec60 <errno>
   177a4:	4c4010ef          	jal	ra,18c68 <_close>
   177a8:	57fd                	li	a5,-1
   177aa:	00f51663          	bne	a0,a5,177b6 <_close_r+0x22>
   177ae:	2281a783          	lw	a5,552(gp) # 1ec60 <errno>
   177b2:	c391                	beqz	a5,177b6 <_close_r+0x22>
   177b4:	c09c                	sw	a5,0(s1)
   177b6:	40b2                	lw	ra,12(sp)
   177b8:	4422                	lw	s0,8(sp)
   177ba:	4492                	lw	s1,4(sp)
   177bc:	0141                	addi	sp,sp,16
   177be:	8082                	ret

000177c0 <_fclose_r>:
   177c0:	1141                	addi	sp,sp,-16
   177c2:	c606                	sw	ra,12(sp)
   177c4:	c422                	sw	s0,8(sp)
   177c6:	c226                	sw	s1,4(sp)
   177c8:	c04a                	sw	s2,0(sp)
   177ca:	e989                	bnez	a1,177dc <_fclose_r+0x1c>
   177cc:	4901                	li	s2,0
   177ce:	40b2                	lw	ra,12(sp)
   177d0:	4422                	lw	s0,8(sp)
   177d2:	854a                	mv	a0,s2
   177d4:	4492                	lw	s1,4(sp)
   177d6:	4902                	lw	s2,0(sp)
   177d8:	0141                	addi	sp,sp,16
   177da:	8082                	ret
   177dc:	84aa                	mv	s1,a0
   177de:	842e                	mv	s0,a1
   177e0:	c509                	beqz	a0,177ea <_fclose_r+0x2a>
   177e2:	5d1c                	lw	a5,56(a0)
   177e4:	e399                	bnez	a5,177ea <_fclose_r+0x2a>
   177e6:	f64fa0ef          	jal	ra,11f4a <__sinit>
   177ea:	00c41783          	lh	a5,12(s0)
   177ee:	dff9                	beqz	a5,177cc <_fclose_r+0xc>
   177f0:	85a2                	mv	a1,s0
   177f2:	8526                	mv	a0,s1
   177f4:	cf8fa0ef          	jal	ra,11cec <__sflush_r>
   177f8:	545c                	lw	a5,44(s0)
   177fa:	892a                	mv	s2,a0
   177fc:	c799                	beqz	a5,1780a <_fclose_r+0x4a>
   177fe:	4c4c                	lw	a1,28(s0)
   17800:	8526                	mv	a0,s1
   17802:	9782                	jalr	a5
   17804:	00055363          	bgez	a0,1780a <_fclose_r+0x4a>
   17808:	597d                	li	s2,-1
   1780a:	00c45783          	lhu	a5,12(s0)
   1780e:	0807f793          	andi	a5,a5,128
   17812:	c789                	beqz	a5,1781c <_fclose_r+0x5c>
   17814:	480c                	lw	a1,16(s0)
   17816:	8526                	mv	a0,s1
   17818:	8f1fa0ef          	jal	ra,12108 <_free_r>
   1781c:	580c                	lw	a1,48(s0)
   1781e:	c991                	beqz	a1,17832 <_fclose_r+0x72>
   17820:	04040793          	addi	a5,s0,64
   17824:	00f58563          	beq	a1,a5,1782e <_fclose_r+0x6e>
   17828:	8526                	mv	a0,s1
   1782a:	8dffa0ef          	jal	ra,12108 <_free_r>
   1782e:	02042823          	sw	zero,48(s0)
   17832:	406c                	lw	a1,68(s0)
   17834:	c591                	beqz	a1,17840 <_fclose_r+0x80>
   17836:	8526                	mv	a0,s1
   17838:	8d1fa0ef          	jal	ra,12108 <_free_r>
   1783c:	04042223          	sw	zero,68(s0)
   17840:	ff0fa0ef          	jal	ra,12030 <__sfp_lock_acquire>
   17844:	00041623          	sh	zero,12(s0)
   17848:	feafa0ef          	jal	ra,12032 <__sfp_lock_release>
   1784c:	b749                	j	177ce <_fclose_r+0xe>

0001784e <fclose>:
   1784e:	85aa                	mv	a1,a0
   17850:	1c01a503          	lw	a0,448(gp) # 1ebf8 <_impure_ptr>
   17854:	b7b5                	j	177c0 <_fclose_r>

00017856 <_fiprintf_r>:
   17856:	7139                	addi	sp,sp,-64
   17858:	cc22                	sw	s0,24(sp)
   1785a:	da3e                	sw	a5,52(sp)
   1785c:	1cc1a783          	lw	a5,460(gp) # 1ec04 <__stack_chk_guard>
   17860:	d636                	sw	a3,44(sp)
   17862:	1074                	addi	a3,sp,44
   17864:	d83a                	sw	a4,48(sp)
   17866:	c63e                	sw	a5,12(sp)
   17868:	ce06                	sw	ra,28(sp)
   1786a:	dc42                	sw	a6,56(sp)
   1786c:	de46                	sw	a7,60(sp)
   1786e:	c436                	sw	a3,8(sp)
   17870:	c94ff0ef          	jal	ra,16d04 <_vfiprintf_r>
   17874:	4732                	lw	a4,12(sp)
   17876:	1cc1a783          	lw	a5,460(gp) # 1ec04 <__stack_chk_guard>
   1787a:	00f70463          	beq	a4,a5,17882 <_fiprintf_r+0x2c>
   1787e:	b65f80ef          	jal	ra,103e2 <__stack_chk_fail>
   17882:	40f2                	lw	ra,28(sp)
   17884:	4462                	lw	s0,24(sp)
   17886:	6121                	addi	sp,sp,64
   17888:	8082                	ret

0001788a <fiprintf>:
   1788a:	7139                	addi	sp,sp,-64
   1788c:	cc22                	sw	s0,24(sp)
   1788e:	da3e                	sw	a5,52(sp)
   17890:	1cc1a783          	lw	a5,460(gp) # 1ec04 <__stack_chk_guard>
   17894:	d432                	sw	a2,40(sp)
   17896:	862e                	mv	a2,a1
   17898:	c63e                	sw	a5,12(sp)
   1789a:	85aa                	mv	a1,a0
   1789c:	1c01a503          	lw	a0,448(gp) # 1ebf8 <_impure_ptr>
   178a0:	d636                	sw	a3,44(sp)
   178a2:	1034                	addi	a3,sp,40
   178a4:	d83a                	sw	a4,48(sp)
   178a6:	ce06                	sw	ra,28(sp)
   178a8:	dc42                	sw	a6,56(sp)
   178aa:	de46                	sw	a7,60(sp)
   178ac:	c436                	sw	a3,8(sp)
   178ae:	c56ff0ef          	jal	ra,16d04 <_vfiprintf_r>
   178b2:	4732                	lw	a4,12(sp)
   178b4:	1cc1a783          	lw	a5,460(gp) # 1ec04 <__stack_chk_guard>
   178b8:	00f70463          	beq	a4,a5,178c0 <fiprintf+0x36>
   178bc:	b27f80ef          	jal	ra,103e2 <__stack_chk_fail>
   178c0:	40f2                	lw	ra,28(sp)
   178c2:	4462                	lw	s0,24(sp)
   178c4:	6121                	addi	sp,sp,64
   178c6:	8082                	ret

000178c8 <__fputwc>:
   178c8:	7139                	addi	sp,sp,-64
   178ca:	d84a                	sw	s2,48(sp)
   178cc:	1cc1a783          	lw	a5,460(gp) # 1ec04 <__stack_chk_guard>
   178d0:	dc22                	sw	s0,56(sp)
   178d2:	da26                	sw	s1,52(sp)
   178d4:	d256                	sw	s5,36(sp)
   178d6:	c63e                	sw	a5,12(sp)
   178d8:	de06                	sw	ra,60(sp)
   178da:	d64e                	sw	s3,44(sp)
   178dc:	d452                	sw	s4,40(sp)
   178de:	d05a                	sw	s6,32(sp)
   178e0:	ce5e                	sw	s7,28(sp)
   178e2:	8aaa                	mv	s5,a0
   178e4:	84ae                	mv	s1,a1
   178e6:	8432                	mv	s0,a2
   178e8:	a0afc0ef          	jal	ra,13af2 <__locale_mb_cur_max>
   178ec:	4785                	li	a5,1
   178ee:	02f51863          	bne	a0,a5,1791e <__fputwc+0x56>
   178f2:	fff48793          	addi	a5,s1,-1
   178f6:	0fe00713          	li	a4,254
   178fa:	02f76263          	bltu	a4,a5,1791e <__fputwc+0x56>
   178fe:	00910423          	sb	s1,8(sp)
   17902:	4a05                	li	s4,1
   17904:	4981                	li	s3,0
   17906:	5b7d                	li	s6,-1
   17908:	4ba9                	li	s7,10
   1790a:	03499d63          	bne	s3,s4,17944 <__fputwc+0x7c>
   1790e:	8526                	mv	a0,s1
   17910:	4732                	lw	a4,12(sp)
   17912:	1cc1a783          	lw	a5,460(gp) # 1ec04 <__stack_chk_guard>
   17916:	06f70463          	beq	a4,a5,1797e <__fputwc+0xb6>
   1791a:	ac9f80ef          	jal	ra,103e2 <__stack_chk_fail>
   1791e:	05c40693          	addi	a3,s0,92
   17922:	8626                	mv	a2,s1
   17924:	002c                	addi	a1,sp,8
   17926:	8556                	mv	a0,s5
   17928:	2bc010ef          	jal	ra,18be4 <_wcrtomb_r>
   1792c:	57fd                	li	a5,-1
   1792e:	8a2a                	mv	s4,a0
   17930:	fcf51ae3          	bne	a0,a5,17904 <__fputwc+0x3c>
   17934:	00c45783          	lhu	a5,12(s0)
   17938:	0407e793          	ori	a5,a5,64
   1793c:	00f41623          	sh	a5,12(s0)
   17940:	557d                	li	a0,-1
   17942:	b7f9                	j	17910 <__fputwc+0x48>
   17944:	003c                	addi	a5,sp,8
   17946:	97ce                	add	a5,a5,s3
   17948:	0007c583          	lbu	a1,0(a5)
   1794c:	441c                	lw	a5,8(s0)
   1794e:	17fd                	addi	a5,a5,-1
   17950:	c41c                	sw	a5,8(s0)
   17952:	0007d763          	bgez	a5,17960 <__fputwc+0x98>
   17956:	4c18                	lw	a4,24(s0)
   17958:	00e7cc63          	blt	a5,a4,17970 <__fputwc+0xa8>
   1795c:	01758a63          	beq	a1,s7,17970 <__fputwc+0xa8>
   17960:	401c                	lw	a5,0(s0)
   17962:	00178713          	addi	a4,a5,1
   17966:	c018                	sw	a4,0(s0)
   17968:	00b78023          	sb	a1,0(a5)
   1796c:	0985                	addi	s3,s3,1
   1796e:	bf71                	j	1790a <__fputwc+0x42>
   17970:	8622                	mv	a2,s0
   17972:	8556                	mv	a0,s5
   17974:	1ac010ef          	jal	ra,18b20 <__swbuf_r>
   17978:	ff651ae3          	bne	a0,s6,1796c <__fputwc+0xa4>
   1797c:	b7d1                	j	17940 <__fputwc+0x78>
   1797e:	50f2                	lw	ra,60(sp)
   17980:	5462                	lw	s0,56(sp)
   17982:	54d2                	lw	s1,52(sp)
   17984:	5942                	lw	s2,48(sp)
   17986:	59b2                	lw	s3,44(sp)
   17988:	5a22                	lw	s4,40(sp)
   1798a:	5a92                	lw	s5,36(sp)
   1798c:	5b02                	lw	s6,32(sp)
   1798e:	4bf2                	lw	s7,28(sp)
   17990:	6121                	addi	sp,sp,64
   17992:	8082                	ret

00017994 <_fputwc_r>:
   17994:	00c61783          	lh	a5,12(a2)
   17998:	01279713          	slli	a4,a5,0x12
   1799c:	00074a63          	bltz	a4,179b0 <_fputwc_r+0x1c>
   179a0:	5278                	lw	a4,100(a2)
   179a2:	6689                	lui	a3,0x2
   179a4:	8fd5                	or	a5,a5,a3
   179a6:	00f61623          	sh	a5,12(a2)
   179aa:	6789                	lui	a5,0x2
   179ac:	8fd9                	or	a5,a5,a4
   179ae:	d27c                	sw	a5,100(a2)
   179b0:	bf21                	j	178c8 <__fputwc>

000179b2 <fputwc>:
   179b2:	1101                	addi	sp,sp,-32
   179b4:	cc22                	sw	s0,24(sp)
   179b6:	1c01a403          	lw	s0,448(gp) # 1ebf8 <_impure_ptr>
   179ba:	ca26                	sw	s1,20(sp)
   179bc:	ce06                	sw	ra,28(sp)
   179be:	84aa                	mv	s1,a0
   179c0:	862e                	mv	a2,a1
   179c2:	c801                	beqz	s0,179d2 <fputwc+0x20>
   179c4:	5c1c                	lw	a5,56(s0)
   179c6:	e791                	bnez	a5,179d2 <fputwc+0x20>
   179c8:	8522                	mv	a0,s0
   179ca:	c62e                	sw	a1,12(sp)
   179cc:	d7efa0ef          	jal	ra,11f4a <__sinit>
   179d0:	4632                	lw	a2,12(sp)
   179d2:	8522                	mv	a0,s0
   179d4:	4462                	lw	s0,24(sp)
   179d6:	40f2                	lw	ra,28(sp)
   179d8:	85a6                	mv	a1,s1
   179da:	44d2                	lw	s1,20(sp)
   179dc:	6105                	addi	sp,sp,32
   179de:	bf5d                	j	17994 <_fputwc_r>

000179e0 <_fstat_r>:
   179e0:	1141                	addi	sp,sp,-16
   179e2:	c422                	sw	s0,8(sp)
   179e4:	c226                	sw	s1,4(sp)
   179e6:	84aa                	mv	s1,a0
   179e8:	852e                	mv	a0,a1
   179ea:	85b2                	mv	a1,a2
   179ec:	c606                	sw	ra,12(sp)
   179ee:	2201a423          	sw	zero,552(gp) # 1ec60 <errno>
   179f2:	2d2010ef          	jal	ra,18cc4 <_fstat>
   179f6:	57fd                	li	a5,-1
   179f8:	00f51663          	bne	a0,a5,17a04 <_fstat_r+0x24>
   179fc:	2281a783          	lw	a5,552(gp) # 1ec60 <errno>
   17a00:	c391                	beqz	a5,17a04 <_fstat_r+0x24>
   17a02:	c09c                	sw	a5,0(s1)
   17a04:	40b2                	lw	ra,12(sp)
   17a06:	4422                	lw	s0,8(sp)
   17a08:	4492                	lw	s1,4(sp)
   17a0a:	0141                	addi	sp,sp,16
   17a0c:	8082                	ret

00017a0e <__sfvwrite_r>:
   17a0e:	461c                	lw	a5,8(a2)
   17a10:	e781                	bnez	a5,17a18 <__sfvwrite_r+0xa>
   17a12:	4781                	li	a5,0
   17a14:	853e                	mv	a0,a5
   17a16:	8082                	ret
   17a18:	00c5d783          	lhu	a5,12(a1)
   17a1c:	715d                	addi	sp,sp,-80
   17a1e:	c4a2                	sw	s0,72(sp)
   17a20:	c0ca                	sw	s2,64(sp)
   17a22:	da56                	sw	s5,52(sp)
   17a24:	c686                	sw	ra,76(sp)
   17a26:	c2a6                	sw	s1,68(sp)
   17a28:	de4e                	sw	s3,60(sp)
   17a2a:	dc52                	sw	s4,56(sp)
   17a2c:	d85a                	sw	s6,48(sp)
   17a2e:	d65e                	sw	s7,44(sp)
   17a30:	d462                	sw	s8,40(sp)
   17a32:	d266                	sw	s9,36(sp)
   17a34:	d06a                	sw	s10,32(sp)
   17a36:	ce6e                	sw	s11,28(sp)
   17a38:	8ba1                	andi	a5,a5,8
   17a3a:	8ab2                	mv	s5,a2
   17a3c:	842e                	mv	s0,a1
   17a3e:	892a                	mv	s2,a0
   17a40:	cfd1                	beqz	a5,17adc <__sfvwrite_r+0xce>
   17a42:	499c                	lw	a5,16(a1)
   17a44:	cfc1                	beqz	a5,17adc <__sfvwrite_r+0xce>
   17a46:	00c45783          	lhu	a5,12(s0)
   17a4a:	000aaa03          	lw	s4,0(s5)
   17a4e:	0027f713          	andi	a4,a5,2
   17a52:	0e071763          	bnez	a4,17b40 <__sfvwrite_r+0x132>
   17a56:	8b85                	andi	a5,a5,1
   17a58:	16078063          	beqz	a5,17bb8 <__sfvwrite_r+0x1aa>
   17a5c:	4b81                	li	s7,0
   17a5e:	4501                	li	a0,0
   17a60:	4b01                	li	s6,0
   17a62:	4981                	li	s3,0
   17a64:	24098563          	beqz	s3,17cae <__sfvwrite_r+0x2a0>
   17a68:	ed01                	bnez	a0,17a80 <__sfvwrite_r+0x72>
   17a6a:	864e                	mv	a2,s3
   17a6c:	45a9                	li	a1,10
   17a6e:	855a                	mv	a0,s6
   17a70:	ec6fc0ef          	jal	ra,14136 <memchr>
   17a74:	00198b93          	addi	s7,s3,1
   17a78:	c501                	beqz	a0,17a80 <__sfvwrite_r+0x72>
   17a7a:	0505                	addi	a0,a0,1
   17a7c:	41650bb3          	sub	s7,a0,s6
   17a80:	8c5e                	mv	s8,s7
   17a82:	0179f363          	bgeu	s3,s7,17a88 <__sfvwrite_r+0x7a>
   17a86:	8c4e                	mv	s8,s3
   17a88:	4008                	lw	a0,0(s0)
   17a8a:	481c                	lw	a5,16(s0)
   17a8c:	4854                	lw	a3,20(s0)
   17a8e:	22a7f763          	bgeu	a5,a0,17cbc <__sfvwrite_r+0x2ae>
   17a92:	4404                	lw	s1,8(s0)
   17a94:	94b6                	add	s1,s1,a3
   17a96:	2384d363          	bge	s1,s8,17cbc <__sfvwrite_r+0x2ae>
   17a9a:	85da                	mv	a1,s6
   17a9c:	8626                	mv	a2,s1
   17a9e:	2465                	jal	17d46 <memmove>
   17aa0:	401c                	lw	a5,0(s0)
   17aa2:	85a2                	mv	a1,s0
   17aa4:	854a                	mv	a0,s2
   17aa6:	97a6                	add	a5,a5,s1
   17aa8:	c01c                	sw	a5,0(s0)
   17aaa:	b9cfa0ef          	jal	ra,11e46 <_fflush_r>
   17aae:	0e051d63          	bnez	a0,17ba8 <__sfvwrite_r+0x19a>
   17ab2:	409b8bb3          	sub	s7,s7,s1
   17ab6:	4505                	li	a0,1
   17ab8:	000b9763          	bnez	s7,17ac6 <__sfvwrite_r+0xb8>
   17abc:	85a2                	mv	a1,s0
   17abe:	854a                	mv	a0,s2
   17ac0:	b86fa0ef          	jal	ra,11e46 <_fflush_r>
   17ac4:	e175                	bnez	a0,17ba8 <__sfvwrite_r+0x19a>
   17ac6:	008aa783          	lw	a5,8(s5)
   17aca:	9b26                	add	s6,s6,s1
   17acc:	409989b3          	sub	s3,s3,s1
   17ad0:	409784b3          	sub	s1,a5,s1
   17ad4:	009aa423          	sw	s1,8(s5)
   17ad8:	f4d1                	bnez	s1,17a64 <__sfvwrite_r+0x56>
   17ada:	a091                	j	17b1e <__sfvwrite_r+0x110>
   17adc:	85a2                	mv	a1,s0
   17ade:	854a                	mv	a0,s2
   17ae0:	82cfa0ef          	jal	ra,11b0c <__swsetup_r>
   17ae4:	57fd                	li	a5,-1
   17ae6:	d125                	beqz	a0,17a46 <__sfvwrite_r+0x38>
   17ae8:	a825                	j	17b20 <__sfvwrite_r+0x112>
   17aea:	000a2983          	lw	s3,0(s4)
   17aee:	004a2483          	lw	s1,4(s4)
   17af2:	0a21                	addi	s4,s4,8
   17af4:	d8fd                	beqz	s1,17aea <__sfvwrite_r+0xdc>
   17af6:	86a6                	mv	a3,s1
   17af8:	009b7363          	bgeu	s6,s1,17afe <__sfvwrite_r+0xf0>
   17afc:	86da                	mv	a3,s6
   17afe:	505c                	lw	a5,36(s0)
   17b00:	4c4c                	lw	a1,28(s0)
   17b02:	864e                	mv	a2,s3
   17b04:	854a                	mv	a0,s2
   17b06:	9782                	jalr	a5
   17b08:	0aa05063          	blez	a0,17ba8 <__sfvwrite_r+0x19a>
   17b0c:	008aa783          	lw	a5,8(s5)
   17b10:	99aa                	add	s3,s3,a0
   17b12:	8c89                	sub	s1,s1,a0
   17b14:	40a78533          	sub	a0,a5,a0
   17b18:	00aaa423          	sw	a0,8(s5)
   17b1c:	fd61                	bnez	a0,17af4 <__sfvwrite_r+0xe6>
   17b1e:	4781                	li	a5,0
   17b20:	40b6                	lw	ra,76(sp)
   17b22:	4426                	lw	s0,72(sp)
   17b24:	4496                	lw	s1,68(sp)
   17b26:	4906                	lw	s2,64(sp)
   17b28:	59f2                	lw	s3,60(sp)
   17b2a:	5a62                	lw	s4,56(sp)
   17b2c:	5ad2                	lw	s5,52(sp)
   17b2e:	5b42                	lw	s6,48(sp)
   17b30:	5bb2                	lw	s7,44(sp)
   17b32:	5c22                	lw	s8,40(sp)
   17b34:	5c92                	lw	s9,36(sp)
   17b36:	5d02                	lw	s10,32(sp)
   17b38:	4df2                	lw	s11,28(sp)
   17b3a:	853e                	mv	a0,a5
   17b3c:	6161                	addi	sp,sp,80
   17b3e:	8082                	ret
   17b40:	80000b37          	lui	s6,0x80000
   17b44:	4981                	li	s3,0
   17b46:	4481                	li	s1,0
   17b48:	c00b4b13          	xori	s6,s6,-1024
   17b4c:	b765                	j	17af4 <__sfvwrite_r+0xe6>
   17b4e:	000a2b03          	lw	s6,0(s4)
   17b52:	004a2483          	lw	s1,4(s4)
   17b56:	0a21                	addi	s4,s4,8
   17b58:	d8fd                	beqz	s1,17b4e <__sfvwrite_r+0x140>
   17b5a:	00c45703          	lhu	a4,12(s0)
   17b5e:	441c                	lw	a5,8(s0)
   17b60:	4008                	lw	a0,0(s0)
   17b62:	20077693          	andi	a3,a4,512
   17b66:	0e068863          	beqz	a3,17c56 <__sfvwrite_r+0x248>
   17b6a:	08f4ea63          	bltu	s1,a5,17bfe <__sfvwrite_r+0x1f0>
   17b6e:	48077693          	andi	a3,a4,1152
   17b72:	c6d1                	beqz	a3,17bfe <__sfvwrite_r+0x1f0>
   17b74:	01442d83          	lw	s11,20(s0)
   17b78:	480c                	lw	a1,16(s0)
   17b7a:	03bc8db3          	mul	s11,s9,s11
   17b7e:	40b509b3          	sub	s3,a0,a1
   17b82:	00198793          	addi	a5,s3,1
   17b86:	97a6                	add	a5,a5,s1
   17b88:	03adcdb3          	div	s11,s11,s10
   17b8c:	00fdf363          	bgeu	s11,a5,17b92 <__sfvwrite_r+0x184>
   17b90:	8dbe                	mv	s11,a5
   17b92:	40077713          	andi	a4,a4,1024
   17b96:	c345                	beqz	a4,17c36 <__sfvwrite_r+0x228>
   17b98:	85ee                	mv	a1,s11
   17b9a:	854a                	mv	a0,s2
   17b9c:	8c0fc0ef          	jal	ra,13c5c <_malloc_r>
   17ba0:	e51d                	bnez	a0,17bce <__sfvwrite_r+0x1c0>
   17ba2:	47b1                	li	a5,12
   17ba4:	00f92023          	sw	a5,0(s2)
   17ba8:	00c45783          	lhu	a5,12(s0)
   17bac:	0407e793          	ori	a5,a5,64
   17bb0:	00f41623          	sh	a5,12(s0)
   17bb4:	57fd                	li	a5,-1
   17bb6:	b7ad                	j	17b20 <__sfvwrite_r+0x112>
   17bb8:	80000bb7          	lui	s7,0x80000
   17bbc:	ffebcc13          	xori	s8,s7,-2
   17bc0:	4b01                	li	s6,0
   17bc2:	4481                	li	s1,0
   17bc4:	fffbcb93          	not	s7,s7
   17bc8:	4c8d                	li	s9,3
   17bca:	4d09                	li	s10,2
   17bcc:	b771                	j	17b58 <__sfvwrite_r+0x14a>
   17bce:	480c                	lw	a1,16(s0)
   17bd0:	864e                	mv	a2,s3
   17bd2:	c62a                	sw	a0,12(sp)
   17bd4:	e78fc0ef          	jal	ra,1424c <memcpy>
   17bd8:	00c45703          	lhu	a4,12(s0)
   17bdc:	47b2                	lw	a5,12(sp)
   17bde:	b7f77713          	andi	a4,a4,-1153
   17be2:	08076713          	ori	a4,a4,128
   17be6:	00e41623          	sh	a4,12(s0)
   17bea:	c81c                	sw	a5,16(s0)
   17bec:	01b42a23          	sw	s11,20(s0)
   17bf0:	97ce                	add	a5,a5,s3
   17bf2:	413d8db3          	sub	s11,s11,s3
   17bf6:	c01c                	sw	a5,0(s0)
   17bf8:	01b42423          	sw	s11,8(s0)
   17bfc:	87a6                	mv	a5,s1
   17bfe:	89a6                	mv	s3,s1
   17c00:	00f4f363          	bgeu	s1,a5,17c06 <__sfvwrite_r+0x1f8>
   17c04:	87a6                	mv	a5,s1
   17c06:	4008                	lw	a0,0(s0)
   17c08:	863e                	mv	a2,a5
   17c0a:	85da                	mv	a1,s6
   17c0c:	c63e                	sw	a5,12(sp)
   17c0e:	2a25                	jal	17d46 <memmove>
   17c10:	4418                	lw	a4,8(s0)
   17c12:	47b2                	lw	a5,12(sp)
   17c14:	8f1d                	sub	a4,a4,a5
   17c16:	c418                	sw	a4,8(s0)
   17c18:	4018                	lw	a4,0(s0)
   17c1a:	97ba                	add	a5,a5,a4
   17c1c:	c01c                	sw	a5,0(s0)
   17c1e:	008aa783          	lw	a5,8(s5)
   17c22:	9b4e                	add	s6,s6,s3
   17c24:	413484b3          	sub	s1,s1,s3
   17c28:	413789b3          	sub	s3,a5,s3
   17c2c:	013aa423          	sw	s3,8(s5)
   17c30:	f20994e3          	bnez	s3,17b58 <__sfvwrite_r+0x14a>
   17c34:	b5ed                	j	17b1e <__sfvwrite_r+0x110>
   17c36:	866e                	mv	a2,s11
   17c38:	854a                	mv	a0,s2
   17c3a:	2aad                	jal	17db4 <_realloc_r>
   17c3c:	87aa                	mv	a5,a0
   17c3e:	f555                	bnez	a0,17bea <__sfvwrite_r+0x1dc>
   17c40:	480c                	lw	a1,16(s0)
   17c42:	854a                	mv	a0,s2
   17c44:	cc4fa0ef          	jal	ra,12108 <_free_r>
   17c48:	00c45783          	lhu	a5,12(s0)
   17c4c:	f7f7f793          	andi	a5,a5,-129
   17c50:	00f41623          	sh	a5,12(s0)
   17c54:	b7b9                	j	17ba2 <__sfvwrite_r+0x194>
   17c56:	4818                	lw	a4,16(s0)
   17c58:	00a76563          	bltu	a4,a0,17c62 <__sfvwrite_r+0x254>
   17c5c:	4854                	lw	a3,20(s0)
   17c5e:	02d4f763          	bgeu	s1,a3,17c8c <__sfvwrite_r+0x27e>
   17c62:	89be                	mv	s3,a5
   17c64:	00f4f363          	bgeu	s1,a5,17c6a <__sfvwrite_r+0x25c>
   17c68:	89a6                	mv	s3,s1
   17c6a:	864e                	mv	a2,s3
   17c6c:	85da                	mv	a1,s6
   17c6e:	28e1                	jal	17d46 <memmove>
   17c70:	441c                	lw	a5,8(s0)
   17c72:	4018                	lw	a4,0(s0)
   17c74:	413787b3          	sub	a5,a5,s3
   17c78:	974e                	add	a4,a4,s3
   17c7a:	c41c                	sw	a5,8(s0)
   17c7c:	c018                	sw	a4,0(s0)
   17c7e:	f3c5                	bnez	a5,17c1e <__sfvwrite_r+0x210>
   17c80:	85a2                	mv	a1,s0
   17c82:	854a                	mv	a0,s2
   17c84:	9c2fa0ef          	jal	ra,11e46 <_fflush_r>
   17c88:	d959                	beqz	a0,17c1e <__sfvwrite_r+0x210>
   17c8a:	bf39                	j	17ba8 <__sfvwrite_r+0x19a>
   17c8c:	87de                	mv	a5,s7
   17c8e:	009c6363          	bltu	s8,s1,17c94 <__sfvwrite_r+0x286>
   17c92:	87a6                	mv	a5,s1
   17c94:	02d7c7b3          	div	a5,a5,a3
   17c98:	5058                	lw	a4,36(s0)
   17c9a:	4c4c                	lw	a1,28(s0)
   17c9c:	865a                	mv	a2,s6
   17c9e:	854a                	mv	a0,s2
   17ca0:	02d786b3          	mul	a3,a5,a3
   17ca4:	9702                	jalr	a4
   17ca6:	89aa                	mv	s3,a0
   17ca8:	f6a04be3          	bgtz	a0,17c1e <__sfvwrite_r+0x210>
   17cac:	bdf5                	j	17ba8 <__sfvwrite_r+0x19a>
   17cae:	000a2b03          	lw	s6,0(s4)
   17cb2:	004a2983          	lw	s3,4(s4)
   17cb6:	4501                	li	a0,0
   17cb8:	0a21                	addi	s4,s4,8
   17cba:	b36d                	j	17a64 <__sfvwrite_r+0x56>
   17cbc:	00dc4b63          	blt	s8,a3,17cd2 <__sfvwrite_r+0x2c4>
   17cc0:	505c                	lw	a5,36(s0)
   17cc2:	4c4c                	lw	a1,28(s0)
   17cc4:	865a                	mv	a2,s6
   17cc6:	854a                	mv	a0,s2
   17cc8:	9782                	jalr	a5
   17cca:	84aa                	mv	s1,a0
   17ccc:	dea043e3          	bgtz	a0,17ab2 <__sfvwrite_r+0xa4>
   17cd0:	bde1                	j	17ba8 <__sfvwrite_r+0x19a>
   17cd2:	8662                	mv	a2,s8
   17cd4:	85da                	mv	a1,s6
   17cd6:	2885                	jal	17d46 <memmove>
   17cd8:	441c                	lw	a5,8(s0)
   17cda:	84e2                	mv	s1,s8
   17cdc:	418787b3          	sub	a5,a5,s8
   17ce0:	c41c                	sw	a5,8(s0)
   17ce2:	401c                	lw	a5,0(s0)
   17ce4:	97e2                	add	a5,a5,s8
   17ce6:	c01c                	sw	a5,0(s0)
   17ce8:	b3e9                	j	17ab2 <__sfvwrite_r+0xa4>

00017cea <_isatty_r>:
   17cea:	1141                	addi	sp,sp,-16
   17cec:	c422                	sw	s0,8(sp)
   17cee:	c226                	sw	s1,4(sp)
   17cf0:	84aa                	mv	s1,a0
   17cf2:	852e                	mv	a0,a1
   17cf4:	c606                	sw	ra,12(sp)
   17cf6:	2201a423          	sw	zero,552(gp) # 1ec60 <errno>
   17cfa:	026010ef          	jal	ra,18d20 <_isatty>
   17cfe:	57fd                	li	a5,-1
   17d00:	00f51663          	bne	a0,a5,17d0c <_isatty_r+0x22>
   17d04:	2281a783          	lw	a5,552(gp) # 1ec60 <errno>
   17d08:	c391                	beqz	a5,17d0c <_isatty_r+0x22>
   17d0a:	c09c                	sw	a5,0(s1)
   17d0c:	40b2                	lw	ra,12(sp)
   17d0e:	4422                	lw	s0,8(sp)
   17d10:	4492                	lw	s1,4(sp)
   17d12:	0141                	addi	sp,sp,16
   17d14:	8082                	ret

00017d16 <_lseek_r>:
   17d16:	1141                	addi	sp,sp,-16
   17d18:	c422                	sw	s0,8(sp)
   17d1a:	c226                	sw	s1,4(sp)
   17d1c:	84aa                	mv	s1,a0
   17d1e:	852e                	mv	a0,a1
   17d20:	85b2                	mv	a1,a2
   17d22:	8636                	mv	a2,a3
   17d24:	c606                	sw	ra,12(sp)
   17d26:	2201a423          	sw	zero,552(gp) # 1ec60 <errno>
   17d2a:	040010ef          	jal	ra,18d6a <_lseek>
   17d2e:	57fd                	li	a5,-1
   17d30:	00f51663          	bne	a0,a5,17d3c <_lseek_r+0x26>
   17d34:	2281a783          	lw	a5,552(gp) # 1ec60 <errno>
   17d38:	c391                	beqz	a5,17d3c <_lseek_r+0x26>
   17d3a:	c09c                	sw	a5,0(s1)
   17d3c:	40b2                	lw	ra,12(sp)
   17d3e:	4422                	lw	s0,8(sp)
   17d40:	4492                	lw	s1,4(sp)
   17d42:	0141                	addi	sp,sp,16
   17d44:	8082                	ret

00017d46 <memmove>:
   17d46:	00c50733          	add	a4,a0,a2
   17d4a:	00a5e663          	bltu	a1,a0,17d56 <memmove+0x10>
   17d4e:	87aa                	mv	a5,a0
   17d50:	02e79363          	bne	a5,a4,17d76 <memmove+0x30>
   17d54:	8082                	ret
   17d56:	00c587b3          	add	a5,a1,a2
   17d5a:	8e1d                	sub	a2,a2,a5
   17d5c:	fef579e3          	bgeu	a0,a5,17d4e <memmove+0x8>
   17d60:	00c786b3          	add	a3,a5,a2
   17d64:	e291                	bnez	a3,17d68 <memmove+0x22>
   17d66:	8082                	ret
   17d68:	17fd                	addi	a5,a5,-1
   17d6a:	0007c683          	lbu	a3,0(a5) # 2000 <__stack_chk_init-0xe074>
   17d6e:	177d                	addi	a4,a4,-1
   17d70:	00d70023          	sb	a3,0(a4)
   17d74:	b7f5                	j	17d60 <memmove+0x1a>
   17d76:	0585                	addi	a1,a1,1
   17d78:	fff5c683          	lbu	a3,-1(a1)
   17d7c:	0785                	addi	a5,a5,1
   17d7e:	fed78fa3          	sb	a3,-1(a5)
   17d82:	b7f9                	j	17d50 <memmove+0xa>

00017d84 <_read_r>:
   17d84:	1141                	addi	sp,sp,-16
   17d86:	c422                	sw	s0,8(sp)
   17d88:	c226                	sw	s1,4(sp)
   17d8a:	84aa                	mv	s1,a0
   17d8c:	852e                	mv	a0,a1
   17d8e:	85b2                	mv	a1,a2
   17d90:	8636                	mv	a2,a3
   17d92:	c606                	sw	ra,12(sp)
   17d94:	2201a423          	sw	zero,552(gp) # 1ec60 <errno>
   17d98:	000010ef          	jal	ra,18d98 <_read>
   17d9c:	57fd                	li	a5,-1
   17d9e:	00f51663          	bne	a0,a5,17daa <_read_r+0x26>
   17da2:	2281a783          	lw	a5,552(gp) # 1ec60 <errno>
   17da6:	c391                	beqz	a5,17daa <_read_r+0x26>
   17da8:	c09c                	sw	a5,0(s1)
   17daa:	40b2                	lw	ra,12(sp)
   17dac:	4422                	lw	s0,8(sp)
   17dae:	4492                	lw	s1,4(sp)
   17db0:	0141                	addi	sp,sp,16
   17db2:	8082                	ret

00017db4 <_realloc_r>:
   17db4:	7139                	addi	sp,sp,-64
   17db6:	dc22                	sw	s0,56(sp)
   17db8:	de06                	sw	ra,60(sp)
   17dba:	842e                	mv	s0,a1
   17dbc:	da26                	sw	s1,52(sp)
   17dbe:	d84a                	sw	s2,48(sp)
   17dc0:	d64e                	sw	s3,44(sp)
   17dc2:	d452                	sw	s4,40(sp)
   17dc4:	d256                	sw	s5,36(sp)
   17dc6:	d05a                	sw	s6,32(sp)
   17dc8:	ce5e                	sw	s7,28(sp)
   17dca:	cc62                	sw	s8,24(sp)
   17dcc:	85b2                	mv	a1,a2
   17dce:	ec11                	bnez	s0,17dea <_realloc_r+0x36>
   17dd0:	5462                	lw	s0,56(sp)
   17dd2:	50f2                	lw	ra,60(sp)
   17dd4:	54d2                	lw	s1,52(sp)
   17dd6:	5942                	lw	s2,48(sp)
   17dd8:	59b2                	lw	s3,44(sp)
   17dda:	5a22                	lw	s4,40(sp)
   17ddc:	5a92                	lw	s5,36(sp)
   17dde:	5b02                	lw	s6,32(sp)
   17de0:	4bf2                	lw	s7,28(sp)
   17de2:	4c62                	lw	s8,24(sp)
   17de4:	6121                	addi	sp,sp,64
   17de6:	e77fb06f          	j	13c5c <_malloc_r>
   17dea:	8aaa                	mv	s5,a0
   17dec:	c632                	sw	a2,12(sp)
   17dee:	d1cfc0ef          	jal	ra,1430a <__malloc_lock>
   17df2:	45b2                	lw	a1,12(sp)
   17df4:	ffc42683          	lw	a3,-4(s0)
   17df8:	47d9                	li	a5,22
   17dfa:	00b58993          	addi	s3,a1,11
   17dfe:	ff840b93          	addi	s7,s0,-8
   17e02:	ffc6f913          	andi	s2,a3,-4
   17e06:	0337f763          	bgeu	a5,s3,17e34 <_realloc_r+0x80>
   17e0a:	ff89fb13          	andi	s6,s3,-8
   17e0e:	020b5463          	bgez	s6,17e36 <_realloc_r+0x82>
   17e12:	47b1                	li	a5,12
   17e14:	00faa023          	sw	a5,0(s5)
   17e18:	4a01                	li	s4,0
   17e1a:	50f2                	lw	ra,60(sp)
   17e1c:	5462                	lw	s0,56(sp)
   17e1e:	8552                	mv	a0,s4
   17e20:	54d2                	lw	s1,52(sp)
   17e22:	5942                	lw	s2,48(sp)
   17e24:	59b2                	lw	s3,44(sp)
   17e26:	5a22                	lw	s4,40(sp)
   17e28:	5a92                	lw	s5,36(sp)
   17e2a:	5b02                	lw	s6,32(sp)
   17e2c:	4bf2                	lw	s7,28(sp)
   17e2e:	4c62                	lw	s8,24(sp)
   17e30:	6121                	addi	sp,sp,64
   17e32:	8082                	ret
   17e34:	4b41                	li	s6,16
   17e36:	fcbb6ee3          	bltu	s6,a1,17e12 <_realloc_r+0x5e>
   17e3a:	31695263          	bge	s2,s6,1813e <_realloc_r+0x38a>
   17e3e:	d9418713          	addi	a4,gp,-620 # 1e7cc <__malloc_av_>
   17e42:	4710                	lw	a2,8(a4)
   17e44:	012b87b3          	add	a5,s7,s2
   17e48:	43d8                	lw	a4,4(a5)
   17e4a:	d9418c13          	addi	s8,gp,-620 # 1e7cc <__malloc_av_>
   17e4e:	00f60863          	beq	a2,a5,17e5e <_realloc_r+0xaa>
   17e52:	ffe77513          	andi	a0,a4,-2
   17e56:	953e                	add	a0,a0,a5
   17e58:	4148                	lw	a0,4(a0)
   17e5a:	8905                	andi	a0,a0,1
   17e5c:	e559                	bnez	a0,17eea <_realloc_r+0x136>
   17e5e:	9b71                	andi	a4,a4,-4
   17e60:	00e909b3          	add	s3,s2,a4
   17e64:	02f61c63          	bne	a2,a5,17e9c <_realloc_r+0xe8>
   17e68:	010b0513          	addi	a0,s6,16 # 80000010 <__BSS_END__+0x7ffe13ac>
   17e6c:	08a9c163          	blt	s3,a0,17eee <_realloc_r+0x13a>
   17e70:	9bda                	add	s7,s7,s6
   17e72:	416989b3          	sub	s3,s3,s6
   17e76:	017c2423          	sw	s7,8(s8)
   17e7a:	0019e993          	ori	s3,s3,1
   17e7e:	013ba223          	sw	s3,4(s7) # 80000004 <__BSS_END__+0x7ffe13a0>
   17e82:	ffc42983          	lw	s3,-4(s0)
   17e86:	8556                	mv	a0,s5
   17e88:	8a22                	mv	s4,s0
   17e8a:	0019f993          	andi	s3,s3,1
   17e8e:	0169e9b3          	or	s3,s3,s6
   17e92:	ff342e23          	sw	s3,-4(s0)
   17e96:	c76fc0ef          	jal	ra,1430c <__malloc_unlock>
   17e9a:	b741                	j	17e1a <_realloc_r+0x66>
   17e9c:	0569c963          	blt	s3,s6,17eee <_realloc_r+0x13a>
   17ea0:	47d8                	lw	a4,12(a5)
   17ea2:	479c                	lw	a5,8(a5)
   17ea4:	c7d8                	sw	a4,12(a5)
   17ea6:	c71c                	sw	a5,8(a4)
   17ea8:	004ba703          	lw	a4,4(s7)
   17eac:	416986b3          	sub	a3,s3,s6
   17eb0:	463d                	li	a2,15
   17eb2:	8b05                	andi	a4,a4,1
   17eb4:	013b87b3          	add	a5,s7,s3
   17eb8:	28d67563          	bgeu	a2,a3,18142 <_realloc_r+0x38e>
   17ebc:	00eb69b3          	or	s3,s6,a4
   17ec0:	013ba223          	sw	s3,4(s7)
   17ec4:	016b85b3          	add	a1,s7,s6
   17ec8:	0016e693          	ori	a3,a3,1
   17ecc:	c1d4                	sw	a3,4(a1)
   17ece:	43d8                	lw	a4,4(a5)
   17ed0:	05a1                	addi	a1,a1,8
   17ed2:	8556                	mv	a0,s5
   17ed4:	00176713          	ori	a4,a4,1
   17ed8:	c3d8                	sw	a4,4(a5)
   17eda:	a2efa0ef          	jal	ra,12108 <_free_r>
   17ede:	8556                	mv	a0,s5
   17ee0:	c2cfc0ef          	jal	ra,1430c <__malloc_unlock>
   17ee4:	008b8a13          	addi	s4,s7,8
   17ee8:	bf0d                	j	17e1a <_realloc_r+0x66>
   17eea:	4701                	li	a4,0
   17eec:	4781                	li	a5,0
   17eee:	8a85                	andi	a3,a3,1
   17ef0:	1a069963          	bnez	a3,180a2 <_realloc_r+0x2ee>
   17ef4:	ff842483          	lw	s1,-8(s0)
   17ef8:	409b84b3          	sub	s1,s7,s1
   17efc:	0044aa03          	lw	s4,4(s1)
   17f00:	ffca7a13          	andi	s4,s4,-4
   17f04:	9a4a                	add	s4,s4,s2
   17f06:	12078463          	beqz	a5,1802e <_realloc_r+0x27a>
   17f0a:	014709b3          	add	s3,a4,s4
   17f0e:	0af61263          	bne	a2,a5,17fb2 <_realloc_r+0x1fe>
   17f12:	010b0793          	addi	a5,s6,16
   17f16:	10f9cc63          	blt	s3,a5,1802e <_realloc_r+0x27a>
   17f1a:	4498                	lw	a4,8(s1)
   17f1c:	44dc                	lw	a5,12(s1)
   17f1e:	ffc90613          	addi	a2,s2,-4
   17f22:	00848a13          	addi	s4,s1,8
   17f26:	c75c                	sw	a5,12(a4)
   17f28:	c798                	sw	a4,8(a5)
   17f2a:	02400713          	li	a4,36
   17f2e:	06c76d63          	bltu	a4,a2,17fa8 <_realloc_r+0x1f4>
   17f32:	46cd                	li	a3,19
   17f34:	87d2                	mv	a5,s4
   17f36:	00c6fc63          	bgeu	a3,a2,17f4e <_realloc_r+0x19a>
   17f3a:	401c                	lw	a5,0(s0)
   17f3c:	c49c                	sw	a5,8(s1)
   17f3e:	405c                	lw	a5,4(s0)
   17f40:	c4dc                	sw	a5,12(s1)
   17f42:	47ed                	li	a5,27
   17f44:	02c7ef63          	bltu	a5,a2,17f82 <_realloc_r+0x1ce>
   17f48:	0421                	addi	s0,s0,8
   17f4a:	01048793          	addi	a5,s1,16
   17f4e:	4018                	lw	a4,0(s0)
   17f50:	c398                	sw	a4,0(a5)
   17f52:	4058                	lw	a4,4(s0)
   17f54:	c3d8                	sw	a4,4(a5)
   17f56:	4418                	lw	a4,8(s0)
   17f58:	c798                	sw	a4,8(a5)
   17f5a:	016487b3          	add	a5,s1,s6
   17f5e:	416989b3          	sub	s3,s3,s6
   17f62:	00fc2423          	sw	a5,8(s8)
   17f66:	0019e993          	ori	s3,s3,1
   17f6a:	0137a223          	sw	s3,4(a5)
   17f6e:	40dc                	lw	a5,4(s1)
   17f70:	8b85                	andi	a5,a5,1
   17f72:	0167e9b3          	or	s3,a5,s6
   17f76:	0134a223          	sw	s3,4(s1)
   17f7a:	8556                	mv	a0,s5
   17f7c:	b90fc0ef          	jal	ra,1430c <__malloc_unlock>
   17f80:	bd69                	j	17e1a <_realloc_r+0x66>
   17f82:	441c                	lw	a5,8(s0)
   17f84:	c89c                	sw	a5,16(s1)
   17f86:	445c                	lw	a5,12(s0)
   17f88:	c8dc                	sw	a5,20(s1)
   17f8a:	00e60663          	beq	a2,a4,17f96 <_realloc_r+0x1e2>
   17f8e:	0441                	addi	s0,s0,16
   17f90:	01848793          	addi	a5,s1,24
   17f94:	bf6d                	j	17f4e <_realloc_r+0x19a>
   17f96:	481c                	lw	a5,16(s0)
   17f98:	0461                	addi	s0,s0,24
   17f9a:	cc9c                	sw	a5,24(s1)
   17f9c:	ffc42703          	lw	a4,-4(s0)
   17fa0:	02048793          	addi	a5,s1,32
   17fa4:	ccd8                	sw	a4,28(s1)
   17fa6:	b765                	j	17f4e <_realloc_r+0x19a>
   17fa8:	85a2                	mv	a1,s0
   17faa:	8552                	mv	a0,s4
   17fac:	d9bff0ef          	jal	ra,17d46 <memmove>
   17fb0:	b76d                	j	17f5a <_realloc_r+0x1a6>
   17fb2:	0769ce63          	blt	s3,s6,1802e <_realloc_r+0x27a>
   17fb6:	47d8                	lw	a4,12(a5)
   17fb8:	479c                	lw	a5,8(a5)
   17fba:	ffc90613          	addi	a2,s2,-4
   17fbe:	00848513          	addi	a0,s1,8
   17fc2:	c7d8                	sw	a4,12(a5)
   17fc4:	c71c                	sw	a5,8(a4)
   17fc6:	4498                	lw	a4,8(s1)
   17fc8:	44dc                	lw	a5,12(s1)
   17fca:	c75c                	sw	a5,12(a4)
   17fcc:	c798                	sw	a4,8(a5)
   17fce:	02400793          	li	a5,36
   17fd2:	04c7ea63          	bltu	a5,a2,18026 <_realloc_r+0x272>
   17fd6:	474d                	li	a4,19
   17fd8:	00c77c63          	bgeu	a4,a2,17ff0 <_realloc_r+0x23c>
   17fdc:	4018                	lw	a4,0(s0)
   17fde:	c498                	sw	a4,8(s1)
   17fe0:	4058                	lw	a4,4(s0)
   17fe2:	c4d8                	sw	a4,12(s1)
   17fe4:	476d                	li	a4,27
   17fe6:	00c76d63          	bltu	a4,a2,18000 <_realloc_r+0x24c>
   17fea:	0421                	addi	s0,s0,8
   17fec:	01048513          	addi	a0,s1,16
   17ff0:	401c                	lw	a5,0(s0)
   17ff2:	c11c                	sw	a5,0(a0)
   17ff4:	405c                	lw	a5,4(s0)
   17ff6:	c15c                	sw	a5,4(a0)
   17ff8:	441c                	lw	a5,8(s0)
   17ffa:	c51c                	sw	a5,8(a0)
   17ffc:	8ba6                	mv	s7,s1
   17ffe:	b56d                	j	17ea8 <_realloc_r+0xf4>
   18000:	4418                	lw	a4,8(s0)
   18002:	c898                	sw	a4,16(s1)
   18004:	4458                	lw	a4,12(s0)
   18006:	c8d8                	sw	a4,20(s1)
   18008:	00f60663          	beq	a2,a5,18014 <_realloc_r+0x260>
   1800c:	0441                	addi	s0,s0,16
   1800e:	01848513          	addi	a0,s1,24
   18012:	bff9                	j	17ff0 <_realloc_r+0x23c>
   18014:	481c                	lw	a5,16(s0)
   18016:	02048513          	addi	a0,s1,32
   1801a:	0461                	addi	s0,s0,24
   1801c:	cc9c                	sw	a5,24(s1)
   1801e:	ffc42783          	lw	a5,-4(s0)
   18022:	ccdc                	sw	a5,28(s1)
   18024:	b7f1                	j	17ff0 <_realloc_r+0x23c>
   18026:	85a2                	mv	a1,s0
   18028:	d1fff0ef          	jal	ra,17d46 <memmove>
   1802c:	bfc1                	j	17ffc <_realloc_r+0x248>
   1802e:	076a4a63          	blt	s4,s6,180a2 <_realloc_r+0x2ee>
   18032:	44dc                	lw	a5,12(s1)
   18034:	4498                	lw	a4,8(s1)
   18036:	ffc90613          	addi	a2,s2,-4
   1803a:	00848513          	addi	a0,s1,8
   1803e:	c75c                	sw	a5,12(a4)
   18040:	c798                	sw	a4,8(a5)
   18042:	02400793          	li	a5,36
   18046:	04c7ea63          	bltu	a5,a2,1809a <_realloc_r+0x2e6>
   1804a:	474d                	li	a4,19
   1804c:	00c77c63          	bgeu	a4,a2,18064 <_realloc_r+0x2b0>
   18050:	4018                	lw	a4,0(s0)
   18052:	c498                	sw	a4,8(s1)
   18054:	4058                	lw	a4,4(s0)
   18056:	c4d8                	sw	a4,12(s1)
   18058:	476d                	li	a4,27
   1805a:	00c76d63          	bltu	a4,a2,18074 <_realloc_r+0x2c0>
   1805e:	0421                	addi	s0,s0,8
   18060:	01048513          	addi	a0,s1,16
   18064:	401c                	lw	a5,0(s0)
   18066:	c11c                	sw	a5,0(a0)
   18068:	405c                	lw	a5,4(s0)
   1806a:	c15c                	sw	a5,4(a0)
   1806c:	441c                	lw	a5,8(s0)
   1806e:	c51c                	sw	a5,8(a0)
   18070:	89d2                	mv	s3,s4
   18072:	b769                	j	17ffc <_realloc_r+0x248>
   18074:	4418                	lw	a4,8(s0)
   18076:	c898                	sw	a4,16(s1)
   18078:	4458                	lw	a4,12(s0)
   1807a:	c8d8                	sw	a4,20(s1)
   1807c:	00f60663          	beq	a2,a5,18088 <_realloc_r+0x2d4>
   18080:	0441                	addi	s0,s0,16
   18082:	01848513          	addi	a0,s1,24
   18086:	bff9                	j	18064 <_realloc_r+0x2b0>
   18088:	481c                	lw	a5,16(s0)
   1808a:	02048513          	addi	a0,s1,32
   1808e:	0461                	addi	s0,s0,24
   18090:	cc9c                	sw	a5,24(s1)
   18092:	ffc42783          	lw	a5,-4(s0)
   18096:	ccdc                	sw	a5,28(s1)
   18098:	b7f1                	j	18064 <_realloc_r+0x2b0>
   1809a:	85a2                	mv	a1,s0
   1809c:	cabff0ef          	jal	ra,17d46 <memmove>
   180a0:	bfc1                	j	18070 <_realloc_r+0x2bc>
   180a2:	8556                	mv	a0,s5
   180a4:	bb9fb0ef          	jal	ra,13c5c <_malloc_r>
   180a8:	8a2a                	mv	s4,a0
   180aa:	ec0508e3          	beqz	a0,17f7a <_realloc_r+0x1c6>
   180ae:	ffc42783          	lw	a5,-4(s0)
   180b2:	ff850713          	addi	a4,a0,-8
   180b6:	9bf9                	andi	a5,a5,-2
   180b8:	97de                	add	a5,a5,s7
   180ba:	00e79863          	bne	a5,a4,180ca <_realloc_r+0x316>
   180be:	ffc52983          	lw	s3,-4(a0)
   180c2:	ffc9f993          	andi	s3,s3,-4
   180c6:	99ca                	add	s3,s3,s2
   180c8:	b3c5                	j	17ea8 <_realloc_r+0xf4>
   180ca:	ffc90613          	addi	a2,s2,-4
   180ce:	02400793          	li	a5,36
   180d2:	06c7e263          	bltu	a5,a2,18136 <_realloc_r+0x382>
   180d6:	474d                	li	a4,19
   180d8:	04c77c63          	bgeu	a4,a2,18130 <_realloc_r+0x37c>
   180dc:	4018                	lw	a4,0(s0)
   180de:	c118                	sw	a4,0(a0)
   180e0:	4058                	lw	a4,4(s0)
   180e2:	c158                	sw	a4,4(a0)
   180e4:	476d                	li	a4,27
   180e6:	02c76163          	bltu	a4,a2,18108 <_realloc_r+0x354>
   180ea:	00840713          	addi	a4,s0,8
   180ee:	00850793          	addi	a5,a0,8
   180f2:	4314                	lw	a3,0(a4)
   180f4:	c394                	sw	a3,0(a5)
   180f6:	4354                	lw	a3,4(a4)
   180f8:	c3d4                	sw	a3,4(a5)
   180fa:	4718                	lw	a4,8(a4)
   180fc:	c798                	sw	a4,8(a5)
   180fe:	85a2                	mv	a1,s0
   18100:	8556                	mv	a0,s5
   18102:	806fa0ef          	jal	ra,12108 <_free_r>
   18106:	bd95                	j	17f7a <_realloc_r+0x1c6>
   18108:	4418                	lw	a4,8(s0)
   1810a:	c518                	sw	a4,8(a0)
   1810c:	4458                	lw	a4,12(s0)
   1810e:	c558                	sw	a4,12(a0)
   18110:	00f60763          	beq	a2,a5,1811e <_realloc_r+0x36a>
   18114:	01040713          	addi	a4,s0,16
   18118:	01050793          	addi	a5,a0,16
   1811c:	bfd9                	j	180f2 <_realloc_r+0x33e>
   1811e:	481c                	lw	a5,16(s0)
   18120:	01840713          	addi	a4,s0,24
   18124:	c91c                	sw	a5,16(a0)
   18126:	4854                	lw	a3,20(s0)
   18128:	01850793          	addi	a5,a0,24
   1812c:	c954                	sw	a3,20(a0)
   1812e:	b7d1                	j	180f2 <_realloc_r+0x33e>
   18130:	87aa                	mv	a5,a0
   18132:	8722                	mv	a4,s0
   18134:	bf7d                	j	180f2 <_realloc_r+0x33e>
   18136:	85a2                	mv	a1,s0
   18138:	c0fff0ef          	jal	ra,17d46 <memmove>
   1813c:	b7c9                	j	180fe <_realloc_r+0x34a>
   1813e:	89ca                	mv	s3,s2
   18140:	b3a5                	j	17ea8 <_realloc_r+0xf4>
   18142:	00e9e9b3          	or	s3,s3,a4
   18146:	013ba223          	sw	s3,4(s7)
   1814a:	43d8                	lw	a4,4(a5)
   1814c:	00176713          	ori	a4,a4,1
   18150:	c3d8                	sw	a4,4(a5)
   18152:	b371                	j	17ede <_realloc_r+0x12a>

00018154 <__ssprint_r>:
   18154:	461c                	lw	a5,8(a2)
   18156:	7179                	addi	sp,sp,-48
   18158:	ce4e                	sw	s3,28(sp)
   1815a:	d606                	sw	ra,44(sp)
   1815c:	d422                	sw	s0,40(sp)
   1815e:	d226                	sw	s1,36(sp)
   18160:	d04a                	sw	s2,32(sp)
   18162:	cc52                	sw	s4,24(sp)
   18164:	ca56                	sw	s5,20(sp)
   18166:	c85a                	sw	s6,16(sp)
   18168:	c65e                	sw	s7,12(sp)
   1816a:	c462                	sw	s8,8(sp)
   1816c:	c266                	sw	s9,4(sp)
   1816e:	c06a                	sw	s10,0(sp)
   18170:	89b2                	mv	s3,a2
   18172:	cff9                	beqz	a5,18250 <__ssprint_r+0xfc>
   18174:	00062a83          	lw	s5,0(a2)
   18178:	8a2a                	mv	s4,a0
   1817a:	842e                	mv	s0,a1
   1817c:	4b01                	li	s6,0
   1817e:	4901                	li	s2,0
   18180:	4b8d                	li	s7,3
   18182:	4c09                	li	s8,2
   18184:	06090263          	beqz	s2,181e8 <__ssprint_r+0x94>
   18188:	00842d03          	lw	s10,8(s0)
   1818c:	09a96a63          	bltu	s2,s10,18220 <__ssprint_r+0xcc>
   18190:	00c45783          	lhu	a5,12(s0)
   18194:	4807f713          	andi	a4,a5,1152
   18198:	c741                	beqz	a4,18220 <__ssprint_r+0xcc>
   1819a:	4004                	lw	s1,0(s0)
   1819c:	480c                	lw	a1,16(s0)
   1819e:	40b48cb3          	sub	s9,s1,a1
   181a2:	4844                	lw	s1,20(s0)
   181a4:	001c8713          	addi	a4,s9,1
   181a8:	974a                	add	a4,a4,s2
   181aa:	029b84b3          	mul	s1,s7,s1
   181ae:	0384c4b3          	div	s1,s1,s8
   181b2:	00e4f363          	bgeu	s1,a4,181b8 <__ssprint_r+0x64>
   181b6:	84ba                	mv	s1,a4
   181b8:	4007f793          	andi	a5,a5,1024
   181bc:	cbdd                	beqz	a5,18272 <__ssprint_r+0x11e>
   181be:	85a6                	mv	a1,s1
   181c0:	8552                	mv	a0,s4
   181c2:	a9bfb0ef          	jal	ra,13c5c <_malloc_r>
   181c6:	8d2a                	mv	s10,a0
   181c8:	e515                	bnez	a0,181f4 <__ssprint_r+0xa0>
   181ca:	47b1                	li	a5,12
   181cc:	00fa2023          	sw	a5,0(s4)
   181d0:	00c45783          	lhu	a5,12(s0)
   181d4:	557d                	li	a0,-1
   181d6:	0407e793          	ori	a5,a5,64
   181da:	00f41623          	sh	a5,12(s0)
   181de:	0009a423          	sw	zero,8(s3)
   181e2:	0009a223          	sw	zero,4(s3)
   181e6:	a885                	j	18256 <__ssprint_r+0x102>
   181e8:	000aab03          	lw	s6,0(s5)
   181ec:	004aa903          	lw	s2,4(s5)
   181f0:	0aa1                	addi	s5,s5,8
   181f2:	bf49                	j	18184 <__ssprint_r+0x30>
   181f4:	480c                	lw	a1,16(s0)
   181f6:	8666                	mv	a2,s9
   181f8:	854fc0ef          	jal	ra,1424c <memcpy>
   181fc:	00c45783          	lhu	a5,12(s0)
   18200:	b7f7f793          	andi	a5,a5,-1153
   18204:	0807e793          	ori	a5,a5,128
   18208:	00f41623          	sh	a5,12(s0)
   1820c:	01a42823          	sw	s10,16(s0)
   18210:	c844                	sw	s1,20(s0)
   18212:	9d66                	add	s10,s10,s9
   18214:	419484b3          	sub	s1,s1,s9
   18218:	01a42023          	sw	s10,0(s0)
   1821c:	c404                	sw	s1,8(s0)
   1821e:	8d4a                	mv	s10,s2
   18220:	01a97363          	bgeu	s2,s10,18226 <__ssprint_r+0xd2>
   18224:	8d4a                	mv	s10,s2
   18226:	4008                	lw	a0,0(s0)
   18228:	866a                	mv	a2,s10
   1822a:	85da                	mv	a1,s6
   1822c:	b1bff0ef          	jal	ra,17d46 <memmove>
   18230:	441c                	lw	a5,8(s0)
   18232:	41a787b3          	sub	a5,a5,s10
   18236:	c41c                	sw	a5,8(s0)
   18238:	401c                	lw	a5,0(s0)
   1823a:	9d3e                	add	s10,s10,a5
   1823c:	0089a783          	lw	a5,8(s3)
   18240:	01a42023          	sw	s10,0(s0)
   18244:	41278933          	sub	s2,a5,s2
   18248:	0129a423          	sw	s2,8(s3)
   1824c:	f8091ee3          	bnez	s2,181e8 <__ssprint_r+0x94>
   18250:	0009a223          	sw	zero,4(s3)
   18254:	4501                	li	a0,0
   18256:	50b2                	lw	ra,44(sp)
   18258:	5422                	lw	s0,40(sp)
   1825a:	5492                	lw	s1,36(sp)
   1825c:	5902                	lw	s2,32(sp)
   1825e:	49f2                	lw	s3,28(sp)
   18260:	4a62                	lw	s4,24(sp)
   18262:	4ad2                	lw	s5,20(sp)
   18264:	4b42                	lw	s6,16(sp)
   18266:	4bb2                	lw	s7,12(sp)
   18268:	4c22                	lw	s8,8(sp)
   1826a:	4c92                	lw	s9,4(sp)
   1826c:	4d02                	lw	s10,0(sp)
   1826e:	6145                	addi	sp,sp,48
   18270:	8082                	ret
   18272:	8626                	mv	a2,s1
   18274:	8552                	mv	a0,s4
   18276:	b3fff0ef          	jal	ra,17db4 <_realloc_r>
   1827a:	8d2a                	mv	s10,a0
   1827c:	f941                	bnez	a0,1820c <__ssprint_r+0xb8>
   1827e:	480c                	lw	a1,16(s0)
   18280:	8552                	mv	a0,s4
   18282:	e87f90ef          	jal	ra,12108 <_free_r>
   18286:	b791                	j	181ca <__ssprint_r+0x76>

00018288 <_svfiprintf_r>:
   18288:	1cc1a783          	lw	a5,460(gp) # 1ec04 <__stack_chk_guard>
   1828c:	7129                	addi	sp,sp,-320
   1828e:	12912a23          	sw	s1,308(sp)
   18292:	dfbe                	sw	a5,252(sp)
   18294:	00c5d783          	lhu	a5,12(a1)
   18298:	13212823          	sw	s2,304(sp)
   1829c:	13312623          	sw	s3,300(sp)
   182a0:	13512223          	sw	s5,292(sp)
   182a4:	12112e23          	sw	ra,316(sp)
   182a8:	12812c23          	sw	s0,312(sp)
   182ac:	13412423          	sw	s4,296(sp)
   182b0:	13612023          	sw	s6,288(sp)
   182b4:	11712e23          	sw	s7,284(sp)
   182b8:	11812c23          	sw	s8,280(sp)
   182bc:	11912a23          	sw	s9,276(sp)
   182c0:	11a12823          	sw	s10,272(sp)
   182c4:	11b12623          	sw	s11,268(sp)
   182c8:	0807f793          	andi	a5,a5,128
   182cc:	d43a                	sw	a4,40(sp)
   182ce:	8aaa                	mv	s5,a0
   182d0:	892e                	mv	s2,a1
   182d2:	89b2                	mv	s3,a2
   182d4:	84b6                	mv	s1,a3
   182d6:	c795                	beqz	a5,18302 <_svfiprintf_r+0x7a>
   182d8:	499c                	lw	a5,16(a1)
   182da:	e785                	bnez	a5,18302 <_svfiprintf_r+0x7a>
   182dc:	04000593          	li	a1,64
   182e0:	97dfb0ef          	jal	ra,13c5c <_malloc_r>
   182e4:	00a92023          	sw	a0,0(s2)
   182e8:	00a92823          	sw	a0,16(s2)
   182ec:	e519                	bnez	a0,182fa <_svfiprintf_r+0x72>
   182ee:	47b1                	li	a5,12
   182f0:	00faa023          	sw	a5,0(s5)
   182f4:	5bfd                	li	s7,-1
   182f6:	7ae0006f          	j	18aa4 <_svfiprintf_r+0x81c>
   182fa:	04000793          	li	a5,64
   182fe:	00f92a23          	sw	a5,20(s2)
   18302:	67f5                	lui	a5,0x1d
   18304:	d2c78793          	addi	a5,a5,-724 # 1cd2c <_ctype_+0x104>
   18308:	d63e                	sw	a5,44(sp)
   1830a:	67f5                	lui	a5,0x1d
   1830c:	05410b13          	addi	s6,sp,84
   18310:	ea878793          	addi	a5,a5,-344 # 1cea8 <zeroes.4409>
   18314:	c4da                	sw	s6,72(sp)
   18316:	c882                	sw	zero,80(sp)
   18318:	c682                	sw	zero,76(sp)
   1831a:	875a                	mv	a4,s6
   1831c:	ca02                	sw	zero,20(sp)
   1831e:	c802                	sw	zero,16(sp)
   18320:	cc02                	sw	zero,24(sp)
   18322:	d002                	sw	zero,32(sp)
   18324:	4b81                	li	s7,0
   18326:	ce3e                	sw	a5,28(sp)
   18328:	844e                	mv	s0,s3
   1832a:	02500693          	li	a3,37
   1832e:	00044783          	lbu	a5,0(s0)
   18332:	c399                	beqz	a5,18338 <_svfiprintf_r+0xb0>
   18334:	06d79963          	bne	a5,a3,183a6 <_svfiprintf_r+0x11e>
   18338:	41340a33          	sub	s4,s0,s3
   1833c:	020a0863          	beqz	s4,1836c <_svfiprintf_r+0xe4>
   18340:	47c6                	lw	a5,80(sp)
   18342:	01372023          	sw	s3,0(a4)
   18346:	01472223          	sw	s4,4(a4)
   1834a:	97d2                	add	a5,a5,s4
   1834c:	c8be                	sw	a5,80(sp)
   1834e:	47b6                	lw	a5,76(sp)
   18350:	469d                	li	a3,7
   18352:	0721                	addi	a4,a4,8
   18354:	0785                	addi	a5,a5,1
   18356:	c6be                	sw	a5,76(sp)
   18358:	00f6d963          	bge	a3,a5,1836a <_svfiprintf_r+0xe2>
   1835c:	00b0                	addi	a2,sp,72
   1835e:	85ca                	mv	a1,s2
   18360:	8556                	mv	a0,s5
   18362:	3bcd                	jal	18154 <__ssprint_r>
   18364:	72051a63          	bnez	a0,18a98 <_svfiprintf_r+0x810>
   18368:	875a                	mv	a4,s6
   1836a:	9bd2                	add	s7,s7,s4
   1836c:	00044783          	lbu	a5,0(s0)
   18370:	76078463          	beqz	a5,18ad8 <_svfiprintf_r+0x850>
   18374:	00140993          	addi	s3,s0,1
   18378:	040103a3          	sb	zero,71(sp)
   1837c:	547d                	li	s0,-1
   1837e:	4a01                	li	s4,0
   18380:	4d01                	li	s10,0
   18382:	4c29                	li	s8,10
   18384:	02a00c93          	li	s9,42
   18388:	05a00813          	li	a6,90
   1838c:	45a5                	li	a1,9
   1838e:	0009c603          	lbu	a2,0(s3)
   18392:	0985                	addi	s3,s3,1
   18394:	fe060693          	addi	a3,a2,-32
   18398:	62d86963          	bltu	a6,a3,189ca <_svfiprintf_r+0x742>
   1839c:	57b2                	lw	a5,44(sp)
   1839e:	068a                	slli	a3,a3,0x2
   183a0:	96be                	add	a3,a3,a5
   183a2:	4294                	lw	a3,0(a3)
   183a4:	8682                	jr	a3
   183a6:	0405                	addi	s0,s0,1
   183a8:	b759                	j	1832e <_svfiprintf_r+0xa6>
   183aa:	66f1                	lui	a3,0x1c
   183ac:	49c68793          	addi	a5,a3,1180 # 1c49c <zeroes.4447+0x34>
   183b0:	ca3e                	sw	a5,20(sp)
   183b2:	020d7693          	andi	a3,s10,32
   183b6:	4c068063          	beqz	a3,18876 <_svfiprintf_r+0x5ee>
   183ba:	049d                	addi	s1,s1,7
   183bc:	98e1                	andi	s1,s1,-8
   183be:	0004a883          	lw	a7,0(s1)
   183c2:	0044ac83          	lw	s9,4(s1)
   183c6:	00848c13          	addi	s8,s1,8
   183ca:	001d7693          	andi	a3,s10,1
   183ce:	ce81                	beqz	a3,183e6 <_svfiprintf_r+0x15e>
   183d0:	0198e6b3          	or	a3,a7,s9
   183d4:	ca89                	beqz	a3,183e6 <_svfiprintf_r+0x15e>
   183d6:	03000693          	li	a3,48
   183da:	08d10a23          	sb	a3,148(sp)
   183de:	08c10aa3          	sb	a2,149(sp)
   183e2:	002d6d13          	ori	s10,s10,2
   183e6:	bffd7d13          	andi	s10,s10,-1025
   183ea:	acb9                	j	18648 <_svfiprintf_r+0x3c0>
   183ec:	8556                	mv	a0,s5
   183ee:	c63a                	sw	a4,12(sp)
   183f0:	e96fb0ef          	jal	ra,13a86 <_localeconv_r>
   183f4:	415c                	lw	a5,4(a0)
   183f6:	853e                	mv	a0,a5
   183f8:	d03e                	sw	a5,32(sp)
   183fa:	822f80ef          	jal	ra,1041c <strlen>
   183fe:	cc2a                	sw	a0,24(sp)
   18400:	8556                	mv	a0,s5
   18402:	e84fb0ef          	jal	ra,13a86 <_localeconv_r>
   18406:	451c                	lw	a5,8(a0)
   18408:	4732                	lw	a4,12(sp)
   1840a:	c83e                	sw	a5,16(sp)
   1840c:	47e2                	lw	a5,24(sp)
   1840e:	dfad                	beqz	a5,18388 <_svfiprintf_r+0x100>
   18410:	47c2                	lw	a5,16(sp)
   18412:	dbbd                	beqz	a5,18388 <_svfiprintf_r+0x100>
   18414:	0007c683          	lbu	a3,0(a5)
   18418:	daa5                	beqz	a3,18388 <_svfiprintf_r+0x100>
   1841a:	400d6d13          	ori	s10,s10,1024
   1841e:	b7ad                	j	18388 <_svfiprintf_r+0x100>
   18420:	04714683          	lbu	a3,71(sp)
   18424:	f2b5                	bnez	a3,18388 <_svfiprintf_r+0x100>
   18426:	02000693          	li	a3,32
   1842a:	04d103a3          	sb	a3,71(sp)
   1842e:	bfa9                	j	18388 <_svfiprintf_r+0x100>
   18430:	001d6d13          	ori	s10,s10,1
   18434:	bf91                	j	18388 <_svfiprintf_r+0x100>
   18436:	0004aa03          	lw	s4,0(s1)
   1843a:	0491                	addi	s1,s1,4
   1843c:	f40a56e3          	bgez	s4,18388 <_svfiprintf_r+0x100>
   18440:	41400a33          	neg	s4,s4
   18444:	004d6d13          	ori	s10,s10,4
   18448:	b781                	j	18388 <_svfiprintf_r+0x100>
   1844a:	02b00693          	li	a3,43
   1844e:	bff1                	j	1842a <_svfiprintf_r+0x1a2>
   18450:	0009c603          	lbu	a2,0(s3)
   18454:	00198693          	addi	a3,s3,1
   18458:	03961763          	bne	a2,s9,18486 <_svfiprintf_r+0x1fe>
   1845c:	4080                	lw	s0,0(s1)
   1845e:	00448613          	addi	a2,s1,4
   18462:	00045363          	bgez	s0,18468 <_svfiprintf_r+0x1e0>
   18466:	547d                	li	s0,-1
   18468:	84b2                	mv	s1,a2
   1846a:	89b6                	mv	s3,a3
   1846c:	bf31                	j	18388 <_svfiprintf_r+0x100>
   1846e:	03840433          	mul	s0,s0,s8
   18472:	0685                	addi	a3,a3,1
   18474:	fff6c603          	lbu	a2,-1(a3)
   18478:	942a                	add	s0,s0,a0
   1847a:	fd060513          	addi	a0,a2,-48
   1847e:	fea5f8e3          	bgeu	a1,a0,1846e <_svfiprintf_r+0x1e6>
   18482:	89b6                	mv	s3,a3
   18484:	bf01                	j	18394 <_svfiprintf_r+0x10c>
   18486:	4401                	li	s0,0
   18488:	bfcd                	j	1847a <_svfiprintf_r+0x1f2>
   1848a:	080d6d13          	ori	s10,s10,128
   1848e:	bded                	j	18388 <_svfiprintf_r+0x100>
   18490:	86ce                	mv	a3,s3
   18492:	4a01                	li	s4,0
   18494:	038a0a33          	mul	s4,s4,s8
   18498:	fd060613          	addi	a2,a2,-48
   1849c:	0685                	addi	a3,a3,1
   1849e:	9a32                	add	s4,s4,a2
   184a0:	fff6c603          	lbu	a2,-1(a3)
   184a4:	fd060513          	addi	a0,a2,-48
   184a8:	fea5f6e3          	bgeu	a1,a0,18494 <_svfiprintf_r+0x20c>
   184ac:	bfd9                	j	18482 <_svfiprintf_r+0x1fa>
   184ae:	0009c603          	lbu	a2,0(s3)
   184b2:	06800693          	li	a3,104
   184b6:	00d61663          	bne	a2,a3,184c2 <_svfiprintf_r+0x23a>
   184ba:	0985                	addi	s3,s3,1
   184bc:	200d6d13          	ori	s10,s10,512
   184c0:	b5e1                	j	18388 <_svfiprintf_r+0x100>
   184c2:	040d6d13          	ori	s10,s10,64
   184c6:	b5c9                	j	18388 <_svfiprintf_r+0x100>
   184c8:	0009c603          	lbu	a2,0(s3)
   184cc:	06c00693          	li	a3,108
   184d0:	00d61663          	bne	a2,a3,184dc <_svfiprintf_r+0x254>
   184d4:	0985                	addi	s3,s3,1
   184d6:	020d6d13          	ori	s10,s10,32
   184da:	b57d                	j	18388 <_svfiprintf_r+0x100>
   184dc:	010d6d13          	ori	s10,s10,16
   184e0:	b565                	j	18388 <_svfiprintf_r+0x100>
   184e2:	4094                	lw	a3,0(s1)
   184e4:	00448c13          	addi	s8,s1,4
   184e8:	040103a3          	sb	zero,71(sp)
   184ec:	08d10c23          	sb	a3,152(sp)
   184f0:	4405                	li	s0,1
   184f2:	4c81                	li	s9,0
   184f4:	0924                	addi	s1,sp,152
   184f6:	aab5                	j	18672 <_svfiprintf_r+0x3ea>
   184f8:	010d6d13          	ori	s10,s10,16
   184fc:	020d7693          	andi	a3,s10,32
   18500:	c6b1                	beqz	a3,1854c <_svfiprintf_r+0x2c4>
   18502:	049d                	addi	s1,s1,7
   18504:	98e1                	andi	s1,s1,-8
   18506:	0004a883          	lw	a7,0(s1)
   1850a:	0044ac83          	lw	s9,4(s1)
   1850e:	00848c13          	addi	s8,s1,8
   18512:	000cde63          	bgez	s9,1852e <_svfiprintf_r+0x2a6>
   18516:	411008b3          	neg	a7,a7
   1851a:	011036b3          	snez	a3,a7
   1851e:	41900333          	neg	t1,s9
   18522:	40d30cb3          	sub	s9,t1,a3
   18526:	02d00693          	li	a3,45
   1852a:	04d103a3          	sb	a3,71(sp)
   1852e:	56fd                	li	a3,-1
   18530:	36d41863          	bne	s0,a3,188a0 <_svfiprintf_r+0x618>
   18534:	3c0c9463          	bnez	s9,188fc <_svfiprintf_r+0x674>
   18538:	46a5                	li	a3,9
   1853a:	3d16e163          	bltu	a3,a7,188fc <_svfiprintf_r+0x674>
   1853e:	03088893          	addi	a7,a7,48
   18542:	0f110da3          	sb	a7,251(sp)
   18546:	0fb10493          	addi	s1,sp,251
   1854a:	a65d                	j	188f0 <_svfiprintf_r+0x668>
   1854c:	010d7693          	andi	a3,s10,16
   18550:	00448c13          	addi	s8,s1,4
   18554:	c691                	beqz	a3,18560 <_svfiprintf_r+0x2d8>
   18556:	0004a883          	lw	a7,0(s1)
   1855a:	41f8dc93          	srai	s9,a7,0x1f
   1855e:	bf55                	j	18512 <_svfiprintf_r+0x28a>
   18560:	040d7693          	andi	a3,s10,64
   18564:	0004a883          	lw	a7,0(s1)
   18568:	c689                	beqz	a3,18572 <_svfiprintf_r+0x2ea>
   1856a:	08c2                	slli	a7,a7,0x10
   1856c:	4108d893          	srai	a7,a7,0x10
   18570:	b7ed                	j	1855a <_svfiprintf_r+0x2d2>
   18572:	200d7693          	andi	a3,s10,512
   18576:	d2f5                	beqz	a3,1855a <_svfiprintf_r+0x2d2>
   18578:	08e2                	slli	a7,a7,0x18
   1857a:	4188d893          	srai	a7,a7,0x18
   1857e:	bff1                	j	1855a <_svfiprintf_r+0x2d2>
   18580:	020d7613          	andi	a2,s10,32
   18584:	4094                	lw	a3,0(s1)
   18586:	0491                	addi	s1,s1,4
   18588:	c619                	beqz	a2,18596 <_svfiprintf_r+0x30e>
   1858a:	41fbd793          	srai	a5,s7,0x1f
   1858e:	0176a023          	sw	s7,0(a3)
   18592:	c2dc                	sw	a5,4(a3)
   18594:	bb51                	j	18328 <_svfiprintf_r+0xa0>
   18596:	010d7613          	andi	a2,s10,16
   1859a:	c601                	beqz	a2,185a2 <_svfiprintf_r+0x31a>
   1859c:	0176a023          	sw	s7,0(a3)
   185a0:	b361                	j	18328 <_svfiprintf_r+0xa0>
   185a2:	040d7613          	andi	a2,s10,64
   185a6:	c601                	beqz	a2,185ae <_svfiprintf_r+0x326>
   185a8:	01769023          	sh	s7,0(a3)
   185ac:	bbb5                	j	18328 <_svfiprintf_r+0xa0>
   185ae:	200d7793          	andi	a5,s10,512
   185b2:	d7ed                	beqz	a5,1859c <_svfiprintf_r+0x314>
   185b4:	01768023          	sb	s7,0(a3)
   185b8:	bb85                	j	18328 <_svfiprintf_r+0xa0>
   185ba:	010d6d13          	ori	s10,s10,16
   185be:	020d7693          	andi	a3,s10,32
   185c2:	ce95                	beqz	a3,185fe <_svfiprintf_r+0x376>
   185c4:	049d                	addi	s1,s1,7
   185c6:	98e1                	andi	s1,s1,-8
   185c8:	0004a883          	lw	a7,0(s1)
   185cc:	0044ac83          	lw	s9,4(s1)
   185d0:	00848c13          	addi	s8,s1,8
   185d4:	bffd7d13          	andi	s10,s10,-1025
   185d8:	4681                	li	a3,0
   185da:	040103a3          	sb	zero,71(sp)
   185de:	567d                	li	a2,-1
   185e0:	2cc40363          	beq	s0,a2,188a6 <_svfiprintf_r+0x61e>
   185e4:	866a                	mv	a2,s10
   185e6:	0198e5b3          	or	a1,a7,s9
   185ea:	f7fd7d13          	andi	s10,s10,-129
   185ee:	2a059c63          	bnez	a1,188a6 <_svfiprintf_r+0x61e>
   185f2:	3c040363          	beqz	s0,189b8 <_svfiprintf_r+0x730>
   185f6:	4605                	li	a2,1
   185f8:	2ac69a63          	bne	a3,a2,188ac <_svfiprintf_r+0x624>
   185fc:	b789                	j	1853e <_svfiprintf_r+0x2b6>
   185fe:	010d7693          	andi	a3,s10,16
   18602:	00448c13          	addi	s8,s1,4
   18606:	c681                	beqz	a3,1860e <_svfiprintf_r+0x386>
   18608:	0004a883          	lw	a7,0(s1)
   1860c:	a031                	j	18618 <_svfiprintf_r+0x390>
   1860e:	040d7693          	andi	a3,s10,64
   18612:	c689                	beqz	a3,1861c <_svfiprintf_r+0x394>
   18614:	0004d883          	lhu	a7,0(s1)
   18618:	4c81                	li	s9,0
   1861a:	bf6d                	j	185d4 <_svfiprintf_r+0x34c>
   1861c:	200d7693          	andi	a3,s10,512
   18620:	d6e5                	beqz	a3,18608 <_svfiprintf_r+0x380>
   18622:	0004c883          	lbu	a7,0(s1)
   18626:	bfcd                	j	18618 <_svfiprintf_r+0x390>
   18628:	76e1                	lui	a3,0xffff8
   1862a:	8306c693          	xori	a3,a3,-2000
   1862e:	08d11a23          	sh	a3,148(sp)
   18632:	0004a883          	lw	a7,0(s1)
   18636:	66f1                	lui	a3,0x1c
   18638:	48868793          	addi	a5,a3,1160 # 1c488 <zeroes.4447+0x20>
   1863c:	00448c13          	addi	s8,s1,4
   18640:	4c81                	li	s9,0
   18642:	002d6d13          	ori	s10,s10,2
   18646:	ca3e                	sw	a5,20(sp)
   18648:	4689                	li	a3,2
   1864a:	bf41                	j	185da <_svfiprintf_r+0x352>
   1864c:	040103a3          	sb	zero,71(sp)
   18650:	56fd                	li	a3,-1
   18652:	c63a                	sw	a4,12(sp)
   18654:	00448c13          	addi	s8,s1,4
   18658:	4084                	lw	s1,0(s1)
   1865a:	1ad40f63          	beq	s0,a3,18818 <_svfiprintf_r+0x590>
   1865e:	8622                	mv	a2,s0
   18660:	4581                	li	a1,0
   18662:	8526                	mv	a0,s1
   18664:	ad3fb0ef          	jal	ra,14136 <memchr>
   18668:	4c81                	li	s9,0
   1866a:	4732                	lw	a4,12(sp)
   1866c:	c119                	beqz	a0,18672 <_svfiprintf_r+0x3ea>
   1866e:	40950433          	sub	s0,a0,s1
   18672:	c666                	sw	s9,12(sp)
   18674:	008cd363          	bge	s9,s0,1867a <_svfiprintf_r+0x3f2>
   18678:	c622                	sw	s0,12(sp)
   1867a:	04714683          	lbu	a3,71(sp)
   1867e:	c681                	beqz	a3,18686 <_svfiprintf_r+0x3fe>
   18680:	47b2                	lw	a5,12(sp)
   18682:	0785                	addi	a5,a5,1
   18684:	c63e                	sw	a5,12(sp)
   18686:	002d7d93          	andi	s11,s10,2
   1868a:	000d8563          	beqz	s11,18694 <_svfiprintf_r+0x40c>
   1868e:	47b2                	lw	a5,12(sp)
   18690:	0789                	addi	a5,a5,2
   18692:	c63e                	sw	a5,12(sp)
   18694:	084d7793          	andi	a5,s10,132
   18698:	d23e                	sw	a5,36(sp)
   1869a:	e3b9                	bnez	a5,186e0 <_svfiprintf_r+0x458>
   1869c:	47b2                	lw	a5,12(sp)
   1869e:	40fa06b3          	sub	a3,s4,a5
   186a2:	02d05f63          	blez	a3,186e0 <_svfiprintf_r+0x458>
   186a6:	67f5                	lui	a5,0x1d
   186a8:	48c1                	li	a7,16
   186aa:	e9878813          	addi	a6,a5,-360 # 1ce98 <blanks.4408>
   186ae:	431d                	li	t1,7
   186b0:	4636                	lw	a2,76(sp)
   186b2:	01072023          	sw	a6,0(a4)
   186b6:	45c6                	lw	a1,80(sp)
   186b8:	0605                	addi	a2,a2,1
   186ba:	00870513          	addi	a0,a4,8
   186be:	30d8ce63          	blt	a7,a3,189da <_svfiprintf_r+0x752>
   186c2:	c354                	sw	a3,4(a4)
   186c4:	96ae                	add	a3,a3,a1
   186c6:	c8b6                	sw	a3,80(sp)
   186c8:	c6b2                	sw	a2,76(sp)
   186ca:	469d                	li	a3,7
   186cc:	872a                	mv	a4,a0
   186ce:	00c6d963          	bge	a3,a2,186e0 <_svfiprintf_r+0x458>
   186d2:	00b0                	addi	a2,sp,72
   186d4:	85ca                	mv	a1,s2
   186d6:	8556                	mv	a0,s5
   186d8:	3cb5                	jal	18154 <__ssprint_r>
   186da:	3a051f63          	bnez	a0,18a98 <_svfiprintf_r+0x810>
   186de:	875a                	mv	a4,s6
   186e0:	04714683          	lbu	a3,71(sp)
   186e4:	c69d                	beqz	a3,18712 <_svfiprintf_r+0x48a>
   186e6:	04710613          	addi	a2,sp,71
   186ea:	c310                	sw	a2,0(a4)
   186ec:	4605                	li	a2,1
   186ee:	46b6                	lw	a3,76(sp)
   186f0:	c350                	sw	a2,4(a4)
   186f2:	4646                	lw	a2,80(sp)
   186f4:	0685                	addi	a3,a3,1
   186f6:	c6b6                	sw	a3,76(sp)
   186f8:	0605                	addi	a2,a2,1
   186fa:	c8b2                	sw	a2,80(sp)
   186fc:	461d                	li	a2,7
   186fe:	0721                	addi	a4,a4,8
   18700:	00d65963          	bge	a2,a3,18712 <_svfiprintf_r+0x48a>
   18704:	00b0                	addi	a2,sp,72
   18706:	85ca                	mv	a1,s2
   18708:	8556                	mv	a0,s5
   1870a:	34a9                	jal	18154 <__ssprint_r>
   1870c:	38051663          	bnez	a0,18a98 <_svfiprintf_r+0x810>
   18710:	875a                	mv	a4,s6
   18712:	020d8763          	beqz	s11,18740 <_svfiprintf_r+0x4b8>
   18716:	0950                	addi	a2,sp,148
   18718:	c310                	sw	a2,0(a4)
   1871a:	4609                	li	a2,2
   1871c:	46b6                	lw	a3,76(sp)
   1871e:	c350                	sw	a2,4(a4)
   18720:	4646                	lw	a2,80(sp)
   18722:	0685                	addi	a3,a3,1
   18724:	c6b6                	sw	a3,76(sp)
   18726:	0609                	addi	a2,a2,2
   18728:	c8b2                	sw	a2,80(sp)
   1872a:	461d                	li	a2,7
   1872c:	0721                	addi	a4,a4,8
   1872e:	00d65963          	bge	a2,a3,18740 <_svfiprintf_r+0x4b8>
   18732:	00b0                	addi	a2,sp,72
   18734:	85ca                	mv	a1,s2
   18736:	8556                	mv	a0,s5
   18738:	3c31                	jal	18154 <__ssprint_r>
   1873a:	34051f63          	bnez	a0,18a98 <_svfiprintf_r+0x810>
   1873e:	875a                	mv	a4,s6
   18740:	5792                	lw	a5,36(sp)
   18742:	08000693          	li	a3,128
   18746:	04d79263          	bne	a5,a3,1878a <_svfiprintf_r+0x502>
   1874a:	47b2                	lw	a5,12(sp)
   1874c:	40fa0db3          	sub	s11,s4,a5
   18750:	03b05d63          	blez	s11,1878a <_svfiprintf_r+0x502>
   18754:	4841                	li	a6,16
   18756:	489d                	li	a7,7
   18758:	47f2                	lw	a5,28(sp)
   1875a:	46b6                	lw	a3,76(sp)
   1875c:	4646                	lw	a2,80(sp)
   1875e:	c31c                	sw	a5,0(a4)
   18760:	0685                	addi	a3,a3,1
   18762:	00870593          	addi	a1,a4,8
   18766:	2bb84363          	blt	a6,s11,18a0c <_svfiprintf_r+0x784>
   1876a:	01b72223          	sw	s11,4(a4)
   1876e:	9db2                	add	s11,s11,a2
   18770:	c8ee                	sw	s11,80(sp)
   18772:	c6b6                	sw	a3,76(sp)
   18774:	461d                	li	a2,7
   18776:	872e                	mv	a4,a1
   18778:	00d65963          	bge	a2,a3,1878a <_svfiprintf_r+0x502>
   1877c:	00b0                	addi	a2,sp,72
   1877e:	85ca                	mv	a1,s2
   18780:	8556                	mv	a0,s5
   18782:	3ac9                	jal	18154 <__ssprint_r>
   18784:	30051a63          	bnez	a0,18a98 <_svfiprintf_r+0x810>
   18788:	875a                	mv	a4,s6
   1878a:	408c8cb3          	sub	s9,s9,s0
   1878e:	03905d63          	blez	s9,187c8 <_svfiprintf_r+0x540>
   18792:	4dc1                	li	s11,16
   18794:	481d                	li	a6,7
   18796:	47f2                	lw	a5,28(sp)
   18798:	46b6                	lw	a3,76(sp)
   1879a:	4646                	lw	a2,80(sp)
   1879c:	c31c                	sw	a5,0(a4)
   1879e:	0685                	addi	a3,a3,1
   187a0:	00870593          	addi	a1,a4,8
   187a4:	299dc963          	blt	s11,s9,18a36 <_svfiprintf_r+0x7ae>
   187a8:	01972223          	sw	s9,4(a4)
   187ac:	9cb2                	add	s9,s9,a2
   187ae:	c8e6                	sw	s9,80(sp)
   187b0:	c6b6                	sw	a3,76(sp)
   187b2:	461d                	li	a2,7
   187b4:	872e                	mv	a4,a1
   187b6:	00d65963          	bge	a2,a3,187c8 <_svfiprintf_r+0x540>
   187ba:	00b0                	addi	a2,sp,72
   187bc:	85ca                	mv	a1,s2
   187be:	8556                	mv	a0,s5
   187c0:	3a51                	jal	18154 <__ssprint_r>
   187c2:	2c051b63          	bnez	a0,18a98 <_svfiprintf_r+0x810>
   187c6:	875a                	mv	a4,s6
   187c8:	46c6                	lw	a3,80(sp)
   187ca:	c340                	sw	s0,4(a4)
   187cc:	c304                	sw	s1,0(a4)
   187ce:	9436                	add	s0,s0,a3
   187d0:	46b6                	lw	a3,76(sp)
   187d2:	c8a2                	sw	s0,80(sp)
   187d4:	461d                	li	a2,7
   187d6:	0685                	addi	a3,a3,1
   187d8:	c6b6                	sw	a3,76(sp)
   187da:	0721                	addi	a4,a4,8
   187dc:	00d65963          	bge	a2,a3,187ee <_svfiprintf_r+0x566>
   187e0:	00b0                	addi	a2,sp,72
   187e2:	85ca                	mv	a1,s2
   187e4:	8556                	mv	a0,s5
   187e6:	32bd                	jal	18154 <__ssprint_r>
   187e8:	2a051863          	bnez	a0,18a98 <_svfiprintf_r+0x810>
   187ec:	875a                	mv	a4,s6
   187ee:	004d7793          	andi	a5,s10,4
   187f2:	26079563          	bnez	a5,18a5c <_svfiprintf_r+0x7d4>
   187f6:	47b2                	lw	a5,12(sp)
   187f8:	00fa5363          	bge	s4,a5,187fe <_svfiprintf_r+0x576>
   187fc:	8a3e                	mv	s4,a5
   187fe:	47c6                	lw	a5,80(sp)
   18800:	9bd2                	add	s7,s7,s4
   18802:	c799                	beqz	a5,18810 <_svfiprintf_r+0x588>
   18804:	00b0                	addi	a2,sp,72
   18806:	85ca                	mv	a1,s2
   18808:	8556                	mv	a0,s5
   1880a:	32a9                	jal	18154 <__ssprint_r>
   1880c:	28051663          	bnez	a0,18a98 <_svfiprintf_r+0x810>
   18810:	c682                	sw	zero,76(sp)
   18812:	84e2                	mv	s1,s8
   18814:	875a                	mv	a4,s6
   18816:	be09                	j	18328 <_svfiprintf_r+0xa0>
   18818:	8526                	mv	a0,s1
   1881a:	c03f70ef          	jal	ra,1041c <strlen>
   1881e:	842a                	mv	s0,a0
   18820:	4c81                	li	s9,0
   18822:	4732                	lw	a4,12(sp)
   18824:	b5b9                	j	18672 <_svfiprintf_r+0x3ea>
   18826:	010d6d13          	ori	s10,s10,16
   1882a:	020d7693          	andi	a3,s10,32
   1882e:	ca99                	beqz	a3,18844 <_svfiprintf_r+0x5bc>
   18830:	049d                	addi	s1,s1,7
   18832:	98e1                	andi	s1,s1,-8
   18834:	0004a883          	lw	a7,0(s1)
   18838:	0044ac83          	lw	s9,4(s1)
   1883c:	00848c13          	addi	s8,s1,8
   18840:	4685                	li	a3,1
   18842:	bb61                	j	185da <_svfiprintf_r+0x352>
   18844:	010d7693          	andi	a3,s10,16
   18848:	00448c13          	addi	s8,s1,4
   1884c:	c681                	beqz	a3,18854 <_svfiprintf_r+0x5cc>
   1884e:	0004a883          	lw	a7,0(s1)
   18852:	a031                	j	1885e <_svfiprintf_r+0x5d6>
   18854:	040d7693          	andi	a3,s10,64
   18858:	c689                	beqz	a3,18862 <_svfiprintf_r+0x5da>
   1885a:	0004d883          	lhu	a7,0(s1)
   1885e:	4c81                	li	s9,0
   18860:	b7c5                	j	18840 <_svfiprintf_r+0x5b8>
   18862:	200d7693          	andi	a3,s10,512
   18866:	d6e5                	beqz	a3,1884e <_svfiprintf_r+0x5c6>
   18868:	0004c883          	lbu	a7,0(s1)
   1886c:	bfcd                	j	1885e <_svfiprintf_r+0x5d6>
   1886e:	66f1                	lui	a3,0x1c
   18870:	48868793          	addi	a5,a3,1160 # 1c488 <zeroes.4447+0x20>
   18874:	be35                	j	183b0 <_svfiprintf_r+0x128>
   18876:	010d7693          	andi	a3,s10,16
   1887a:	00448c13          	addi	s8,s1,4
   1887e:	c681                	beqz	a3,18886 <_svfiprintf_r+0x5fe>
   18880:	0004a883          	lw	a7,0(s1)
   18884:	a031                	j	18890 <_svfiprintf_r+0x608>
   18886:	040d7693          	andi	a3,s10,64
   1888a:	c689                	beqz	a3,18894 <_svfiprintf_r+0x60c>
   1888c:	0004d883          	lhu	a7,0(s1)
   18890:	4c81                	li	s9,0
   18892:	be25                	j	183ca <_svfiprintf_r+0x142>
   18894:	200d7693          	andi	a3,s10,512
   18898:	d6e5                	beqz	a3,18880 <_svfiprintf_r+0x5f8>
   1889a:	0004c883          	lbu	a7,0(s1)
   1889e:	bfcd                	j	18890 <_svfiprintf_r+0x608>
   188a0:	866a                	mv	a2,s10
   188a2:	4685                	li	a3,1
   188a4:	b389                	j	185e6 <_svfiprintf_r+0x35e>
   188a6:	4605                	li	a2,1
   188a8:	c8c686e3          	beq	a3,a2,18534 <_svfiprintf_r+0x2ac>
   188ac:	4609                	li	a2,2
   188ae:	0cc68f63          	beq	a3,a2,1898c <_svfiprintf_r+0x704>
   188b2:	19f4                	addi	a3,sp,252
   188b4:	01dc9593          	slli	a1,s9,0x1d
   188b8:	0078f613          	andi	a2,a7,7
   188bc:	0038d893          	srli	a7,a7,0x3
   188c0:	03060613          	addi	a2,a2,48
   188c4:	0115e8b3          	or	a7,a1,a7
   188c8:	003cdc93          	srli	s9,s9,0x3
   188cc:	fec68fa3          	sb	a2,-1(a3)
   188d0:	0198e5b3          	or	a1,a7,s9
   188d4:	fff68493          	addi	s1,a3,-1
   188d8:	e185                	bnez	a1,188f8 <_svfiprintf_r+0x670>
   188da:	001d7593          	andi	a1,s10,1
   188de:	c989                	beqz	a1,188f0 <_svfiprintf_r+0x668>
   188e0:	03000593          	li	a1,48
   188e4:	00b60663          	beq	a2,a1,188f0 <_svfiprintf_r+0x668>
   188e8:	feb48fa3          	sb	a1,-1(s1)
   188ec:	ffe68493          	addi	s1,a3,-2
   188f0:	8ca2                	mv	s9,s0
   188f2:	19e0                	addi	s0,sp,252
   188f4:	8c05                	sub	s0,s0,s1
   188f6:	bbb5                	j	18672 <_svfiprintf_r+0x3ea>
   188f8:	86a6                	mv	a3,s1
   188fa:	bf6d                	j	188b4 <_svfiprintf_r+0x62c>
   188fc:	400d7793          	andi	a5,s10,1024
   18900:	4d81                	li	s11,0
   18902:	0fc10e13          	addi	t3,sp,252
   18906:	c63e                	sw	a5,12(sp)
   18908:	8546                	mv	a0,a7
   1890a:	4629                	li	a2,10
   1890c:	4681                	li	a3,0
   1890e:	85e6                	mv	a1,s9
   18910:	da3a                	sw	a4,52(sp)
   18912:	fffe0493          	addi	s1,t3,-1
   18916:	d872                	sw	t3,48(sp)
   18918:	d246                	sw	a7,36(sp)
   1891a:	109000ef          	jal	ra,19222 <__umoddi3>
   1891e:	5e42                	lw	t3,48(sp)
   18920:	47b2                	lw	a5,12(sp)
   18922:	03050513          	addi	a0,a0,48
   18926:	feae0fa3          	sb	a0,-1(t3)
   1892a:	0d85                	addi	s11,s11,1
   1892c:	5892                	lw	a7,36(sp)
   1892e:	5752                	lw	a4,52(sp)
   18930:	c3a9                	beqz	a5,18972 <_svfiprintf_r+0x6ea>
   18932:	47c2                	lw	a5,16(sp)
   18934:	0007c683          	lbu	a3,0(a5)
   18938:	03b69d63          	bne	a3,s11,18972 <_svfiprintf_r+0x6ea>
   1893c:	0ff00793          	li	a5,255
   18940:	02fd8963          	beq	s11,a5,18972 <_svfiprintf_r+0x6ea>
   18944:	000c9563          	bnez	s9,1894e <_svfiprintf_r+0x6c6>
   18948:	47a5                	li	a5,9
   1894a:	0317f463          	bgeu	a5,a7,18972 <_svfiprintf_r+0x6ea>
   1894e:	47e2                	lw	a5,24(sp)
   18950:	5582                	lw	a1,32(sp)
   18952:	d846                	sw	a7,48(sp)
   18954:	8c9d                	sub	s1,s1,a5
   18956:	863e                	mv	a2,a5
   18958:	8526                	mv	a0,s1
   1895a:	d23a                	sw	a4,36(sp)
   1895c:	d27fc0ef          	jal	ra,15682 <strncpy>
   18960:	47c2                	lw	a5,16(sp)
   18962:	4d81                	li	s11,0
   18964:	5712                	lw	a4,36(sp)
   18966:	0017c683          	lbu	a3,1(a5)
   1896a:	58c2                	lw	a7,48(sp)
   1896c:	c299                	beqz	a3,18972 <_svfiprintf_r+0x6ea>
   1896e:	0785                	addi	a5,a5,1
   18970:	c83e                	sw	a5,16(sp)
   18972:	8546                	mv	a0,a7
   18974:	85e6                	mv	a1,s9
   18976:	4629                	li	a2,10
   18978:	4681                	li	a3,0
   1897a:	d23a                	sw	a4,36(sp)
   1897c:	23b1                	jal	18ec8 <__udivdi3>
   1897e:	8cae                	mv	s9,a1
   18980:	8dc9                	or	a1,a1,a0
   18982:	88aa                	mv	a7,a0
   18984:	5712                	lw	a4,36(sp)
   18986:	d5ad                	beqz	a1,188f0 <_svfiprintf_r+0x668>
   18988:	8e26                	mv	t3,s1
   1898a:	bfbd                	j	18908 <_svfiprintf_r+0x680>
   1898c:	19e4                	addi	s1,sp,252
   1898e:	47d2                	lw	a5,20(sp)
   18990:	00f8f693          	andi	a3,a7,15
   18994:	14fd                	addi	s1,s1,-1
   18996:	96be                	add	a3,a3,a5
   18998:	0006c683          	lbu	a3,0(a3)
   1899c:	0048d893          	srli	a7,a7,0x4
   189a0:	00d48023          	sb	a3,0(s1)
   189a4:	01cc9693          	slli	a3,s9,0x1c
   189a8:	0116e8b3          	or	a7,a3,a7
   189ac:	004cdc93          	srli	s9,s9,0x4
   189b0:	0198e6b3          	or	a3,a7,s9
   189b4:	fee9                	bnez	a3,1898e <_svfiprintf_r+0x706>
   189b6:	bf2d                	j	188f0 <_svfiprintf_r+0x668>
   189b8:	19e4                	addi	s1,sp,252
   189ba:	fa9d                	bnez	a3,188f0 <_svfiprintf_r+0x668>
   189bc:	8a05                	andi	a2,a2,1
   189be:	da0d                	beqz	a2,188f0 <_svfiprintf_r+0x668>
   189c0:	03000693          	li	a3,48
   189c4:	0ed10da3          	sb	a3,251(sp)
   189c8:	bebd                	j	18546 <_svfiprintf_r+0x2be>
   189ca:	10060763          	beqz	a2,18ad8 <_svfiprintf_r+0x850>
   189ce:	08c10c23          	sb	a2,152(sp)
   189d2:	040103a3          	sb	zero,71(sp)
   189d6:	8c26                	mv	s8,s1
   189d8:	be21                	j	184f0 <_svfiprintf_r+0x268>
   189da:	05c1                	addi	a1,a1,16
   189dc:	01172223          	sw	a7,4(a4)
   189e0:	c8ae                	sw	a1,80(sp)
   189e2:	c6b2                	sw	a2,76(sp)
   189e4:	02c35163          	bge	t1,a2,18a06 <_svfiprintf_r+0x77e>
   189e8:	00b0                	addi	a2,sp,72
   189ea:	85ca                	mv	a1,s2
   189ec:	8556                	mv	a0,s5
   189ee:	de1a                	sw	t1,60(sp)
   189f0:	dc42                	sw	a6,56(sp)
   189f2:	da46                	sw	a7,52(sp)
   189f4:	d836                	sw	a3,48(sp)
   189f6:	f5eff0ef          	jal	ra,18154 <__ssprint_r>
   189fa:	ed59                	bnez	a0,18a98 <_svfiprintf_r+0x810>
   189fc:	5372                	lw	t1,60(sp)
   189fe:	5862                	lw	a6,56(sp)
   18a00:	58d2                	lw	a7,52(sp)
   18a02:	56c2                	lw	a3,48(sp)
   18a04:	855a                	mv	a0,s6
   18a06:	16c1                	addi	a3,a3,-16
   18a08:	872a                	mv	a4,a0
   18a0a:	b15d                	j	186b0 <_svfiprintf_r+0x428>
   18a0c:	0641                	addi	a2,a2,16
   18a0e:	01072223          	sw	a6,4(a4)
   18a12:	c8b2                	sw	a2,80(sp)
   18a14:	c6b6                	sw	a3,76(sp)
   18a16:	00d8dd63          	bge	a7,a3,18a30 <_svfiprintf_r+0x7a8>
   18a1a:	00b0                	addi	a2,sp,72
   18a1c:	85ca                	mv	a1,s2
   18a1e:	8556                	mv	a0,s5
   18a20:	d846                	sw	a7,48(sp)
   18a22:	d242                	sw	a6,36(sp)
   18a24:	f30ff0ef          	jal	ra,18154 <__ssprint_r>
   18a28:	e925                	bnez	a0,18a98 <_svfiprintf_r+0x810>
   18a2a:	58c2                	lw	a7,48(sp)
   18a2c:	5812                	lw	a6,36(sp)
   18a2e:	85da                	mv	a1,s6
   18a30:	1dc1                	addi	s11,s11,-16
   18a32:	872e                	mv	a4,a1
   18a34:	b315                	j	18758 <_svfiprintf_r+0x4d0>
   18a36:	0641                	addi	a2,a2,16
   18a38:	01b72223          	sw	s11,4(a4)
   18a3c:	c8b2                	sw	a2,80(sp)
   18a3e:	c6b6                	sw	a3,76(sp)
   18a40:	00d85b63          	bge	a6,a3,18a56 <_svfiprintf_r+0x7ce>
   18a44:	00b0                	addi	a2,sp,72
   18a46:	85ca                	mv	a1,s2
   18a48:	8556                	mv	a0,s5
   18a4a:	d242                	sw	a6,36(sp)
   18a4c:	f08ff0ef          	jal	ra,18154 <__ssprint_r>
   18a50:	e521                	bnez	a0,18a98 <_svfiprintf_r+0x810>
   18a52:	5812                	lw	a6,36(sp)
   18a54:	85da                	mv	a1,s6
   18a56:	1cc1                	addi	s9,s9,-16
   18a58:	872e                	mv	a4,a1
   18a5a:	bb35                	j	18796 <_svfiprintf_r+0x50e>
   18a5c:	47b2                	lw	a5,12(sp)
   18a5e:	40fa0433          	sub	s0,s4,a5
   18a62:	d8805ae3          	blez	s0,187f6 <_svfiprintf_r+0x56e>
   18a66:	67f5                	lui	a5,0x1d
   18a68:	4cc1                	li	s9,16
   18a6a:	e9878493          	addi	s1,a5,-360 # 1ce98 <blanks.4408>
   18a6e:	4d9d                	li	s11,7
   18a70:	47b6                	lw	a5,76(sp)
   18a72:	c304                	sw	s1,0(a4)
   18a74:	46c6                	lw	a3,80(sp)
   18a76:	0785                	addi	a5,a5,1
   18a78:	028ccf63          	blt	s9,s0,18ab6 <_svfiprintf_r+0x82e>
   18a7c:	c340                	sw	s0,4(a4)
   18a7e:	9436                	add	s0,s0,a3
   18a80:	c8a2                	sw	s0,80(sp)
   18a82:	c6be                	sw	a5,76(sp)
   18a84:	471d                	li	a4,7
   18a86:	d6f758e3          	bge	a4,a5,187f6 <_svfiprintf_r+0x56e>
   18a8a:	00b0                	addi	a2,sp,72
   18a8c:	85ca                	mv	a1,s2
   18a8e:	8556                	mv	a0,s5
   18a90:	ec4ff0ef          	jal	ra,18154 <__ssprint_r>
   18a94:	d60501e3          	beqz	a0,187f6 <_svfiprintf_r+0x56e>
   18a98:	00c95783          	lhu	a5,12(s2)
   18a9c:	0407f793          	andi	a5,a5,64
   18aa0:	84079ae3          	bnez	a5,182f4 <_svfiprintf_r+0x6c>
   18aa4:	57a2                	lw	a5,40(sp)
   18aa6:	577e                	lw	a4,252(sp)
   18aa8:	855e                	mv	a0,s7
   18aaa:	1cc1a783          	lw	a5,460(gp) # 1ec04 <__stack_chk_guard>
   18aae:	02f70d63          	beq	a4,a5,18ae8 <_svfiprintf_r+0x860>
   18ab2:	931f70ef          	jal	ra,103e2 <__stack_chk_fail>
   18ab6:	06c1                	addi	a3,a3,16
   18ab8:	01972223          	sw	s9,4(a4)
   18abc:	c8b6                	sw	a3,80(sp)
   18abe:	c6be                	sw	a5,76(sp)
   18ac0:	0721                	addi	a4,a4,8
   18ac2:	00fdd963          	bge	s11,a5,18ad4 <_svfiprintf_r+0x84c>
   18ac6:	00b0                	addi	a2,sp,72
   18ac8:	85ca                	mv	a1,s2
   18aca:	8556                	mv	a0,s5
   18acc:	e88ff0ef          	jal	ra,18154 <__ssprint_r>
   18ad0:	f561                	bnez	a0,18a98 <_svfiprintf_r+0x810>
   18ad2:	875a                	mv	a4,s6
   18ad4:	1441                	addi	s0,s0,-16
   18ad6:	bf69                	j	18a70 <_svfiprintf_r+0x7e8>
   18ad8:	47c6                	lw	a5,80(sp)
   18ada:	dfdd                	beqz	a5,18a98 <_svfiprintf_r+0x810>
   18adc:	00b0                	addi	a2,sp,72
   18ade:	85ca                	mv	a1,s2
   18ae0:	8556                	mv	a0,s5
   18ae2:	e72ff0ef          	jal	ra,18154 <__ssprint_r>
   18ae6:	bf4d                	j	18a98 <_svfiprintf_r+0x810>
   18ae8:	13c12083          	lw	ra,316(sp)
   18aec:	13812403          	lw	s0,312(sp)
   18af0:	13412483          	lw	s1,308(sp)
   18af4:	13012903          	lw	s2,304(sp)
   18af8:	12c12983          	lw	s3,300(sp)
   18afc:	12812a03          	lw	s4,296(sp)
   18b00:	12412a83          	lw	s5,292(sp)
   18b04:	12012b03          	lw	s6,288(sp)
   18b08:	11c12b83          	lw	s7,284(sp)
   18b0c:	11812c03          	lw	s8,280(sp)
   18b10:	11412c83          	lw	s9,276(sp)
   18b14:	11012d03          	lw	s10,272(sp)
   18b18:	10c12d83          	lw	s11,268(sp)
   18b1c:	6131                	addi	sp,sp,320
   18b1e:	8082                	ret

00018b20 <__swbuf_r>:
   18b20:	1101                	addi	sp,sp,-32
   18b22:	cc22                	sw	s0,24(sp)
   18b24:	ca26                	sw	s1,20(sp)
   18b26:	c84a                	sw	s2,16(sp)
   18b28:	ce06                	sw	ra,28(sp)
   18b2a:	c64e                	sw	s3,12(sp)
   18b2c:	892a                	mv	s2,a0
   18b2e:	84ae                	mv	s1,a1
   18b30:	8432                	mv	s0,a2
   18b32:	c509                	beqz	a0,18b3c <__swbuf_r+0x1c>
   18b34:	5d1c                	lw	a5,56(a0)
   18b36:	e399                	bnez	a5,18b3c <__swbuf_r+0x1c>
   18b38:	c12f90ef          	jal	ra,11f4a <__sinit>
   18b3c:	4c1c                	lw	a5,24(s0)
   18b3e:	c41c                	sw	a5,8(s0)
   18b40:	00c45783          	lhu	a5,12(s0)
   18b44:	8ba1                	andi	a5,a5,8
   18b46:	c3b5                	beqz	a5,18baa <__swbuf_r+0x8a>
   18b48:	481c                	lw	a5,16(s0)
   18b4a:	c3a5                	beqz	a5,18baa <__swbuf_r+0x8a>
   18b4c:	00c41783          	lh	a5,12(s0)
   18b50:	0ff4f993          	andi	s3,s1,255
   18b54:	0ff4f493          	andi	s1,s1,255
   18b58:	01279713          	slli	a4,a5,0x12
   18b5c:	06075563          	bgez	a4,18bc6 <__swbuf_r+0xa6>
   18b60:	481c                	lw	a5,16(s0)
   18b62:	4008                	lw	a0,0(s0)
   18b64:	8d1d                	sub	a0,a0,a5
   18b66:	485c                	lw	a5,20(s0)
   18b68:	00f54763          	blt	a0,a5,18b76 <__swbuf_r+0x56>
   18b6c:	85a2                	mv	a1,s0
   18b6e:	854a                	mv	a0,s2
   18b70:	ad6f90ef          	jal	ra,11e46 <_fflush_r>
   18b74:	e121                	bnez	a0,18bb4 <__swbuf_r+0x94>
   18b76:	441c                	lw	a5,8(s0)
   18b78:	0505                	addi	a0,a0,1
   18b7a:	17fd                	addi	a5,a5,-1
   18b7c:	c41c                	sw	a5,8(s0)
   18b7e:	401c                	lw	a5,0(s0)
   18b80:	00178713          	addi	a4,a5,1
   18b84:	c018                	sw	a4,0(s0)
   18b86:	01378023          	sb	s3,0(a5)
   18b8a:	485c                	lw	a5,20(s0)
   18b8c:	00a78963          	beq	a5,a0,18b9e <__swbuf_r+0x7e>
   18b90:	00c45783          	lhu	a5,12(s0)
   18b94:	8b85                	andi	a5,a5,1
   18b96:	c385                	beqz	a5,18bb6 <__swbuf_r+0x96>
   18b98:	47a9                	li	a5,10
   18b9a:	00f49e63          	bne	s1,a5,18bb6 <__swbuf_r+0x96>
   18b9e:	85a2                	mv	a1,s0
   18ba0:	854a                	mv	a0,s2
   18ba2:	aa4f90ef          	jal	ra,11e46 <_fflush_r>
   18ba6:	c901                	beqz	a0,18bb6 <__swbuf_r+0x96>
   18ba8:	a031                	j	18bb4 <__swbuf_r+0x94>
   18baa:	85a2                	mv	a1,s0
   18bac:	854a                	mv	a0,s2
   18bae:	f5ff80ef          	jal	ra,11b0c <__swsetup_r>
   18bb2:	dd49                	beqz	a0,18b4c <__swbuf_r+0x2c>
   18bb4:	54fd                	li	s1,-1
   18bb6:	40f2                	lw	ra,28(sp)
   18bb8:	4462                	lw	s0,24(sp)
   18bba:	8526                	mv	a0,s1
   18bbc:	4942                	lw	s2,16(sp)
   18bbe:	44d2                	lw	s1,20(sp)
   18bc0:	49b2                	lw	s3,12(sp)
   18bc2:	6105                	addi	sp,sp,32
   18bc4:	8082                	ret
   18bc6:	6709                	lui	a4,0x2
   18bc8:	8fd9                	or	a5,a5,a4
   18bca:	00f41623          	sh	a5,12(s0)
   18bce:	507c                	lw	a5,100(s0)
   18bd0:	7779                	lui	a4,0xffffe
   18bd2:	177d                	addi	a4,a4,-1
   18bd4:	8ff9                	and	a5,a5,a4
   18bd6:	d07c                	sw	a5,100(s0)
   18bd8:	b761                	j	18b60 <__swbuf_r+0x40>

00018bda <__swbuf>:
   18bda:	862e                	mv	a2,a1
   18bdc:	85aa                	mv	a1,a0
   18bde:	1c01a503          	lw	a0,448(gp) # 1ebf8 <_impure_ptr>
   18be2:	bf3d                	j	18b20 <__swbuf_r>

00018be4 <_wcrtomb_r>:
   18be4:	1cc1a783          	lw	a5,460(gp) # 1ec04 <__stack_chk_guard>
   18be8:	1101                	addi	sp,sp,-32
   18bea:	cc22                	sw	s0,24(sp)
   18bec:	c63e                	sw	a5,12(sp)
   18bee:	1c01a783          	lw	a5,448(gp) # 1ebf8 <_impure_ptr>
   18bf2:	ca26                	sw	s1,20(sp)
   18bf4:	c84a                	sw	s2,16(sp)
   18bf6:	ce06                	sw	ra,28(sp)
   18bf8:	842a                	mv	s0,a0
   18bfa:	84b6                	mv	s1,a3
   18bfc:	5bdc                	lw	a5,52(a5)
   18bfe:	893a                	mv	s2,a4
   18c00:	e995                	bnez	a1,18c34 <_wcrtomb_r+0x50>
   18c02:	e399                	bnez	a5,18c08 <_wcrtomb_r+0x24>
   18c04:	c2818793          	addi	a5,gp,-984 # 1e660 <__global_locale>
   18c08:	0e07a783          	lw	a5,224(a5)
   18c0c:	86a6                	mv	a3,s1
   18c0e:	4601                	li	a2,0
   18c10:	858a                	mv	a1,sp
   18c12:	8522                	mv	a0,s0
   18c14:	9782                	jalr	a5
   18c16:	57fd                	li	a5,-1
   18c18:	00f51763          	bne	a0,a5,18c26 <_wcrtomb_r+0x42>
   18c1c:	0004a023          	sw	zero,0(s1)
   18c20:	08a00793          	li	a5,138
   18c24:	c01c                	sw	a5,0(s0)
   18c26:	4732                	lw	a4,12(sp)
   18c28:	1cc1a783          	lw	a5,460(gp) # 1ec04 <__stack_chk_guard>
   18c2c:	00f70b63          	beq	a4,a5,18c42 <_wcrtomb_r+0x5e>
   18c30:	fb2f70ef          	jal	ra,103e2 <__stack_chk_fail>
   18c34:	e399                	bnez	a5,18c3a <_wcrtomb_r+0x56>
   18c36:	c2818793          	addi	a5,gp,-984 # 1e660 <__global_locale>
   18c3a:	0e07a783          	lw	a5,224(a5)
   18c3e:	86a6                	mv	a3,s1
   18c40:	bfc9                	j	18c12 <_wcrtomb_r+0x2e>
   18c42:	40f2                	lw	ra,28(sp)
   18c44:	4462                	lw	s0,24(sp)
   18c46:	44d2                	lw	s1,20(sp)
   18c48:	4942                	lw	s2,16(sp)
   18c4a:	6105                	addi	sp,sp,32
   18c4c:	8082                	ret

00018c4e <wcrtomb>:
   18c4e:	86b2                	mv	a3,a2
   18c50:	862e                	mv	a2,a1
   18c52:	85aa                	mv	a1,a0
   18c54:	1c01a503          	lw	a0,448(gp) # 1ebf8 <_impure_ptr>
   18c58:	b771                	j	18be4 <_wcrtomb_r>

00018c5a <abort>:
   18c5a:	1141                	addi	sp,sp,-16
   18c5c:	4519                	li	a0,6
   18c5e:	c606                	sw	ra,12(sp)
   18c60:	bc6fc0ef          	jal	ra,15026 <raise>
   18c64:	4505                	li	a0,1
   18c66:	2815                	jal	18c9a <_exit>

00018c68 <_close>:
   18c68:	1141                	addi	sp,sp,-16
   18c6a:	c606                	sw	ra,12(sp)
   18c6c:	c422                	sw	s0,8(sp)
   18c6e:	4581                	li	a1,0
   18c70:	4601                	li	a2,0
   18c72:	4681                	li	a3,0
   18c74:	4701                	li	a4,0
   18c76:	4781                	li	a5,0
   18c78:	03900893          	li	a7,57
   18c7c:	00000073          	ecall
   18c80:	842a                	mv	s0,a0
   18c82:	00055763          	bgez	a0,18c90 <_close+0x28>
   18c86:	40800433          	neg	s0,s0
   18c8a:	2c25                	jal	18ec2 <__errno>
   18c8c:	c100                	sw	s0,0(a0)
   18c8e:	547d                	li	s0,-1
   18c90:	8522                	mv	a0,s0
   18c92:	40b2                	lw	ra,12(sp)
   18c94:	4422                	lw	s0,8(sp)
   18c96:	0141                	addi	sp,sp,16
   18c98:	8082                	ret

00018c9a <_exit>:
   18c9a:	4581                	li	a1,0
   18c9c:	4601                	li	a2,0
   18c9e:	4681                	li	a3,0
   18ca0:	4701                	li	a4,0
   18ca2:	4781                	li	a5,0
   18ca4:	05d00893          	li	a7,93
   18ca8:	00000073          	ecall
   18cac:	00055b63          	bgez	a0,18cc2 <_exit+0x28>
   18cb0:	1141                	addi	sp,sp,-16
   18cb2:	c422                	sw	s0,8(sp)
   18cb4:	842a                	mv	s0,a0
   18cb6:	c606                	sw	ra,12(sp)
   18cb8:	40800433          	neg	s0,s0
   18cbc:	2419                	jal	18ec2 <__errno>
   18cbe:	c100                	sw	s0,0(a0)
   18cc0:	a001                	j	18cc0 <_exit+0x26>
   18cc2:	a001                	j	18cc2 <_exit+0x28>

00018cc4 <_fstat>:
   18cc4:	1cc1a783          	lw	a5,460(gp) # 1ec04 <__stack_chk_guard>
   18cc8:	7135                	addi	sp,sp,-160
   18cca:	c94a                	sw	s2,144(sp)
   18ccc:	c73e                	sw	a5,140(sp)
   18cce:	892e                	mv	s2,a1
   18cd0:	cf06                	sw	ra,156(sp)
   18cd2:	cd22                	sw	s0,152(sp)
   18cd4:	cb26                	sw	s1,148(sp)
   18cd6:	002c                	addi	a1,sp,8
   18cd8:	4601                	li	a2,0
   18cda:	4681                	li	a3,0
   18cdc:	4701                	li	a4,0
   18cde:	4781                	li	a5,0
   18ce0:	05000893          	li	a7,80
   18ce4:	00000073          	ecall
   18ce8:	842a                	mv	s0,a0
   18cea:	84c2                	mv	s1,a6
   18cec:	00055763          	bgez	a0,18cfa <_fstat+0x36>
   18cf0:	40800433          	neg	s0,s0
   18cf4:	22f9                	jal	18ec2 <__errno>
   18cf6:	c100                	sw	s0,0(a0)
   18cf8:	547d                	li	s0,-1
   18cfa:	854a                	mv	a0,s2
   18cfc:	002c                	addi	a1,sp,8
   18cfe:	2a9d                	jal	18e74 <_conv_stat>
   18d00:	473a                	lw	a4,140(sp)
   18d02:	1cc1a783          	lw	a5,460(gp) # 1ec04 <__stack_chk_guard>
   18d06:	8522                	mv	a0,s0
   18d08:	00f70463          	beq	a4,a5,18d10 <_fstat+0x4c>
   18d0c:	ed6f70ef          	jal	ra,103e2 <__stack_chk_fail>
   18d10:	40fa                	lw	ra,156(sp)
   18d12:	446a                	lw	s0,152(sp)
   18d14:	44da                	lw	s1,148(sp)
   18d16:	494a                	lw	s2,144(sp)
   18d18:	610d                	addi	sp,sp,160
   18d1a:	8082                	ret

00018d1c <_getpid>:
   18d1c:	4505                	li	a0,1
   18d1e:	8082                	ret

00018d20 <_isatty>:
   18d20:	7159                	addi	sp,sp,-112
   18d22:	d4a2                	sw	s0,104(sp)
   18d24:	1cc1a783          	lw	a5,460(gp) # 1ec04 <__stack_chk_guard>
   18d28:	858a                	mv	a1,sp
   18d2a:	d686                	sw	ra,108(sp)
   18d2c:	cebe                	sw	a5,92(sp)
   18d2e:	f97ff0ef          	jal	ra,18cc4 <_fstat>
   18d32:	577d                	li	a4,-1
   18d34:	4781                	li	a5,0
   18d36:	00e50563          	beq	a0,a4,18d40 <_isatty+0x20>
   18d3a:	4792                	lw	a5,4(sp)
   18d3c:	83b5                	srli	a5,a5,0xd
   18d3e:	8b85                	andi	a5,a5,1
   18d40:	853e                	mv	a0,a5
   18d42:	4776                	lw	a4,92(sp)
   18d44:	1cc1a783          	lw	a5,460(gp) # 1ec04 <__stack_chk_guard>
   18d48:	00f70463          	beq	a4,a5,18d50 <_isatty+0x30>
   18d4c:	e96f70ef          	jal	ra,103e2 <__stack_chk_fail>
   18d50:	50b6                	lw	ra,108(sp)
   18d52:	5426                	lw	s0,104(sp)
   18d54:	6165                	addi	sp,sp,112
   18d56:	8082                	ret

00018d58 <_kill>:
   18d58:	1141                	addi	sp,sp,-16
   18d5a:	c606                	sw	ra,12(sp)
   18d5c:	229d                	jal	18ec2 <__errno>
   18d5e:	40b2                	lw	ra,12(sp)
   18d60:	47d9                	li	a5,22
   18d62:	c11c                	sw	a5,0(a0)
   18d64:	557d                	li	a0,-1
   18d66:	0141                	addi	sp,sp,16
   18d68:	8082                	ret

00018d6a <_lseek>:
   18d6a:	1141                	addi	sp,sp,-16
   18d6c:	c606                	sw	ra,12(sp)
   18d6e:	c422                	sw	s0,8(sp)
   18d70:	4681                	li	a3,0
   18d72:	4701                	li	a4,0
   18d74:	4781                	li	a5,0
   18d76:	03e00893          	li	a7,62
   18d7a:	00000073          	ecall
   18d7e:	842a                	mv	s0,a0
   18d80:	00055763          	bgez	a0,18d8e <_lseek+0x24>
   18d84:	40800433          	neg	s0,s0
   18d88:	2a2d                	jal	18ec2 <__errno>
   18d8a:	c100                	sw	s0,0(a0)
   18d8c:	547d                	li	s0,-1
   18d8e:	8522                	mv	a0,s0
   18d90:	40b2                	lw	ra,12(sp)
   18d92:	4422                	lw	s0,8(sp)
   18d94:	0141                	addi	sp,sp,16
   18d96:	8082                	ret

00018d98 <_read>:
   18d98:	1141                	addi	sp,sp,-16
   18d9a:	c606                	sw	ra,12(sp)
   18d9c:	c422                	sw	s0,8(sp)
   18d9e:	4681                	li	a3,0
   18da0:	4701                	li	a4,0
   18da2:	4781                	li	a5,0
   18da4:	03f00893          	li	a7,63
   18da8:	00000073          	ecall
   18dac:	842a                	mv	s0,a0
   18dae:	00055763          	bgez	a0,18dbc <_read+0x24>
   18db2:	40800433          	neg	s0,s0
   18db6:	2231                	jal	18ec2 <__errno>
   18db8:	c100                	sw	s0,0(a0)
   18dba:	547d                	li	s0,-1
   18dbc:	8522                	mv	a0,s0
   18dbe:	40b2                	lw	ra,12(sp)
   18dc0:	4422                	lw	s0,8(sp)
   18dc2:	0141                	addi	sp,sp,16
   18dc4:	8082                	ret

00018dc6 <_sbrk>:
   18dc6:	1141                	addi	sp,sp,-16
   18dc8:	c422                	sw	s0,8(sp)
   18dca:	1e01a783          	lw	a5,480(gp) # 1ec18 <heap_end.1714>
   18dce:	c04a                	sw	s2,0(sp)
   18dd0:	c606                	sw	ra,12(sp)
   18dd2:	c226                	sw	s1,4(sp)
   18dd4:	892a                	mv	s2,a0
   18dd6:	eb95                	bnez	a5,18e0a <_sbrk+0x44>
   18dd8:	4501                	li	a0,0
   18dda:	4581                	li	a1,0
   18ddc:	4601                	li	a2,0
   18dde:	4681                	li	a3,0
   18de0:	4701                	li	a4,0
   18de2:	0d600893          	li	a7,214
   18de6:	00000073          	ecall
   18dea:	84aa                	mv	s1,a0
   18dec:	00055d63          	bgez	a0,18e06 <_sbrk+0x40>
   18df0:	28c9                	jal	18ec2 <__errno>
   18df2:	409004b3          	neg	s1,s1
   18df6:	c104                	sw	s1,0(a0)
   18df8:	557d                	li	a0,-1
   18dfa:	40b2                	lw	ra,12(sp)
   18dfc:	4422                	lw	s0,8(sp)
   18dfe:	4492                	lw	s1,4(sp)
   18e00:	4902                	lw	s2,0(sp)
   18e02:	0141                	addi	sp,sp,16
   18e04:	8082                	ret
   18e06:	1ea1a023          	sw	a0,480(gp) # 1ec18 <heap_end.1714>
   18e0a:	1e01a503          	lw	a0,480(gp) # 1ec18 <heap_end.1714>
   18e0e:	4581                	li	a1,0
   18e10:	4601                	li	a2,0
   18e12:	954a                	add	a0,a0,s2
   18e14:	4681                	li	a3,0
   18e16:	4701                	li	a4,0
   18e18:	4781                	li	a5,0
   18e1a:	0d600893          	li	a7,214
   18e1e:	00000073          	ecall
   18e22:	84aa                	mv	s1,a0
   18e24:	00055763          	bgez	a0,18e32 <_sbrk+0x6c>
   18e28:	409004b3          	neg	s1,s1
   18e2c:	2859                	jal	18ec2 <__errno>
   18e2e:	c104                	sw	s1,0(a0)
   18e30:	54fd                	li	s1,-1
   18e32:	1e01a783          	lw	a5,480(gp) # 1ec18 <heap_end.1714>
   18e36:	557d                	li	a0,-1
   18e38:	993e                	add	s2,s2,a5
   18e3a:	fd2490e3          	bne	s1,s2,18dfa <_sbrk+0x34>
   18e3e:	1e91a023          	sw	s1,480(gp) # 1ec18 <heap_end.1714>
   18e42:	853e                	mv	a0,a5
   18e44:	bf5d                	j	18dfa <_sbrk+0x34>

00018e46 <_write>:
   18e46:	1141                	addi	sp,sp,-16
   18e48:	c606                	sw	ra,12(sp)
   18e4a:	c422                	sw	s0,8(sp)
   18e4c:	4681                	li	a3,0
   18e4e:	4701                	li	a4,0
   18e50:	4781                	li	a5,0
   18e52:	04000893          	li	a7,64
   18e56:	00000073          	ecall
   18e5a:	842a                	mv	s0,a0
   18e5c:	00055763          	bgez	a0,18e6a <_write+0x24>
   18e60:	40800433          	neg	s0,s0
   18e64:	28b9                	jal	18ec2 <__errno>
   18e66:	c100                	sw	s0,0(a0)
   18e68:	547d                	li	s0,-1
   18e6a:	8522                	mv	a0,s0
   18e6c:	40b2                	lw	ra,12(sp)
   18e6e:	4422                	lw	s0,8(sp)
   18e70:	0141                	addi	sp,sp,16
   18e72:	8082                	ret

00018e74 <_conv_stat>:
   18e74:	419c                	lw	a5,0(a1)
   18e76:	45b8                	lw	a4,72(a1)
   18e78:	00f51023          	sh	a5,0(a0)
   18e7c:	459c                	lw	a5,8(a1)
   18e7e:	00f51123          	sh	a5,2(a0)
   18e82:	499c                	lw	a5,16(a1)
   18e84:	c15c                	sw	a5,4(a0)
   18e86:	49dc                	lw	a5,20(a1)
   18e88:	00f51423          	sh	a5,8(a0)
   18e8c:	4d9c                	lw	a5,24(a1)
   18e8e:	00f51523          	sh	a5,10(a0)
   18e92:	4ddc                	lw	a5,28(a1)
   18e94:	00f51623          	sh	a5,12(a0)
   18e98:	519c                	lw	a5,32(a1)
   18e9a:	00f51723          	sh	a5,14(a0)
   18e9e:	599c                	lw	a5,48(a1)
   18ea0:	c91c                	sw	a5,16(a0)
   18ea2:	41bc                	lw	a5,64(a1)
   18ea4:	c53c                	sw	a5,72(a0)
   18ea6:	5d9c                	lw	a5,56(a1)
   18ea8:	c17c                	sw	a5,68(a0)
   18eaa:	45fc                	lw	a5,76(a1)
   18eac:	cd18                	sw	a4,24(a0)
   18eae:	4db8                	lw	a4,88(a1)
   18eb0:	cd5c                	sw	a5,28(a0)
   18eb2:	4dfc                	lw	a5,92(a1)
   18eb4:	d518                	sw	a4,40(a0)
   18eb6:	55b8                	lw	a4,104(a1)
   18eb8:	d55c                	sw	a5,44(a0)
   18eba:	55fc                	lw	a5,108(a1)
   18ebc:	dd18                	sw	a4,56(a0)
   18ebe:	dd5c                	sw	a5,60(a0)
   18ec0:	8082                	ret

00018ec2 <__errno>:
   18ec2:	1c01a503          	lw	a0,448(gp) # 1ebf8 <_impure_ptr>
   18ec6:	8082                	ret

00018ec8 <__udivdi3>:
   18ec8:	87ae                	mv	a5,a1
   18eca:	8832                	mv	a6,a2
   18ecc:	8736                	mv	a4,a3
   18ece:	832a                	mv	t1,a0
   18ed0:	20069563          	bnez	a3,190da <__udivdi3+0x212>
   18ed4:	68f5                	lui	a7,0x1d
   18ed6:	f6c88893          	addi	a7,a7,-148 # 1cf6c <__clz_tab>
   18eda:	0ac5fe63          	bgeu	a1,a2,18f96 <__udivdi3+0xce>
   18ede:	6741                	lui	a4,0x10
   18ee0:	0ae67463          	bgeu	a2,a4,18f88 <__udivdi3+0xc0>
   18ee4:	0ff00693          	li	a3,255
   18ee8:	00c6b6b3          	sltu	a3,a3,a2
   18eec:	068e                	slli	a3,a3,0x3
   18eee:	00d65733          	srl	a4,a2,a3
   18ef2:	98ba                	add	a7,a7,a4
   18ef4:	0008c703          	lbu	a4,0(a7)
   18ef8:	96ba                	add	a3,a3,a4
   18efa:	02000713          	li	a4,32
   18efe:	8f15                	sub	a4,a4,a3
   18f00:	cb19                	beqz	a4,18f16 <__udivdi3+0x4e>
   18f02:	00e797b3          	sll	a5,a5,a4
   18f06:	00d556b3          	srl	a3,a0,a3
   18f0a:	00e61833          	sll	a6,a2,a4
   18f0e:	00f6e5b3          	or	a1,a3,a5
   18f12:	00e51333          	sll	t1,a0,a4
   18f16:	01085513          	srli	a0,a6,0x10
   18f1a:	02a5d7b3          	divu	a5,a1,a0
   18f1e:	01081613          	slli	a2,a6,0x10
   18f22:	8241                	srli	a2,a2,0x10
   18f24:	01035693          	srli	a3,t1,0x10
   18f28:	02a5f733          	remu	a4,a1,a0
   18f2c:	02f605b3          	mul	a1,a2,a5
   18f30:	0742                	slli	a4,a4,0x10
   18f32:	8ed9                	or	a3,a3,a4
   18f34:	873e                	mv	a4,a5
   18f36:	00b6fc63          	bgeu	a3,a1,18f4e <__udivdi3+0x86>
   18f3a:	96c2                	add	a3,a3,a6
   18f3c:	fff78713          	addi	a4,a5,-1
   18f40:	0106e763          	bltu	a3,a6,18f4e <__udivdi3+0x86>
   18f44:	00b6f563          	bgeu	a3,a1,18f4e <__udivdi3+0x86>
   18f48:	ffe78713          	addi	a4,a5,-2
   18f4c:	96c2                	add	a3,a3,a6
   18f4e:	8e8d                	sub	a3,a3,a1
   18f50:	02a6f7b3          	remu	a5,a3,a0
   18f54:	0342                	slli	t1,t1,0x10
   18f56:	01035313          	srli	t1,t1,0x10
   18f5a:	02a6d6b3          	divu	a3,a3,a0
   18f5e:	07c2                	slli	a5,a5,0x10
   18f60:	0067e333          	or	t1,a5,t1
   18f64:	02d605b3          	mul	a1,a2,a3
   18f68:	8536                	mv	a0,a3
   18f6a:	00b37b63          	bgeu	t1,a1,18f80 <__udivdi3+0xb8>
   18f6e:	9342                	add	t1,t1,a6
   18f70:	fff68513          	addi	a0,a3,-1
   18f74:	01036663          	bltu	t1,a6,18f80 <__udivdi3+0xb8>
   18f78:	00b37463          	bgeu	t1,a1,18f80 <__udivdi3+0xb8>
   18f7c:	ffe68513          	addi	a0,a3,-2
   18f80:	0742                	slli	a4,a4,0x10
   18f82:	8f49                	or	a4,a4,a0
   18f84:	4581                	li	a1,0
   18f86:	a84d                	j	19038 <__udivdi3+0x170>
   18f88:	01000737          	lui	a4,0x1000
   18f8c:	46c1                	li	a3,16
   18f8e:	f6e660e3          	bltu	a2,a4,18eee <__udivdi3+0x26>
   18f92:	46e1                	li	a3,24
   18f94:	bfa9                	j	18eee <__udivdi3+0x26>
   18f96:	e601                	bnez	a2,18f9e <__udivdi3+0xd6>
   18f98:	4685                	li	a3,1
   18f9a:	02c6d833          	divu	a6,a3,a2
   18f9e:	66c1                	lui	a3,0x10
   18fa0:	08d87e63          	bgeu	a6,a3,1903c <__udivdi3+0x174>
   18fa4:	0ff00693          	li	a3,255
   18fa8:	0106f363          	bgeu	a3,a6,18fae <__udivdi3+0xe6>
   18fac:	4721                	li	a4,8
   18fae:	00e856b3          	srl	a3,a6,a4
   18fb2:	98b6                	add	a7,a7,a3
   18fb4:	0008c683          	lbu	a3,0(a7)
   18fb8:	96ba                	add	a3,a3,a4
   18fba:	02000713          	li	a4,32
   18fbe:	8f15                	sub	a4,a4,a3
   18fc0:	e749                	bnez	a4,1904a <__udivdi3+0x182>
   18fc2:	410787b3          	sub	a5,a5,a6
   18fc6:	4585                	li	a1,1
   18fc8:	01085613          	srli	a2,a6,0x10
   18fcc:	01081893          	slli	a7,a6,0x10
   18fd0:	0108d893          	srli	a7,a7,0x10
   18fd4:	01035693          	srli	a3,t1,0x10
   18fd8:	02c7f733          	remu	a4,a5,a2
   18fdc:	02c7d7b3          	divu	a5,a5,a2
   18fe0:	0742                	slli	a4,a4,0x10
   18fe2:	8ed9                	or	a3,a3,a4
   18fe4:	02f88533          	mul	a0,a7,a5
   18fe8:	873e                	mv	a4,a5
   18fea:	00a6fc63          	bgeu	a3,a0,19002 <__udivdi3+0x13a>
   18fee:	96c2                	add	a3,a3,a6
   18ff0:	fff78713          	addi	a4,a5,-1
   18ff4:	0106e763          	bltu	a3,a6,19002 <__udivdi3+0x13a>
   18ff8:	00a6f563          	bgeu	a3,a0,19002 <__udivdi3+0x13a>
   18ffc:	ffe78713          	addi	a4,a5,-2
   19000:	96c2                	add	a3,a3,a6
   19002:	8e89                	sub	a3,a3,a0
   19004:	02c6f7b3          	remu	a5,a3,a2
   19008:	0342                	slli	t1,t1,0x10
   1900a:	01035313          	srli	t1,t1,0x10
   1900e:	02c6d6b3          	divu	a3,a3,a2
   19012:	07c2                	slli	a5,a5,0x10
   19014:	0067e333          	or	t1,a5,t1
   19018:	02d888b3          	mul	a7,a7,a3
   1901c:	8536                	mv	a0,a3
   1901e:	01137b63          	bgeu	t1,a7,19034 <__udivdi3+0x16c>
   19022:	9342                	add	t1,t1,a6
   19024:	fff68513          	addi	a0,a3,-1 # ffff <__stack_chk_init-0x75>
   19028:	01036663          	bltu	t1,a6,19034 <__udivdi3+0x16c>
   1902c:	01137463          	bgeu	t1,a7,19034 <__udivdi3+0x16c>
   19030:	ffe68513          	addi	a0,a3,-2
   19034:	0742                	slli	a4,a4,0x10
   19036:	8f49                	or	a4,a4,a0
   19038:	853a                	mv	a0,a4
   1903a:	8082                	ret
   1903c:	010006b7          	lui	a3,0x1000
   19040:	4741                	li	a4,16
   19042:	f6d866e3          	bltu	a6,a3,18fae <__udivdi3+0xe6>
   19046:	4761                	li	a4,24
   19048:	b79d                	j	18fae <__udivdi3+0xe6>
   1904a:	00e81833          	sll	a6,a6,a4
   1904e:	00d7d5b3          	srl	a1,a5,a3
   19052:	00e51333          	sll	t1,a0,a4
   19056:	00d556b3          	srl	a3,a0,a3
   1905a:	01085513          	srli	a0,a6,0x10
   1905e:	00e797b3          	sll	a5,a5,a4
   19062:	02a5f733          	remu	a4,a1,a0
   19066:	00f6e8b3          	or	a7,a3,a5
   1906a:	01081793          	slli	a5,a6,0x10
   1906e:	83c1                	srli	a5,a5,0x10
   19070:	0108d613          	srli	a2,a7,0x10
   19074:	02a5d5b3          	divu	a1,a1,a0
   19078:	0742                	slli	a4,a4,0x10
   1907a:	8f51                	or	a4,a4,a2
   1907c:	02b786b3          	mul	a3,a5,a1
   19080:	862e                	mv	a2,a1
   19082:	00d77c63          	bgeu	a4,a3,1909a <__udivdi3+0x1d2>
   19086:	9742                	add	a4,a4,a6
   19088:	fff58613          	addi	a2,a1,-1
   1908c:	01076763          	bltu	a4,a6,1909a <__udivdi3+0x1d2>
   19090:	00d77563          	bgeu	a4,a3,1909a <__udivdi3+0x1d2>
   19094:	ffe58613          	addi	a2,a1,-2
   19098:	9742                	add	a4,a4,a6
   1909a:	40d706b3          	sub	a3,a4,a3
   1909e:	02a6f733          	remu	a4,a3,a0
   190a2:	08c2                	slli	a7,a7,0x10
   190a4:	0108d893          	srli	a7,a7,0x10
   190a8:	02a6d6b3          	divu	a3,a3,a0
   190ac:	0742                	slli	a4,a4,0x10
   190ae:	02d785b3          	mul	a1,a5,a3
   190b2:	011767b3          	or	a5,a4,a7
   190b6:	8736                	mv	a4,a3
   190b8:	00b7fc63          	bgeu	a5,a1,190d0 <__udivdi3+0x208>
   190bc:	97c2                	add	a5,a5,a6
   190be:	fff68713          	addi	a4,a3,-1 # ffffff <__BSS_END__+0xfe139b>
   190c2:	0107e763          	bltu	a5,a6,190d0 <__udivdi3+0x208>
   190c6:	00b7f563          	bgeu	a5,a1,190d0 <__udivdi3+0x208>
   190ca:	ffe68713          	addi	a4,a3,-2
   190ce:	97c2                	add	a5,a5,a6
   190d0:	8f8d                	sub	a5,a5,a1
   190d2:	01061593          	slli	a1,a2,0x10
   190d6:	8dd9                	or	a1,a1,a4
   190d8:	bdc5                	j	18fc8 <__udivdi3+0x100>
   190da:	14d5e163          	bltu	a1,a3,1921c <__udivdi3+0x354>
   190de:	6741                	lui	a4,0x10
   190e0:	02e6fd63          	bgeu	a3,a4,1911a <__udivdi3+0x252>
   190e4:	0ff00813          	li	a6,255
   190e8:	00d835b3          	sltu	a1,a6,a3
   190ec:	058e                	slli	a1,a1,0x3
   190ee:	6775                	lui	a4,0x1d
   190f0:	00b6d833          	srl	a6,a3,a1
   190f4:	f6c70713          	addi	a4,a4,-148 # 1cf6c <__clz_tab>
   190f8:	9742                	add	a4,a4,a6
   190fa:	00074803          	lbu	a6,0(a4)
   190fe:	982e                	add	a6,a6,a1
   19100:	02000593          	li	a1,32
   19104:	410585b3          	sub	a1,a1,a6
   19108:	e185                	bnez	a1,19128 <__udivdi3+0x260>
   1910a:	4705                	li	a4,1
   1910c:	f2f6e6e3          	bltu	a3,a5,19038 <__udivdi3+0x170>
   19110:	00c53633          	sltu	a2,a0,a2
   19114:	00164713          	xori	a4,a2,1
   19118:	b705                	j	19038 <__udivdi3+0x170>
   1911a:	01000737          	lui	a4,0x1000
   1911e:	45c1                	li	a1,16
   19120:	fce6e7e3          	bltu	a3,a4,190ee <__udivdi3+0x226>
   19124:	45e1                	li	a1,24
   19126:	b7e1                	j	190ee <__udivdi3+0x226>
   19128:	01065733          	srl	a4,a2,a6
   1912c:	00b696b3          	sll	a3,a3,a1
   19130:	8ed9                	or	a3,a3,a4
   19132:	0106de93          	srli	t4,a3,0x10
   19136:	0107d733          	srl	a4,a5,a6
   1913a:	03d778b3          	remu	a7,a4,t4
   1913e:	00b797b3          	sll	a5,a5,a1
   19142:	01055833          	srl	a6,a0,a6
   19146:	00f86333          	or	t1,a6,a5
   1914a:	01069793          	slli	a5,a3,0x10
   1914e:	83c1                	srli	a5,a5,0x10
   19150:	01035813          	srli	a6,t1,0x10
   19154:	00b61633          	sll	a2,a2,a1
   19158:	03d75733          	divu	a4,a4,t4
   1915c:	08c2                	slli	a7,a7,0x10
   1915e:	0108e833          	or	a6,a7,a6
   19162:	02e78f33          	mul	t5,a5,a4
   19166:	8e3a                	mv	t3,a4
   19168:	01e87c63          	bgeu	a6,t5,19180 <__udivdi3+0x2b8>
   1916c:	9836                	add	a6,a6,a3
   1916e:	fff70e13          	addi	t3,a4,-1 # ffffff <__BSS_END__+0xfe139b>
   19172:	00d86763          	bltu	a6,a3,19180 <__udivdi3+0x2b8>
   19176:	01e87563          	bgeu	a6,t5,19180 <__udivdi3+0x2b8>
   1917a:	ffe70e13          	addi	t3,a4,-2
   1917e:	9836                	add	a6,a6,a3
   19180:	41e80833          	sub	a6,a6,t5
   19184:	03d878b3          	remu	a7,a6,t4
   19188:	03d85833          	divu	a6,a6,t4
   1918c:	08c2                	slli	a7,a7,0x10
   1918e:	03078eb3          	mul	t4,a5,a6
   19192:	01031793          	slli	a5,t1,0x10
   19196:	83c1                	srli	a5,a5,0x10
   19198:	00f8e7b3          	or	a5,a7,a5
   1919c:	8742                	mv	a4,a6
   1919e:	01d7fc63          	bgeu	a5,t4,191b6 <__udivdi3+0x2ee>
   191a2:	97b6                	add	a5,a5,a3
   191a4:	fff80713          	addi	a4,a6,-1
   191a8:	00d7e763          	bltu	a5,a3,191b6 <__udivdi3+0x2ee>
   191ac:	01d7f563          	bgeu	a5,t4,191b6 <__udivdi3+0x2ee>
   191b0:	ffe80713          	addi	a4,a6,-2
   191b4:	97b6                	add	a5,a5,a3
   191b6:	0e42                	slli	t3,t3,0x10
   191b8:	41d787b3          	sub	a5,a5,t4
   191bc:	6ec1                	lui	t4,0x10
   191be:	00ee6733          	or	a4,t3,a4
   191c2:	fffe8813          	addi	a6,t4,-1 # ffff <__stack_chk_init-0x75>
   191c6:	01077333          	and	t1,a4,a6
   191ca:	01075893          	srli	a7,a4,0x10
   191ce:	01067833          	and	a6,a2,a6
   191d2:	8241                	srli	a2,a2,0x10
   191d4:	03030e33          	mul	t3,t1,a6
   191d8:	03088833          	mul	a6,a7,a6
   191dc:	010e5693          	srli	a3,t3,0x10
   191e0:	02c30333          	mul	t1,t1,a2
   191e4:	9342                	add	t1,t1,a6
   191e6:	969a                	add	a3,a3,t1
   191e8:	02c888b3          	mul	a7,a7,a2
   191ec:	0106f363          	bgeu	a3,a6,191f2 <__udivdi3+0x32a>
   191f0:	98f6                	add	a7,a7,t4
   191f2:	0106d613          	srli	a2,a3,0x10
   191f6:	98b2                	add	a7,a7,a2
   191f8:	0317e063          	bltu	a5,a7,19218 <__udivdi3+0x350>
   191fc:	d91794e3          	bne	a5,a7,18f84 <__udivdi3+0xbc>
   19200:	67c1                	lui	a5,0x10
   19202:	17fd                	addi	a5,a5,-1
   19204:	8efd                	and	a3,a3,a5
   19206:	06c2                	slli	a3,a3,0x10
   19208:	00fe7e33          	and	t3,t3,a5
   1920c:	00b51533          	sll	a0,a0,a1
   19210:	96f2                	add	a3,a3,t3
   19212:	4581                	li	a1,0
   19214:	e2d572e3          	bgeu	a0,a3,19038 <__udivdi3+0x170>
   19218:	177d                	addi	a4,a4,-1
   1921a:	b3ad                	j	18f84 <__udivdi3+0xbc>
   1921c:	4581                	li	a1,0
   1921e:	4701                	li	a4,0
   19220:	bd21                	j	19038 <__udivdi3+0x170>

00019222 <__umoddi3>:
   19222:	88b2                	mv	a7,a2
   19224:	8736                	mv	a4,a3
   19226:	87aa                	mv	a5,a0
   19228:	882e                	mv	a6,a1
   1922a:	1c069763          	bnez	a3,193f8 <__umoddi3+0x1d6>
   1922e:	66f5                	lui	a3,0x1d
   19230:	f6c68693          	addi	a3,a3,-148 # 1cf6c <__clz_tab>
   19234:	0ac5f863          	bgeu	a1,a2,192e4 <__umoddi3+0xc2>
   19238:	6341                	lui	t1,0x10
   1923a:	08667e63          	bgeu	a2,t1,192d6 <__umoddi3+0xb4>
   1923e:	0ff00313          	li	t1,255
   19242:	00c37363          	bgeu	t1,a2,19248 <__umoddi3+0x26>
   19246:	4721                	li	a4,8
   19248:	00e65333          	srl	t1,a2,a4
   1924c:	969a                	add	a3,a3,t1
   1924e:	0006ce03          	lbu	t3,0(a3)
   19252:	02000313          	li	t1,32
   19256:	9e3a                	add	t3,t3,a4
   19258:	41c30333          	sub	t1,t1,t3
   1925c:	00030c63          	beqz	t1,19274 <__umoddi3+0x52>
   19260:	006595b3          	sll	a1,a1,t1
   19264:	01c55e33          	srl	t3,a0,t3
   19268:	006618b3          	sll	a7,a2,t1
   1926c:	00be6833          	or	a6,t3,a1
   19270:	006517b3          	sll	a5,a0,t1
   19274:	0108d613          	srli	a2,a7,0x10
   19278:	02c87733          	remu	a4,a6,a2
   1927c:	01089513          	slli	a0,a7,0x10
   19280:	8141                	srli	a0,a0,0x10
   19282:	0107d693          	srli	a3,a5,0x10
   19286:	02c85833          	divu	a6,a6,a2
   1928a:	0742                	slli	a4,a4,0x10
   1928c:	8ed9                	or	a3,a3,a4
   1928e:	03050833          	mul	a6,a0,a6
   19292:	0106f863          	bgeu	a3,a6,192a2 <__umoddi3+0x80>
   19296:	96c6                	add	a3,a3,a7
   19298:	0116e563          	bltu	a3,a7,192a2 <__umoddi3+0x80>
   1929c:	0106f363          	bgeu	a3,a6,192a2 <__umoddi3+0x80>
   192a0:	96c6                	add	a3,a3,a7
   192a2:	410686b3          	sub	a3,a3,a6
   192a6:	02c6f733          	remu	a4,a3,a2
   192aa:	07c2                	slli	a5,a5,0x10
   192ac:	83c1                	srli	a5,a5,0x10
   192ae:	02c6d6b3          	divu	a3,a3,a2
   192b2:	02d506b3          	mul	a3,a0,a3
   192b6:	01071513          	slli	a0,a4,0x10
   192ba:	8fc9                	or	a5,a5,a0
   192bc:	00d7f863          	bgeu	a5,a3,192cc <__umoddi3+0xaa>
   192c0:	97c6                	add	a5,a5,a7
   192c2:	0117e563          	bltu	a5,a7,192cc <__umoddi3+0xaa>
   192c6:	00d7f363          	bgeu	a5,a3,192cc <__umoddi3+0xaa>
   192ca:	97c6                	add	a5,a5,a7
   192cc:	8f95                	sub	a5,a5,a3
   192ce:	0067d533          	srl	a0,a5,t1
   192d2:	4581                	li	a1,0
   192d4:	8082                	ret
   192d6:	01000337          	lui	t1,0x1000
   192da:	4741                	li	a4,16
   192dc:	f66666e3          	bltu	a2,t1,19248 <__umoddi3+0x26>
   192e0:	4761                	li	a4,24
   192e2:	b79d                	j	19248 <__umoddi3+0x26>
   192e4:	e601                	bnez	a2,192ec <__umoddi3+0xca>
   192e6:	4605                	li	a2,1
   192e8:	031658b3          	divu	a7,a2,a7
   192ec:	6641                	lui	a2,0x10
   192ee:	08c8f363          	bgeu	a7,a2,19374 <__umoddi3+0x152>
   192f2:	0ff00613          	li	a2,255
   192f6:	01167363          	bgeu	a2,a7,192fc <__umoddi3+0xda>
   192fa:	4721                	li	a4,8
   192fc:	00e8d633          	srl	a2,a7,a4
   19300:	96b2                	add	a3,a3,a2
   19302:	0006ce03          	lbu	t3,0(a3)
   19306:	02000313          	li	t1,32
   1930a:	9e3a                	add	t3,t3,a4
   1930c:	41c30333          	sub	t1,t1,t3
   19310:	06031963          	bnez	t1,19382 <__umoddi3+0x160>
   19314:	411585b3          	sub	a1,a1,a7
   19318:	0108d713          	srli	a4,a7,0x10
   1931c:	01089513          	slli	a0,a7,0x10
   19320:	8141                	srli	a0,a0,0x10
   19322:	0107d613          	srli	a2,a5,0x10
   19326:	02e5f6b3          	remu	a3,a1,a4
   1932a:	02e5d5b3          	divu	a1,a1,a4
   1932e:	06c2                	slli	a3,a3,0x10
   19330:	8ed1                	or	a3,a3,a2
   19332:	02b505b3          	mul	a1,a0,a1
   19336:	00b6f863          	bgeu	a3,a1,19346 <__umoddi3+0x124>
   1933a:	96c6                	add	a3,a3,a7
   1933c:	0116e563          	bltu	a3,a7,19346 <__umoddi3+0x124>
   19340:	00b6f363          	bgeu	a3,a1,19346 <__umoddi3+0x124>
   19344:	96c6                	add	a3,a3,a7
   19346:	40b685b3          	sub	a1,a3,a1
   1934a:	02e5f6b3          	remu	a3,a1,a4
   1934e:	07c2                	slli	a5,a5,0x10
   19350:	83c1                	srli	a5,a5,0x10
   19352:	02e5d5b3          	divu	a1,a1,a4
   19356:	02b505b3          	mul	a1,a0,a1
   1935a:	01069513          	slli	a0,a3,0x10
   1935e:	8fc9                	or	a5,a5,a0
   19360:	00b7f863          	bgeu	a5,a1,19370 <__umoddi3+0x14e>
   19364:	97c6                	add	a5,a5,a7
   19366:	0117e563          	bltu	a5,a7,19370 <__umoddi3+0x14e>
   1936a:	00b7f363          	bgeu	a5,a1,19370 <__umoddi3+0x14e>
   1936e:	97c6                	add	a5,a5,a7
   19370:	8f8d                	sub	a5,a5,a1
   19372:	bfb1                	j	192ce <__umoddi3+0xac>
   19374:	01000637          	lui	a2,0x1000
   19378:	4741                	li	a4,16
   1937a:	f8c8e1e3          	bltu	a7,a2,192fc <__umoddi3+0xda>
   1937e:	4761                	li	a4,24
   19380:	bfb5                	j	192fc <__umoddi3+0xda>
   19382:	006898b3          	sll	a7,a7,t1
   19386:	01c5d733          	srl	a4,a1,t3
   1938a:	006517b3          	sll	a5,a0,t1
   1938e:	01c55e33          	srl	t3,a0,t3
   19392:	0108d513          	srli	a0,a7,0x10
   19396:	02a776b3          	remu	a3,a4,a0
   1939a:	006595b3          	sll	a1,a1,t1
   1939e:	00be6e33          	or	t3,t3,a1
   193a2:	01089593          	slli	a1,a7,0x10
   193a6:	81c1                	srli	a1,a1,0x10
   193a8:	010e5613          	srli	a2,t3,0x10
   193ac:	02a75733          	divu	a4,a4,a0
   193b0:	06c2                	slli	a3,a3,0x10
   193b2:	8ed1                	or	a3,a3,a2
   193b4:	02e58733          	mul	a4,a1,a4
   193b8:	00e6f863          	bgeu	a3,a4,193c8 <__umoddi3+0x1a6>
   193bc:	96c6                	add	a3,a3,a7
   193be:	0116e563          	bltu	a3,a7,193c8 <__umoddi3+0x1a6>
   193c2:	00e6f363          	bgeu	a3,a4,193c8 <__umoddi3+0x1a6>
   193c6:	96c6                	add	a3,a3,a7
   193c8:	40e68633          	sub	a2,a3,a4
   193cc:	02a676b3          	remu	a3,a2,a0
   193d0:	0e42                	slli	t3,t3,0x10
   193d2:	010e5e13          	srli	t3,t3,0x10
   193d6:	02a65633          	divu	a2,a2,a0
   193da:	06c2                	slli	a3,a3,0x10
   193dc:	02c58633          	mul	a2,a1,a2
   193e0:	01c6e5b3          	or	a1,a3,t3
   193e4:	00c5f863          	bgeu	a1,a2,193f4 <__umoddi3+0x1d2>
   193e8:	95c6                	add	a1,a1,a7
   193ea:	0115e563          	bltu	a1,a7,193f4 <__umoddi3+0x1d2>
   193ee:	00c5f363          	bgeu	a1,a2,193f4 <__umoddi3+0x1d2>
   193f2:	95c6                	add	a1,a1,a7
   193f4:	8d91                	sub	a1,a1,a2
   193f6:	b70d                	j	19318 <__umoddi3+0xf6>
   193f8:	ecd5eee3          	bltu	a1,a3,192d4 <__umoddi3+0xb2>
   193fc:	6741                	lui	a4,0x10
   193fe:	04e6f463          	bgeu	a3,a4,19446 <__umoddi3+0x224>
   19402:	0ff00e93          	li	t4,255
   19406:	00deb733          	sltu	a4,t4,a3
   1940a:	070e                	slli	a4,a4,0x3
   1940c:	68f5                	lui	a7,0x1d
   1940e:	00e6d333          	srl	t1,a3,a4
   19412:	f6c88893          	addi	a7,a7,-148 # 1cf6c <__clz_tab>
   19416:	989a                	add	a7,a7,t1
   19418:	0008ce83          	lbu	t4,0(a7)
   1941c:	02000e13          	li	t3,32
   19420:	9eba                	add	t4,t4,a4
   19422:	41de0e33          	sub	t3,t3,t4
   19426:	020e1763          	bnez	t3,19454 <__umoddi3+0x232>
   1942a:	00b6e463          	bltu	a3,a1,19432 <__umoddi3+0x210>
   1942e:	00c56963          	bltu	a0,a2,19440 <__umoddi3+0x21e>
   19432:	40c507b3          	sub	a5,a0,a2
   19436:	8d95                	sub	a1,a1,a3
   19438:	00f53533          	sltu	a0,a0,a5
   1943c:	40a58833          	sub	a6,a1,a0
   19440:	853e                	mv	a0,a5
   19442:	85c2                	mv	a1,a6
   19444:	bd41                	j	192d4 <__umoddi3+0xb2>
   19446:	010008b7          	lui	a7,0x1000
   1944a:	4741                	li	a4,16
   1944c:	fd16e0e3          	bltu	a3,a7,1940c <__umoddi3+0x1ea>
   19450:	4761                	li	a4,24
   19452:	bf6d                	j	1940c <__umoddi3+0x1ea>
   19454:	01d65733          	srl	a4,a2,t4
   19458:	01c696b3          	sll	a3,a3,t3
   1945c:	8ed9                	or	a3,a3,a4
   1945e:	01d557b3          	srl	a5,a0,t4
   19462:	01d5d733          	srl	a4,a1,t4
   19466:	01c595b3          	sll	a1,a1,t3
   1946a:	8fcd                	or	a5,a5,a1
   1946c:	0106d593          	srli	a1,a3,0x10
   19470:	02b77333          	remu	t1,a4,a1
   19474:	01069f13          	slli	t5,a3,0x10
   19478:	010f5f13          	srli	t5,t5,0x10
   1947c:	0107d893          	srli	a7,a5,0x10
   19480:	01c61633          	sll	a2,a2,t3
   19484:	01c51533          	sll	a0,a0,t3
   19488:	02b75733          	divu	a4,a4,a1
   1948c:	0342                	slli	t1,t1,0x10
   1948e:	011368b3          	or	a7,t1,a7
   19492:	02ef0833          	mul	a6,t5,a4
   19496:	833a                	mv	t1,a4
   19498:	0108fc63          	bgeu	a7,a6,194b0 <__umoddi3+0x28e>
   1949c:	98b6                	add	a7,a7,a3
   1949e:	fff70313          	addi	t1,a4,-1 # ffff <__stack_chk_init-0x75>
   194a2:	00d8e763          	bltu	a7,a3,194b0 <__umoddi3+0x28e>
   194a6:	0108f563          	bgeu	a7,a6,194b0 <__umoddi3+0x28e>
   194aa:	ffe70313          	addi	t1,a4,-2
   194ae:	98b6                	add	a7,a7,a3
   194b0:	410888b3          	sub	a7,a7,a6
   194b4:	02b8ffb3          	remu	t6,a7,a1
   194b8:	02b8d8b3          	divu	a7,a7,a1
   194bc:	0fc2                	slli	t6,t6,0x10
   194be:	031f05b3          	mul	a1,t5,a7
   194c2:	01079f13          	slli	t5,a5,0x10
   194c6:	010f5f13          	srli	t5,t5,0x10
   194ca:	01efef33          	or	t5,t6,t5
   194ce:	8746                	mv	a4,a7
   194d0:	00bf7c63          	bgeu	t5,a1,194e8 <__umoddi3+0x2c6>
   194d4:	9f36                	add	t5,t5,a3
   194d6:	fff88713          	addi	a4,a7,-1 # ffffff <__BSS_END__+0xfe139b>
   194da:	00df6763          	bltu	t5,a3,194e8 <__umoddi3+0x2c6>
   194de:	00bf7563          	bgeu	t5,a1,194e8 <__umoddi3+0x2c6>
   194e2:	ffe88713          	addi	a4,a7,-2
   194e6:	9f36                	add	t5,t5,a3
   194e8:	0342                	slli	t1,t1,0x10
   194ea:	68c1                	lui	a7,0x10
   194ec:	00e36333          	or	t1,t1,a4
   194f0:	fff88793          	addi	a5,a7,-1 # ffff <__stack_chk_init-0x75>
   194f4:	01065813          	srli	a6,a2,0x10
   194f8:	40bf0f33          	sub	t5,t5,a1
   194fc:	00f375b3          	and	a1,t1,a5
   19500:	01035313          	srli	t1,t1,0x10
   19504:	8ff1                	and	a5,a5,a2
   19506:	02f58733          	mul	a4,a1,a5
   1950a:	02f307b3          	mul	a5,t1,a5
   1950e:	030585b3          	mul	a1,a1,a6
   19512:	03030333          	mul	t1,t1,a6
   19516:	95be                	add	a1,a1,a5
   19518:	01075813          	srli	a6,a4,0x10
   1951c:	982e                	add	a6,a6,a1
   1951e:	00f87363          	bgeu	a6,a5,19524 <__umoddi3+0x302>
   19522:	9346                	add	t1,t1,a7
   19524:	67c1                	lui	a5,0x10
   19526:	17fd                	addi	a5,a5,-1
   19528:	01085593          	srli	a1,a6,0x10
   1952c:	00f87833          	and	a6,a6,a5
   19530:	0842                	slli	a6,a6,0x10
   19532:	8f7d                	and	a4,a4,a5
   19534:	959a                	add	a1,a1,t1
   19536:	9742                	add	a4,a4,a6
   19538:	00bf6663          	bltu	t5,a1,19544 <__umoddi3+0x322>
   1953c:	00bf1b63          	bne	t5,a1,19552 <__umoddi3+0x330>
   19540:	00e57963          	bgeu	a0,a4,19552 <__umoddi3+0x330>
   19544:	40c70633          	sub	a2,a4,a2
   19548:	00c73733          	sltu	a4,a4,a2
   1954c:	8d95                	sub	a1,a1,a3
   1954e:	8d99                	sub	a1,a1,a4
   19550:	8732                	mv	a4,a2
   19552:	40e50733          	sub	a4,a0,a4
   19556:	00e53533          	sltu	a0,a0,a4
   1955a:	40bf05b3          	sub	a1,t5,a1
   1955e:	8d89                	sub	a1,a1,a0
   19560:	01d597b3          	sll	a5,a1,t4
   19564:	01c75733          	srl	a4,a4,t3
   19568:	00e7e533          	or	a0,a5,a4
   1956c:	01c5d5b3          	srl	a1,a1,t3
   19570:	b395                	j	192d4 <__umoddi3+0xb2>

00019572 <__divdf3>:
   19572:	7179                	addi	sp,sp,-48
   19574:	d422                	sw	s0,40(sp)
   19576:	d226                	sw	s1,36(sp)
   19578:	c85a                	sw	s6,16(sp)
   1957a:	842a                	mv	s0,a0
   1957c:	8b2a                	mv	s6,a0
   1957e:	001004b7          	lui	s1,0x100
   19582:	0145d513          	srli	a0,a1,0x14
   19586:	d04a                	sw	s2,32(sp)
   19588:	ce4e                	sw	s3,28(sp)
   1958a:	c65e                	sw	s7,12(sp)
   1958c:	14fd                	addi	s1,s1,-1
   1958e:	d606                	sw	ra,44(sp)
   19590:	cc52                	sw	s4,24(sp)
   19592:	ca56                	sw	s5,20(sp)
   19594:	7ff57513          	andi	a0,a0,2047
   19598:	8bb2                	mv	s7,a2
   1959a:	89b6                	mv	s3,a3
   1959c:	8ced                	and	s1,s1,a1
   1959e:	01f5d913          	srli	s2,a1,0x1f
   195a2:	c149                	beqz	a0,19624 <__divdf3+0xb2>
   195a4:	7ff00793          	li	a5,2047
   195a8:	0cf50963          	beq	a0,a5,1967a <__divdf3+0x108>
   195ac:	048e                	slli	s1,s1,0x3
   195ae:	008006b7          	lui	a3,0x800
   195b2:	8cd5                	or	s1,s1,a3
   195b4:	01db5a93          	srli	s5,s6,0x1d
   195b8:	009aeab3          	or	s5,s5,s1
   195bc:	003b1413          	slli	s0,s6,0x3
   195c0:	c0150a13          	addi	s4,a0,-1023
   195c4:	4b01                	li	s6,0
   195c6:	0149d513          	srli	a0,s3,0x14
   195ca:	001004b7          	lui	s1,0x100
   195ce:	14fd                	addi	s1,s1,-1
   195d0:	7ff57513          	andi	a0,a0,2047
   195d4:	0134f4b3          	and	s1,s1,s3
   195d8:	8fde                	mv	t6,s7
   195da:	01f9d993          	srli	s3,s3,0x1f
   195de:	c161                	beqz	a0,1969e <__divdf3+0x12c>
   195e0:	7ff00793          	li	a5,2047
   195e4:	10f50563          	beq	a0,a5,196ee <__divdf3+0x17c>
   195e8:	008007b7          	lui	a5,0x800
   195ec:	048e                	slli	s1,s1,0x3
   195ee:	8cdd                	or	s1,s1,a5
   195f0:	01dbd793          	srli	a5,s7,0x1d
   195f4:	8fc5                	or	a5,a5,s1
   195f6:	003b9f93          	slli	t6,s7,0x3
   195fa:	c0150513          	addi	a0,a0,-1023
   195fe:	4701                	li	a4,0
   19600:	002b1693          	slli	a3,s6,0x2
   19604:	8ed9                	or	a3,a3,a4
   19606:	16fd                	addi	a3,a3,-1
   19608:	45b9                	li	a1,14
   1960a:	01394633          	xor	a2,s2,s3
   1960e:	40aa0533          	sub	a0,s4,a0
   19612:	0ed5ef63          	bltu	a1,a3,19710 <__divdf3+0x19e>
   19616:	65f5                	lui	a1,0x1d
   19618:	068a                	slli	a3,a3,0x2
   1961a:	eb858593          	addi	a1,a1,-328 # 1ceb8 <zeroes.4409+0x10>
   1961e:	96ae                	add	a3,a3,a1
   19620:	4294                	lw	a3,0(a3)
   19622:	8682                	jr	a3
   19624:	0164eab3          	or	s5,s1,s6
   19628:	060a8263          	beqz	s5,1968c <__divdf3+0x11a>
   1962c:	c89d                	beqz	s1,19662 <__divdf3+0xf0>
   1962e:	8526                	mv	a0,s1
   19630:	2cb020ef          	jal	ra,1c0fa <__clzsi2>
   19634:	ff550793          	addi	a5,a0,-11
   19638:	4771                	li	a4,28
   1963a:	02f74a63          	blt	a4,a5,1966e <__divdf3+0xfc>
   1963e:	4af5                	li	s5,29
   19640:	ff850413          	addi	s0,a0,-8
   19644:	40fa8ab3          	sub	s5,s5,a5
   19648:	008494b3          	sll	s1,s1,s0
   1964c:	015b5ab3          	srl	s5,s6,s5
   19650:	009aeab3          	or	s5,s5,s1
   19654:	008b1433          	sll	s0,s6,s0
   19658:	c0d00a13          	li	s4,-1011
   1965c:	40aa0a33          	sub	s4,s4,a0
   19660:	b795                	j	195c4 <__divdf3+0x52>
   19662:	855a                	mv	a0,s6
   19664:	297020ef          	jal	ra,1c0fa <__clzsi2>
   19668:	02050513          	addi	a0,a0,32
   1966c:	b7e1                	j	19634 <__divdf3+0xc2>
   1966e:	fd850493          	addi	s1,a0,-40
   19672:	009b1ab3          	sll	s5,s6,s1
   19676:	4401                	li	s0,0
   19678:	b7c5                	j	19658 <__divdf3+0xe6>
   1967a:	0164eab3          	or	s5,s1,s6
   1967e:	000a8b63          	beqz	s5,19694 <__divdf3+0x122>
   19682:	8aa6                	mv	s5,s1
   19684:	7ff00a13          	li	s4,2047
   19688:	4b0d                	li	s6,3
   1968a:	bf35                	j	195c6 <__divdf3+0x54>
   1968c:	4401                	li	s0,0
   1968e:	4a01                	li	s4,0
   19690:	4b05                	li	s6,1
   19692:	bf15                	j	195c6 <__divdf3+0x54>
   19694:	4401                	li	s0,0
   19696:	7ff00a13          	li	s4,2047
   1969a:	4b09                	li	s6,2
   1969c:	b72d                	j	195c6 <__divdf3+0x54>
   1969e:	0174e7b3          	or	a5,s1,s7
   196a2:	cfb1                	beqz	a5,196fe <__divdf3+0x18c>
   196a4:	c88d                	beqz	s1,196d6 <__divdf3+0x164>
   196a6:	8526                	mv	a0,s1
   196a8:	253020ef          	jal	ra,1c0fa <__clzsi2>
   196ac:	ff550713          	addi	a4,a0,-11
   196b0:	47f1                	li	a5,28
   196b2:	02e7c863          	blt	a5,a4,196e2 <__divdf3+0x170>
   196b6:	47f5                	li	a5,29
   196b8:	ff850f93          	addi	t6,a0,-8
   196bc:	8f99                	sub	a5,a5,a4
   196be:	01f494b3          	sll	s1,s1,t6
   196c2:	00fbd7b3          	srl	a5,s7,a5
   196c6:	8fc5                	or	a5,a5,s1
   196c8:	01fb9fb3          	sll	t6,s7,t6
   196cc:	c0d00613          	li	a2,-1011
   196d0:	40a60533          	sub	a0,a2,a0
   196d4:	b72d                	j	195fe <__divdf3+0x8c>
   196d6:	855e                	mv	a0,s7
   196d8:	223020ef          	jal	ra,1c0fa <__clzsi2>
   196dc:	02050513          	addi	a0,a0,32
   196e0:	b7f1                	j	196ac <__divdf3+0x13a>
   196e2:	fd850793          	addi	a5,a0,-40
   196e6:	00fb97b3          	sll	a5,s7,a5
   196ea:	4f81                	li	t6,0
   196ec:	b7c5                	j	196cc <__divdf3+0x15a>
   196ee:	0174e7b3          	or	a5,s1,s7
   196f2:	cb91                	beqz	a5,19706 <__divdf3+0x194>
   196f4:	87a6                	mv	a5,s1
   196f6:	7ff00513          	li	a0,2047
   196fa:	470d                	li	a4,3
   196fc:	b711                	j	19600 <__divdf3+0x8e>
   196fe:	4f81                	li	t6,0
   19700:	4501                	li	a0,0
   19702:	4705                	li	a4,1
   19704:	bdf5                	j	19600 <__divdf3+0x8e>
   19706:	4f81                	li	t6,0
   19708:	7ff00513          	li	a0,2047
   1970c:	4709                	li	a4,2
   1970e:	bdcd                	j	19600 <__divdf3+0x8e>
   19710:	0157e663          	bltu	a5,s5,1971c <__divdf3+0x1aa>
   19714:	2afa9663          	bne	s5,a5,199c0 <__divdf3+0x44e>
   19718:	2bf46463          	bltu	s0,t6,199c0 <__divdf3+0x44e>
   1971c:	01fa9593          	slli	a1,s5,0x1f
   19720:	00145693          	srli	a3,s0,0x1
   19724:	01f41713          	slli	a4,s0,0x1f
   19728:	001ada93          	srli	s5,s5,0x1
   1972c:	00d5e433          	or	s0,a1,a3
   19730:	07a2                	slli	a5,a5,0x8
   19732:	018fd813          	srli	a6,t6,0x18
   19736:	00f86833          	or	a6,a6,a5
   1973a:	01085e93          	srli	t4,a6,0x10
   1973e:	03dad5b3          	divu	a1,s5,t4
   19742:	01081e13          	slli	t3,a6,0x10
   19746:	010e5e13          	srli	t3,t3,0x10
   1974a:	01045693          	srli	a3,s0,0x10
   1974e:	008f9893          	slli	a7,t6,0x8
   19752:	03daf4b3          	remu	s1,s5,t4
   19756:	8fae                	mv	t6,a1
   19758:	02be07b3          	mul	a5,t3,a1
   1975c:	04c2                	slli	s1,s1,0x10
   1975e:	8ec5                	or	a3,a3,s1
   19760:	00f6fc63          	bgeu	a3,a5,19778 <__divdf3+0x206>
   19764:	96c2                	add	a3,a3,a6
   19766:	fff58f93          	addi	t6,a1,-1
   1976a:	0106e763          	bltu	a3,a6,19778 <__divdf3+0x206>
   1976e:	00f6f563          	bgeu	a3,a5,19778 <__divdf3+0x206>
   19772:	ffe58f93          	addi	t6,a1,-2
   19776:	96c2                	add	a3,a3,a6
   19778:	8e9d                	sub	a3,a3,a5
   1977a:	03d6d333          	divu	t1,a3,t4
   1977e:	0442                	slli	s0,s0,0x10
   19780:	8041                	srli	s0,s0,0x10
   19782:	03d6f6b3          	remu	a3,a3,t4
   19786:	879a                	mv	a5,t1
   19788:	026e05b3          	mul	a1,t3,t1
   1978c:	06c2                	slli	a3,a3,0x10
   1978e:	8ec1                	or	a3,a3,s0
   19790:	00b6fc63          	bgeu	a3,a1,197a8 <__divdf3+0x236>
   19794:	96c2                	add	a3,a3,a6
   19796:	fff30793          	addi	a5,t1,-1 # ffffff <__BSS_END__+0xfe139b>
   1979a:	0106e763          	bltu	a3,a6,197a8 <__divdf3+0x236>
   1979e:	00b6f563          	bgeu	a3,a1,197a8 <__divdf3+0x236>
   197a2:	ffe30793          	addi	a5,t1,-2
   197a6:	96c2                	add	a3,a3,a6
   197a8:	40b68433          	sub	s0,a3,a1
   197ac:	0fc2                	slli	t6,t6,0x10
   197ae:	65c1                	lui	a1,0x10
   197b0:	00ffefb3          	or	t6,t6,a5
   197b4:	fff58313          	addi	t1,a1,-1 # ffff <__stack_chk_init-0x75>
   197b8:	010fd693          	srli	a3,t6,0x10
   197bc:	006ff7b3          	and	a5,t6,t1
   197c0:	0108df13          	srli	t5,a7,0x10
   197c4:	0068f333          	and	t1,a7,t1
   197c8:	026783b3          	mul	t2,a5,t1
   197cc:	026684b3          	mul	s1,a3,t1
   197d0:	02ff07b3          	mul	a5,t5,a5
   197d4:	03e682b3          	mul	t0,a3,t5
   197d8:	009786b3          	add	a3,a5,s1
   197dc:	0103d793          	srli	a5,t2,0x10
   197e0:	97b6                	add	a5,a5,a3
   197e2:	0097f363          	bgeu	a5,s1,197e8 <__divdf3+0x276>
   197e6:	92ae                	add	t0,t0,a1
   197e8:	0107d693          	srli	a3,a5,0x10
   197ec:	9696                	add	a3,a3,t0
   197ee:	62c1                	lui	t0,0x10
   197f0:	12fd                	addi	t0,t0,-1
   197f2:	0057f5b3          	and	a1,a5,t0
   197f6:	05c2                	slli	a1,a1,0x10
   197f8:	0053f3b3          	and	t2,t2,t0
   197fc:	959e                	add	a1,a1,t2
   197fe:	00d46763          	bltu	s0,a3,1980c <__divdf3+0x29a>
   19802:	87fe                	mv	a5,t6
   19804:	02d41e63          	bne	s0,a3,19840 <__divdf3+0x2ce>
   19808:	02b77c63          	bgeu	a4,a1,19840 <__divdf3+0x2ce>
   1980c:	9746                	add	a4,a4,a7
   1980e:	011732b3          	sltu	t0,a4,a7
   19812:	92c2                	add	t0,t0,a6
   19814:	9416                	add	s0,s0,t0
   19816:	ffff8793          	addi	a5,t6,-1
   1981a:	00886663          	bltu	a6,s0,19826 <__divdf3+0x2b4>
   1981e:	02881163          	bne	a6,s0,19840 <__divdf3+0x2ce>
   19822:	01176f63          	bltu	a4,a7,19840 <__divdf3+0x2ce>
   19826:	00d46663          	bltu	s0,a3,19832 <__divdf3+0x2c0>
   1982a:	00869b63          	bne	a3,s0,19840 <__divdf3+0x2ce>
   1982e:	00b77963          	bgeu	a4,a1,19840 <__divdf3+0x2ce>
   19832:	9746                	add	a4,a4,a7
   19834:	ffef8793          	addi	a5,t6,-2
   19838:	01173fb3          	sltu	t6,a4,a7
   1983c:	9fc2                	add	t6,t6,a6
   1983e:	947e                	add	s0,s0,t6
   19840:	40b705b3          	sub	a1,a4,a1
   19844:	8c15                	sub	s0,s0,a3
   19846:	00b73733          	sltu	a4,a4,a1
   1984a:	8c19                	sub	s0,s0,a4
   1984c:	5ffd                	li	t6,-1
   1984e:	0e880663          	beq	a6,s0,1993a <__divdf3+0x3c8>
   19852:	03d452b3          	divu	t0,s0,t4
   19856:	0105d693          	srli	a3,a1,0x10
   1985a:	03d47433          	remu	s0,s0,t4
   1985e:	8716                	mv	a4,t0
   19860:	025e0fb3          	mul	t6,t3,t0
   19864:	0442                	slli	s0,s0,0x10
   19866:	8c55                	or	s0,s0,a3
   19868:	01f47c63          	bgeu	s0,t6,19880 <__divdf3+0x30e>
   1986c:	9442                	add	s0,s0,a6
   1986e:	fff28713          	addi	a4,t0,-1 # ffff <__stack_chk_init-0x75>
   19872:	01046763          	bltu	s0,a6,19880 <__divdf3+0x30e>
   19876:	01f47563          	bgeu	s0,t6,19880 <__divdf3+0x30e>
   1987a:	ffe28713          	addi	a4,t0,-2
   1987e:	9442                	add	s0,s0,a6
   19880:	41f40433          	sub	s0,s0,t6
   19884:	03d456b3          	divu	a3,s0,t4
   19888:	05c2                	slli	a1,a1,0x10
   1988a:	81c1                	srli	a1,a1,0x10
   1988c:	03d47433          	remu	s0,s0,t4
   19890:	02de0e33          	mul	t3,t3,a3
   19894:	0442                	slli	s0,s0,0x10
   19896:	8c4d                	or	s0,s0,a1
   19898:	85b6                	mv	a1,a3
   1989a:	01c47c63          	bgeu	s0,t3,198b2 <__divdf3+0x340>
   1989e:	9442                	add	s0,s0,a6
   198a0:	fff68593          	addi	a1,a3,-1 # 7fffff <__BSS_END__+0x7e139b>
   198a4:	01046763          	bltu	s0,a6,198b2 <__divdf3+0x340>
   198a8:	01c47563          	bgeu	s0,t3,198b2 <__divdf3+0x340>
   198ac:	ffe68593          	addi	a1,a3,-2
   198b0:	9442                	add	s0,s0,a6
   198b2:	0742                	slli	a4,a4,0x10
   198b4:	8dd9                	or	a1,a1,a4
   198b6:	01059713          	slli	a4,a1,0x10
   198ba:	8341                	srli	a4,a4,0x10
   198bc:	41c40433          	sub	s0,s0,t3
   198c0:	0105de13          	srli	t3,a1,0x10
   198c4:	02670eb3          	mul	t4,a4,t1
   198c8:	026e0333          	mul	t1,t3,t1
   198cc:	03cf0e33          	mul	t3,t5,t3
   198d0:	02ef0f33          	mul	t5,t5,a4
   198d4:	010ed713          	srli	a4,t4,0x10
   198d8:	9f1a                	add	t5,t5,t1
   198da:	977a                	add	a4,a4,t5
   198dc:	00677463          	bgeu	a4,t1,198e4 <__divdf3+0x372>
   198e0:	66c1                	lui	a3,0x10
   198e2:	9e36                	add	t3,t3,a3
   198e4:	01075313          	srli	t1,a4,0x10
   198e8:	9372                	add	t1,t1,t3
   198ea:	6e41                	lui	t3,0x10
   198ec:	1e7d                	addi	t3,t3,-1
   198ee:	01c776b3          	and	a3,a4,t3
   198f2:	06c2                	slli	a3,a3,0x10
   198f4:	01cefeb3          	and	t4,t4,t3
   198f8:	96f6                	add	a3,a3,t4
   198fa:	00646663          	bltu	s0,t1,19906 <__divdf3+0x394>
   198fe:	8fae                	mv	t6,a1
   19900:	02641b63          	bne	s0,t1,19936 <__divdf3+0x3c4>
   19904:	ca9d                	beqz	a3,1993a <__divdf3+0x3c8>
   19906:	9442                	add	s0,s0,a6
   19908:	fff58f93          	addi	t6,a1,-1
   1990c:	03046163          	bltu	s0,a6,1992e <__divdf3+0x3bc>
   19910:	00646663          	bltu	s0,t1,1991c <__divdf3+0x3aa>
   19914:	02641163          	bne	s0,t1,19936 <__divdf3+0x3c4>
   19918:	00d8fd63          	bgeu	a7,a3,19932 <__divdf3+0x3c0>
   1991c:	00189713          	slli	a4,a7,0x1
   19920:	011738b3          	sltu	a7,a4,a7
   19924:	9846                	add	a6,a6,a7
   19926:	ffe58f93          	addi	t6,a1,-2
   1992a:	9442                	add	s0,s0,a6
   1992c:	88ba                	mv	a7,a4
   1992e:	00641463          	bne	s0,t1,19936 <__divdf3+0x3c4>
   19932:	01168463          	beq	a3,a7,1993a <__divdf3+0x3c8>
   19936:	001fef93          	ori	t6,t6,1
   1993a:	3ff50693          	addi	a3,a0,1023
   1993e:	0ad05c63          	blez	a3,199f6 <__divdf3+0x484>
   19942:	007ff713          	andi	a4,t6,7
   19946:	cf01                	beqz	a4,1995e <__divdf3+0x3ec>
   19948:	00fff713          	andi	a4,t6,15
   1994c:	4591                	li	a1,4
   1994e:	00b70863          	beq	a4,a1,1995e <__divdf3+0x3ec>
   19952:	004f8593          	addi	a1,t6,4
   19956:	01f5bfb3          	sltu	t6,a1,t6
   1995a:	97fe                	add	a5,a5,t6
   1995c:	8fae                	mv	t6,a1
   1995e:	00779713          	slli	a4,a5,0x7
   19962:	00075863          	bgez	a4,19972 <__divdf3+0x400>
   19966:	ff000737          	lui	a4,0xff000
   1996a:	177d                	addi	a4,a4,-1
   1996c:	8ff9                	and	a5,a5,a4
   1996e:	40050693          	addi	a3,a0,1024
   19972:	7fe00713          	li	a4,2046
   19976:	10d74b63          	blt	a4,a3,19a8c <__divdf3+0x51a>
   1997a:	01d79713          	slli	a4,a5,0x1d
   1997e:	003fdf93          	srli	t6,t6,0x3
   19982:	01f76733          	or	a4,a4,t6
   19986:	838d                	srli	a5,a5,0x3
   19988:	001005b7          	lui	a1,0x100
   1998c:	15fd                	addi	a1,a1,-1
   1998e:	8fed                	and	a5,a5,a1
   19990:	801005b7          	lui	a1,0x80100
   19994:	15fd                	addi	a1,a1,-1
   19996:	7ff6f693          	andi	a3,a3,2047
   1999a:	06d2                	slli	a3,a3,0x14
   1999c:	8fed                	and	a5,a5,a1
   1999e:	50b2                	lw	ra,44(sp)
   199a0:	5422                	lw	s0,40(sp)
   199a2:	067e                	slli	a2,a2,0x1f
   199a4:	8fd5                	or	a5,a5,a3
   199a6:	00c7e6b3          	or	a3,a5,a2
   199aa:	5492                	lw	s1,36(sp)
   199ac:	5902                	lw	s2,32(sp)
   199ae:	49f2                	lw	s3,28(sp)
   199b0:	4a62                	lw	s4,24(sp)
   199b2:	4ad2                	lw	s5,20(sp)
   199b4:	4b42                	lw	s6,16(sp)
   199b6:	4bb2                	lw	s7,12(sp)
   199b8:	853a                	mv	a0,a4
   199ba:	85b6                	mv	a1,a3
   199bc:	6145                	addi	sp,sp,48
   199be:	8082                	ret
   199c0:	157d                	addi	a0,a0,-1
   199c2:	4701                	li	a4,0
   199c4:	b3b5                	j	19730 <__divdf3+0x1be>
   199c6:	864a                	mv	a2,s2
   199c8:	87d6                	mv	a5,s5
   199ca:	8fa2                	mv	t6,s0
   199cc:	875a                	mv	a4,s6
   199ce:	4689                	li	a3,2
   199d0:	0ad70e63          	beq	a4,a3,19a8c <__divdf3+0x51a>
   199d4:	468d                	li	a3,3
   199d6:	0ad70463          	beq	a4,a3,19a7e <__divdf3+0x50c>
   199da:	4685                	li	a3,1
   199dc:	f4d71fe3          	bne	a4,a3,1993a <__divdf3+0x3c8>
   199e0:	4781                	li	a5,0
   199e2:	4701                	li	a4,0
   199e4:	a0bd                	j	19a52 <__divdf3+0x4e0>
   199e6:	864e                	mv	a2,s3
   199e8:	b7dd                	j	199ce <__divdf3+0x45c>
   199ea:	000807b7          	lui	a5,0x80
   199ee:	4f81                	li	t6,0
   199f0:	4601                	li	a2,0
   199f2:	470d                	li	a4,3
   199f4:	bfe9                	j	199ce <__divdf3+0x45c>
   199f6:	4585                	li	a1,1
   199f8:	8d95                	sub	a1,a1,a3
   199fa:	03800713          	li	a4,56
   199fe:	feb741e3          	blt	a4,a1,199e0 <__divdf3+0x46e>
   19a02:	477d                	li	a4,31
   19a04:	04b74963          	blt	a4,a1,19a56 <__divdf3+0x4e4>
   19a08:	41e50513          	addi	a0,a0,1054
   19a0c:	00a79733          	sll	a4,a5,a0
   19a10:	00bfd6b3          	srl	a3,t6,a1
   19a14:	00af9533          	sll	a0,t6,a0
   19a18:	8f55                	or	a4,a4,a3
   19a1a:	00a03533          	snez	a0,a0
   19a1e:	8f49                	or	a4,a4,a0
   19a20:	00b7d7b3          	srl	a5,a5,a1
   19a24:	00777693          	andi	a3,a4,7
   19a28:	ce81                	beqz	a3,19a40 <__divdf3+0x4ce>
   19a2a:	00f77693          	andi	a3,a4,15
   19a2e:	4591                	li	a1,4
   19a30:	00b68863          	beq	a3,a1,19a40 <__divdf3+0x4ce>
   19a34:	00470693          	addi	a3,a4,4 # ff000004 <__BSS_END__+0xfefe13a0>
   19a38:	00e6b733          	sltu	a4,a3,a4
   19a3c:	97ba                	add	a5,a5,a4
   19a3e:	8736                	mv	a4,a3
   19a40:	00879693          	slli	a3,a5,0x8
   19a44:	0406c963          	bltz	a3,19a96 <__divdf3+0x524>
   19a48:	01d79693          	slli	a3,a5,0x1d
   19a4c:	830d                	srli	a4,a4,0x3
   19a4e:	8f55                	or	a4,a4,a3
   19a50:	838d                	srli	a5,a5,0x3
   19a52:	4681                	li	a3,0
   19a54:	bf15                	j	19988 <__divdf3+0x416>
   19a56:	5705                	li	a4,-31
   19a58:	8f15                	sub	a4,a4,a3
   19a5a:	02000813          	li	a6,32
   19a5e:	00e7d733          	srl	a4,a5,a4
   19a62:	4681                	li	a3,0
   19a64:	01058663          	beq	a1,a6,19a70 <__divdf3+0x4fe>
   19a68:	43e50513          	addi	a0,a0,1086
   19a6c:	00a796b3          	sll	a3,a5,a0
   19a70:	01f6e533          	or	a0,a3,t6
   19a74:	00a03533          	snez	a0,a0
   19a78:	8f49                	or	a4,a4,a0
   19a7a:	4781                	li	a5,0
   19a7c:	b765                	j	19a24 <__divdf3+0x4b2>
   19a7e:	000807b7          	lui	a5,0x80
   19a82:	4701                	li	a4,0
   19a84:	7ff00693          	li	a3,2047
   19a88:	4601                	li	a2,0
   19a8a:	bdfd                	j	19988 <__divdf3+0x416>
   19a8c:	4781                	li	a5,0
   19a8e:	4701                	li	a4,0
   19a90:	7ff00693          	li	a3,2047
   19a94:	bdd5                	j	19988 <__divdf3+0x416>
   19a96:	4781                	li	a5,0
   19a98:	4701                	li	a4,0
   19a9a:	4685                	li	a3,1
   19a9c:	b5f5                	j	19988 <__divdf3+0x416>

00019a9e <__muldf3>:
   19a9e:	7179                	addi	sp,sp,-48
   19aa0:	d04a                	sw	s2,32(sp)
   19aa2:	ca56                	sw	s5,20(sp)
   19aa4:	00100937          	lui	s2,0x100
   19aa8:	0145da93          	srli	s5,a1,0x14
   19aac:	ce4e                	sw	s3,28(sp)
   19aae:	cc52                	sw	s4,24(sp)
   19ab0:	c85a                	sw	s6,16(sp)
   19ab2:	c65e                	sw	s7,12(sp)
   19ab4:	197d                	addi	s2,s2,-1
   19ab6:	d606                	sw	ra,44(sp)
   19ab8:	d422                	sw	s0,40(sp)
   19aba:	d226                	sw	s1,36(sp)
   19abc:	7ffafa93          	andi	s5,s5,2047
   19ac0:	8b2a                	mv	s6,a0
   19ac2:	8bb2                	mv	s7,a2
   19ac4:	8a36                	mv	s4,a3
   19ac6:	00b97933          	and	s2,s2,a1
   19aca:	01f5d993          	srli	s3,a1,0x1f
   19ace:	080a8663          	beqz	s5,19b5a <__muldf3+0xbc>
   19ad2:	7ff00793          	li	a5,2047
   19ad6:	0cfa8b63          	beq	s5,a5,19bac <__muldf3+0x10e>
   19ada:	00800437          	lui	s0,0x800
   19ade:	090e                	slli	s2,s2,0x3
   19ae0:	00896933          	or	s2,s2,s0
   19ae4:	01d55413          	srli	s0,a0,0x1d
   19ae8:	01246433          	or	s0,s0,s2
   19aec:	00351493          	slli	s1,a0,0x3
   19af0:	c01a8a93          	addi	s5,s5,-1023
   19af4:	4b01                	li	s6,0
   19af6:	014a5513          	srli	a0,s4,0x14
   19afa:	00100937          	lui	s2,0x100
   19afe:	197d                	addi	s2,s2,-1
   19b00:	7ff57513          	andi	a0,a0,2047
   19b04:	01497933          	and	s2,s2,s4
   19b08:	875e                	mv	a4,s7
   19b0a:	01fa5a13          	srli	s4,s4,0x1f
   19b0e:	c169                	beqz	a0,19bd0 <__muldf3+0x132>
   19b10:	7ff00793          	li	a5,2047
   19b14:	10f50863          	beq	a0,a5,19c24 <__muldf3+0x186>
   19b18:	008007b7          	lui	a5,0x800
   19b1c:	090e                	slli	s2,s2,0x3
   19b1e:	00f96933          	or	s2,s2,a5
   19b22:	01dbd793          	srli	a5,s7,0x1d
   19b26:	0127e7b3          	or	a5,a5,s2
   19b2a:	003b9713          	slli	a4,s7,0x3
   19b2e:	c0150513          	addi	a0,a0,-1023
   19b32:	4681                	li	a3,0
   19b34:	002b1593          	slli	a1,s6,0x2
   19b38:	8dd5                	or	a1,a1,a3
   19b3a:	9556                	add	a0,a0,s5
   19b3c:	15fd                	addi	a1,a1,-1
   19b3e:	48b9                	li	a7,14
   19b40:	0149c633          	xor	a2,s3,s4
   19b44:	00150813          	addi	a6,a0,1
   19b48:	0eb8ef63          	bltu	a7,a1,19c46 <__muldf3+0x1a8>
   19b4c:	6575                	lui	a0,0x1d
   19b4e:	058a                	slli	a1,a1,0x2
   19b50:	ef450513          	addi	a0,a0,-268 # 1cef4 <zeroes.4409+0x4c>
   19b54:	95aa                	add	a1,a1,a0
   19b56:	418c                	lw	a1,0(a1)
   19b58:	8582                	jr	a1
   19b5a:	00a96433          	or	s0,s2,a0
   19b5e:	c025                	beqz	s0,19bbe <__muldf3+0x120>
   19b60:	02090b63          	beqz	s2,19b96 <__muldf3+0xf8>
   19b64:	854a                	mv	a0,s2
   19b66:	594020ef          	jal	ra,1c0fa <__clzsi2>
   19b6a:	ff550793          	addi	a5,a0,-11
   19b6e:	4771                	li	a4,28
   19b70:	02f74863          	blt	a4,a5,19ba0 <__muldf3+0x102>
   19b74:	4475                	li	s0,29
   19b76:	ff850493          	addi	s1,a0,-8
   19b7a:	8c1d                	sub	s0,s0,a5
   19b7c:	00991933          	sll	s2,s2,s1
   19b80:	008b5433          	srl	s0,s6,s0
   19b84:	01246433          	or	s0,s0,s2
   19b88:	009b14b3          	sll	s1,s6,s1
   19b8c:	c0d00a93          	li	s5,-1011
   19b90:	40aa8ab3          	sub	s5,s5,a0
   19b94:	b785                	j	19af4 <__muldf3+0x56>
   19b96:	564020ef          	jal	ra,1c0fa <__clzsi2>
   19b9a:	02050513          	addi	a0,a0,32
   19b9e:	b7f1                	j	19b6a <__muldf3+0xcc>
   19ba0:	fd850413          	addi	s0,a0,-40
   19ba4:	008b1433          	sll	s0,s6,s0
   19ba8:	4481                	li	s1,0
   19baa:	b7cd                	j	19b8c <__muldf3+0xee>
   19bac:	00a96433          	or	s0,s2,a0
   19bb0:	c819                	beqz	s0,19bc6 <__muldf3+0x128>
   19bb2:	84aa                	mv	s1,a0
   19bb4:	844a                	mv	s0,s2
   19bb6:	7ff00a93          	li	s5,2047
   19bba:	4b0d                	li	s6,3
   19bbc:	bf2d                	j	19af6 <__muldf3+0x58>
   19bbe:	4481                	li	s1,0
   19bc0:	4a81                	li	s5,0
   19bc2:	4b05                	li	s6,1
   19bc4:	bf0d                	j	19af6 <__muldf3+0x58>
   19bc6:	4481                	li	s1,0
   19bc8:	7ff00a93          	li	s5,2047
   19bcc:	4b09                	li	s6,2
   19bce:	b725                	j	19af6 <__muldf3+0x58>
   19bd0:	017967b3          	or	a5,s2,s7
   19bd4:	c3a5                	beqz	a5,19c34 <__muldf3+0x196>
   19bd6:	02090b63          	beqz	s2,19c0c <__muldf3+0x16e>
   19bda:	854a                	mv	a0,s2
   19bdc:	51e020ef          	jal	ra,1c0fa <__clzsi2>
   19be0:	ff550693          	addi	a3,a0,-11
   19be4:	47f1                	li	a5,28
   19be6:	02d7c963          	blt	a5,a3,19c18 <__muldf3+0x17a>
   19bea:	47f5                	li	a5,29
   19bec:	ff850713          	addi	a4,a0,-8
   19bf0:	8f95                	sub	a5,a5,a3
   19bf2:	00e91933          	sll	s2,s2,a4
   19bf6:	00fbd7b3          	srl	a5,s7,a5
   19bfa:	0127e7b3          	or	a5,a5,s2
   19bfe:	00eb9733          	sll	a4,s7,a4
   19c02:	c0d00693          	li	a3,-1011
   19c06:	40a68533          	sub	a0,a3,a0
   19c0a:	b725                	j	19b32 <__muldf3+0x94>
   19c0c:	855e                	mv	a0,s7
   19c0e:	4ec020ef          	jal	ra,1c0fa <__clzsi2>
   19c12:	02050513          	addi	a0,a0,32
   19c16:	b7e9                	j	19be0 <__muldf3+0x142>
   19c18:	fd850793          	addi	a5,a0,-40
   19c1c:	00fb97b3          	sll	a5,s7,a5
   19c20:	4701                	li	a4,0
   19c22:	b7c5                	j	19c02 <__muldf3+0x164>
   19c24:	017967b3          	or	a5,s2,s7
   19c28:	cb91                	beqz	a5,19c3c <__muldf3+0x19e>
   19c2a:	87ca                	mv	a5,s2
   19c2c:	7ff00513          	li	a0,2047
   19c30:	468d                	li	a3,3
   19c32:	b709                	j	19b34 <__muldf3+0x96>
   19c34:	4701                	li	a4,0
   19c36:	4501                	li	a0,0
   19c38:	4685                	li	a3,1
   19c3a:	bded                	j	19b34 <__muldf3+0x96>
   19c3c:	4701                	li	a4,0
   19c3e:	7ff00513          	li	a0,2047
   19c42:	4689                	li	a3,2
   19c44:	bdc5                	j	19b34 <__muldf3+0x96>
   19c46:	6fc1                	lui	t6,0x10
   19c48:	ffff8f13          	addi	t5,t6,-1 # ffff <__stack_chk_init-0x75>
   19c4c:	0104d693          	srli	a3,s1,0x10
   19c50:	01075313          	srli	t1,a4,0x10
   19c54:	01e4f4b3          	and	s1,s1,t5
   19c58:	01e77733          	and	a4,a4,t5
   19c5c:	029308b3          	mul	a7,t1,s1
   19c60:	029705b3          	mul	a1,a4,s1
   19c64:	02e682b3          	mul	t0,a3,a4
   19c68:	00588e33          	add	t3,a7,t0
   19c6c:	0105d893          	srli	a7,a1,0x10
   19c70:	98f2                	add	a7,a7,t3
   19c72:	02668eb3          	mul	t4,a3,t1
   19c76:	0058f363          	bgeu	a7,t0,19c7c <__muldf3+0x1de>
   19c7a:	9efe                	add	t4,t4,t6
   19c7c:	0108d913          	srli	s2,a7,0x10
   19c80:	01e8f8b3          	and	a7,a7,t5
   19c84:	0107df93          	srli	t6,a5,0x10
   19c88:	01e5f5b3          	and	a1,a1,t5
   19c8c:	01e7f3b3          	and	t2,a5,t5
   19c90:	08c2                	slli	a7,a7,0x10
   19c92:	98ae                	add	a7,a7,a1
   19c94:	027687b3          	mul	a5,a3,t2
   19c98:	029385b3          	mul	a1,t2,s1
   19c9c:	029f84b3          	mul	s1,t6,s1
   19ca0:	00f48e33          	add	t3,s1,a5
   19ca4:	0105d493          	srli	s1,a1,0x10
   19ca8:	94f2                	add	s1,s1,t3
   19caa:	03f686b3          	mul	a3,a3,t6
   19cae:	00f4f463          	bgeu	s1,a5,19cb6 <__muldf3+0x218>
   19cb2:	67c1                	lui	a5,0x10
   19cb4:	96be                	add	a3,a3,a5
   19cb6:	0104df13          	srli	t5,s1,0x10
   19cba:	69c1                	lui	s3,0x10
   19cbc:	9f36                	add	t5,t5,a3
   19cbe:	fff98693          	addi	a3,s3,-1 # ffff <__stack_chk_init-0x75>
   19cc2:	8cf5                	and	s1,s1,a3
   19cc4:	8df5                	and	a1,a1,a3
   19cc6:	01045793          	srli	a5,s0,0x10
   19cca:	04c2                	slli	s1,s1,0x10
   19ccc:	8c75                	and	s0,s0,a3
   19cce:	94ae                	add	s1,s1,a1
   19cd0:	028706b3          	mul	a3,a4,s0
   19cd4:	9926                	add	s2,s2,s1
   19cd6:	02e78e33          	mul	t3,a5,a4
   19cda:	028305b3          	mul	a1,t1,s0
   19cde:	02f30733          	mul	a4,t1,a5
   19ce2:	01c58333          	add	t1,a1,t3
   19ce6:	0106d593          	srli	a1,a3,0x10
   19cea:	959a                	add	a1,a1,t1
   19cec:	01c5f363          	bgeu	a1,t3,19cf2 <__muldf3+0x254>
   19cf0:	974e                	add	a4,a4,s3
   19cf2:	0105d313          	srli	t1,a1,0x10
   19cf6:	69c1                	lui	s3,0x10
   19cf8:	00e302b3          	add	t0,t1,a4
   19cfc:	fff98713          	addi	a4,s3,-1 # ffff <__stack_chk_init-0x75>
   19d00:	8df9                	and	a1,a1,a4
   19d02:	8ef9                	and	a3,a3,a4
   19d04:	02838333          	mul	t1,t2,s0
   19d08:	05c2                	slli	a1,a1,0x10
   19d0a:	95b6                	add	a1,a1,a3
   19d0c:	02778733          	mul	a4,a5,t2
   19d10:	028f8433          	mul	s0,t6,s0
   19d14:	02ff8e33          	mul	t3,t6,a5
   19d18:	943a                	add	s0,s0,a4
   19d1a:	01035793          	srli	a5,t1,0x10
   19d1e:	943e                	add	s0,s0,a5
   19d20:	00e47363          	bgeu	s0,a4,19d26 <__muldf3+0x288>
   19d24:	9e4e                	add	t3,t3,s3
   19d26:	67c1                	lui	a5,0x10
   19d28:	17fd                	addi	a5,a5,-1
   19d2a:	00f476b3          	and	a3,s0,a5
   19d2e:	00f37333          	and	t1,t1,a5
   19d32:	06c2                	slli	a3,a3,0x10
   19d34:	9eca                	add	t4,t4,s2
   19d36:	969a                	add	a3,a3,t1
   19d38:	009eb4b3          	sltu	s1,t4,s1
   19d3c:	96fa                	add	a3,a3,t5
   19d3e:	009687b3          	add	a5,a3,s1
   19d42:	9eae                	add	t4,t4,a1
   19d44:	00beb5b3          	sltu	a1,t4,a1
   19d48:	00578333          	add	t1,a5,t0
   19d4c:	00b30fb3          	add	t6,t1,a1
   19d50:	01e6b6b3          	sltu	a3,a3,t5
   19d54:	0097b7b3          	sltu	a5,a5,s1
   19d58:	8fd5                	or	a5,a5,a3
   19d5a:	8041                	srli	s0,s0,0x10
   19d5c:	00533333          	sltu	t1,t1,t0
   19d60:	00bfb5b3          	sltu	a1,t6,a1
   19d64:	97a2                	add	a5,a5,s0
   19d66:	00b365b3          	or	a1,t1,a1
   19d6a:	97ae                	add	a5,a5,a1
   19d6c:	97f2                	add	a5,a5,t3
   19d6e:	017fd713          	srli	a4,t6,0x17
   19d72:	07a6                	slli	a5,a5,0x9
   19d74:	8fd9                	or	a5,a5,a4
   19d76:	009e9713          	slli	a4,t4,0x9
   19d7a:	01176733          	or	a4,a4,a7
   19d7e:	00e03733          	snez	a4,a4
   19d82:	017ede93          	srli	t4,t4,0x17
   19d86:	009f9693          	slli	a3,t6,0x9
   19d8a:	01d76733          	or	a4,a4,t4
   19d8e:	8f55                	or	a4,a4,a3
   19d90:	00779693          	slli	a3,a5,0x7
   19d94:	0a06de63          	bgez	a3,19e50 <__muldf3+0x3b2>
   19d98:	00175693          	srli	a3,a4,0x1
   19d9c:	8b05                	andi	a4,a4,1
   19d9e:	8f55                	or	a4,a4,a3
   19da0:	01f79693          	slli	a3,a5,0x1f
   19da4:	8f55                	or	a4,a4,a3
   19da6:	8385                	srli	a5,a5,0x1
   19da8:	3ff80593          	addi	a1,a6,1023
   19dac:	0ab05463          	blez	a1,19e54 <__muldf3+0x3b6>
   19db0:	00777693          	andi	a3,a4,7
   19db4:	ce81                	beqz	a3,19dcc <__muldf3+0x32e>
   19db6:	00f77693          	andi	a3,a4,15
   19dba:	4511                	li	a0,4
   19dbc:	00a68863          	beq	a3,a0,19dcc <__muldf3+0x32e>
   19dc0:	00470693          	addi	a3,a4,4
   19dc4:	00e6b733          	sltu	a4,a3,a4
   19dc8:	97ba                	add	a5,a5,a4
   19dca:	8736                	mv	a4,a3
   19dcc:	00779693          	slli	a3,a5,0x7
   19dd0:	0006d863          	bgez	a3,19de0 <__muldf3+0x342>
   19dd4:	ff0006b7          	lui	a3,0xff000
   19dd8:	16fd                	addi	a3,a3,-1
   19dda:	8ff5                	and	a5,a5,a3
   19ddc:	40080593          	addi	a1,a6,1024
   19de0:	7fe00693          	li	a3,2046
   19de4:	10b6c263          	blt	a3,a1,19ee8 <__muldf3+0x44a>
   19de8:	00375693          	srli	a3,a4,0x3
   19dec:	01d79713          	slli	a4,a5,0x1d
   19df0:	8f55                	or	a4,a4,a3
   19df2:	838d                	srli	a5,a5,0x3
   19df4:	001006b7          	lui	a3,0x100
   19df8:	16fd                	addi	a3,a3,-1
   19dfa:	8ff5                	and	a5,a5,a3
   19dfc:	7ff5f693          	andi	a3,a1,2047
   19e00:	801005b7          	lui	a1,0x80100
   19e04:	15fd                	addi	a1,a1,-1
   19e06:	06d2                	slli	a3,a3,0x14
   19e08:	8fed                	and	a5,a5,a1
   19e0a:	50b2                	lw	ra,44(sp)
   19e0c:	5422                	lw	s0,40(sp)
   19e0e:	067e                	slli	a2,a2,0x1f
   19e10:	8fd5                	or	a5,a5,a3
   19e12:	00c7e6b3          	or	a3,a5,a2
   19e16:	5492                	lw	s1,36(sp)
   19e18:	5902                	lw	s2,32(sp)
   19e1a:	49f2                	lw	s3,28(sp)
   19e1c:	4a62                	lw	s4,24(sp)
   19e1e:	4ad2                	lw	s5,20(sp)
   19e20:	4b42                	lw	s6,16(sp)
   19e22:	4bb2                	lw	s7,12(sp)
   19e24:	853a                	mv	a0,a4
   19e26:	85b6                	mv	a1,a3
   19e28:	6145                	addi	sp,sp,48
   19e2a:	8082                	ret
   19e2c:	864e                	mv	a2,s3
   19e2e:	87a2                	mv	a5,s0
   19e30:	8726                	mv	a4,s1
   19e32:	86da                	mv	a3,s6
   19e34:	4589                	li	a1,2
   19e36:	0ab68963          	beq	a3,a1,19ee8 <__muldf3+0x44a>
   19e3a:	458d                	li	a1,3
   19e3c:	08b68f63          	beq	a3,a1,19eda <__muldf3+0x43c>
   19e40:	4585                	li	a1,1
   19e42:	f6b693e3          	bne	a3,a1,19da8 <__muldf3+0x30a>
   19e46:	4781                	li	a5,0
   19e48:	4701                	li	a4,0
   19e4a:	a09d                	j	19eb0 <__muldf3+0x412>
   19e4c:	8652                	mv	a2,s4
   19e4e:	b7dd                	j	19e34 <__muldf3+0x396>
   19e50:	882a                	mv	a6,a0
   19e52:	bf99                	j	19da8 <__muldf3+0x30a>
   19e54:	4505                	li	a0,1
   19e56:	8d0d                	sub	a0,a0,a1
   19e58:	03800693          	li	a3,56
   19e5c:	fea6c5e3          	blt	a3,a0,19e46 <__muldf3+0x3a8>
   19e60:	46fd                	li	a3,31
   19e62:	04a6c963          	blt	a3,a0,19eb4 <__muldf3+0x416>
   19e66:	41e80813          	addi	a6,a6,1054
   19e6a:	010796b3          	sll	a3,a5,a6
   19e6e:	00a755b3          	srl	a1,a4,a0
   19e72:	01071733          	sll	a4,a4,a6
   19e76:	8ecd                	or	a3,a3,a1
   19e78:	00e03733          	snez	a4,a4
   19e7c:	8f55                	or	a4,a4,a3
   19e7e:	00a7d7b3          	srl	a5,a5,a0
   19e82:	00777693          	andi	a3,a4,7
   19e86:	ce81                	beqz	a3,19e9e <__muldf3+0x400>
   19e88:	00f77693          	andi	a3,a4,15
   19e8c:	4591                	li	a1,4
   19e8e:	00b68863          	beq	a3,a1,19e9e <__muldf3+0x400>
   19e92:	00470693          	addi	a3,a4,4
   19e96:	00e6b733          	sltu	a4,a3,a4
   19e9a:	97ba                	add	a5,a5,a4
   19e9c:	8736                	mv	a4,a3
   19e9e:	00879693          	slli	a3,a5,0x8
   19ea2:	0406c863          	bltz	a3,19ef2 <__muldf3+0x454>
   19ea6:	01d79693          	slli	a3,a5,0x1d
   19eaa:	830d                	srli	a4,a4,0x3
   19eac:	8f55                	or	a4,a4,a3
   19eae:	838d                	srli	a5,a5,0x3
   19eb0:	4581                	li	a1,0
   19eb2:	b789                	j	19df4 <__muldf3+0x356>
   19eb4:	5685                	li	a3,-31
   19eb6:	8e8d                	sub	a3,a3,a1
   19eb8:	02000893          	li	a7,32
   19ebc:	00d7d6b3          	srl	a3,a5,a3
   19ec0:	4581                	li	a1,0
   19ec2:	01150663          	beq	a0,a7,19ece <__muldf3+0x430>
   19ec6:	43e80813          	addi	a6,a6,1086
   19eca:	010795b3          	sll	a1,a5,a6
   19ece:	8f4d                	or	a4,a4,a1
   19ed0:	00e03733          	snez	a4,a4
   19ed4:	8f55                	or	a4,a4,a3
   19ed6:	4781                	li	a5,0
   19ed8:	b76d                	j	19e82 <__muldf3+0x3e4>
   19eda:	000807b7          	lui	a5,0x80
   19ede:	4701                	li	a4,0
   19ee0:	7ff00593          	li	a1,2047
   19ee4:	4601                	li	a2,0
   19ee6:	b739                	j	19df4 <__muldf3+0x356>
   19ee8:	4781                	li	a5,0
   19eea:	4701                	li	a4,0
   19eec:	7ff00593          	li	a1,2047
   19ef0:	b711                	j	19df4 <__muldf3+0x356>
   19ef2:	4781                	li	a5,0
   19ef4:	4701                	li	a4,0
   19ef6:	4585                	li	a1,1
   19ef8:	bdf5                	j	19df4 <__muldf3+0x356>

00019efa <__eqtf2>:
   19efa:	455c                	lw	a5,12(a0)
   19efc:	0005af03          	lw	t5,0(a1) # 80100000 <__BSS_END__+0x800e139c>
   19f00:	0045af83          	lw	t6,4(a1)
   19f04:	0085a283          	lw	t0,8(a1)
   19f08:	45cc                	lw	a1,12(a1)
   19f0a:	6721                	lui	a4,0x8
   19f0c:	0107d693          	srli	a3,a5,0x10
   19f10:	177d                	addi	a4,a4,-1
   19f12:	01079813          	slli	a6,a5,0x10
   19f16:	01059e93          	slli	t4,a1,0x10
   19f1a:	01f7d613          	srli	a2,a5,0x1f
   19f1e:	8ef9                	and	a3,a3,a4
   19f20:	0105d793          	srli	a5,a1,0x10
   19f24:	1141                	addi	sp,sp,-16
   19f26:	00052883          	lw	a7,0(a0)
   19f2a:	00452303          	lw	t1,4(a0)
   19f2e:	00852e03          	lw	t3,8(a0)
   19f32:	01085813          	srli	a6,a6,0x10
   19f36:	010ede93          	srli	t4,t4,0x10
   19f3a:	8ff9                	and	a5,a5,a4
   19f3c:	81fd                	srli	a1,a1,0x1f
   19f3e:	00e69d63          	bne	a3,a4,19f58 <__eqtf2+0x5e>
   19f42:	0068e733          	or	a4,a7,t1
   19f46:	01c76733          	or	a4,a4,t3
   19f4a:	01076733          	or	a4,a4,a6
   19f4e:	4505                	li	a0,1
   19f50:	e721                	bnez	a4,19f98 <__eqtf2+0x9e>
   19f52:	04d79363          	bne	a5,a3,19f98 <__eqtf2+0x9e>
   19f56:	a019                	j	19f5c <__eqtf2+0x62>
   19f58:	00e79a63          	bne	a5,a4,19f6c <__eqtf2+0x72>
   19f5c:	01ff6733          	or	a4,t5,t6
   19f60:	00576733          	or	a4,a4,t0
   19f64:	01d76733          	or	a4,a4,t4
   19f68:	4505                	li	a0,1
   19f6a:	e71d                	bnez	a4,19f98 <__eqtf2+0x9e>
   19f6c:	4505                	li	a0,1
   19f6e:	02d79563          	bne	a5,a3,19f98 <__eqtf2+0x9e>
   19f72:	03e89363          	bne	a7,t5,19f98 <__eqtf2+0x9e>
   19f76:	03f31163          	bne	t1,t6,19f98 <__eqtf2+0x9e>
   19f7a:	005e1f63          	bne	t3,t0,19f98 <__eqtf2+0x9e>
   19f7e:	01d81d63          	bne	a6,t4,19f98 <__eqtf2+0x9e>
   19f82:	00b60d63          	beq	a2,a1,19f9c <__eqtf2+0xa2>
   19f86:	eb89                	bnez	a5,19f98 <__eqtf2+0x9e>
   19f88:	0068e533          	or	a0,a7,t1
   19f8c:	01c56533          	or	a0,a0,t3
   19f90:	01056533          	or	a0,a0,a6
   19f94:	00a03533          	snez	a0,a0
   19f98:	0141                	addi	sp,sp,16
   19f9a:	8082                	ret
   19f9c:	4501                	li	a0,0
   19f9e:	bfed                	j	19f98 <__eqtf2+0x9e>

00019fa0 <__getf2>:
   19fa0:	455c                	lw	a5,12(a0)
   19fa2:	00c5a883          	lw	a7,12(a1)
   19fa6:	00052f03          	lw	t5,0(a0)
   19faa:	4150                	lw	a2,4(a0)
   19fac:	00852803          	lw	a6,8(a0)
   19fb0:	6521                	lui	a0,0x8
   19fb2:	0107d713          	srli	a4,a5,0x10
   19fb6:	157d                	addi	a0,a0,-1
   19fb8:	01089e93          	slli	t4,a7,0x10
   19fbc:	0108d693          	srli	a3,a7,0x10
   19fc0:	0005a283          	lw	t0,0(a1)
   19fc4:	0045a303          	lw	t1,4(a1)
   19fc8:	0085ae03          	lw	t3,8(a1)
   19fcc:	8f69                	and	a4,a4,a0
   19fce:	01079593          	slli	a1,a5,0x10
   19fd2:	1141                	addi	sp,sp,-16
   19fd4:	81c1                	srli	a1,a1,0x10
   19fd6:	83fd                	srli	a5,a5,0x1f
   19fd8:	010ede93          	srli	t4,t4,0x10
   19fdc:	8ee9                	and	a3,a3,a0
   19fde:	01f8d893          	srli	a7,a7,0x1f
   19fe2:	00a71d63          	bne	a4,a0,19ffc <__getf2+0x5c>
   19fe6:	00cf6fb3          	or	t6,t5,a2
   19fea:	010fefb3          	or	t6,t6,a6
   19fee:	00bfefb3          	or	t6,t6,a1
   19ff2:	5579                	li	a0,-2
   19ff4:	0a0f8763          	beqz	t6,1a0a2 <__getf2+0x102>
   19ff8:	0141                	addi	sp,sp,16
   19ffa:	8082                	ret
   19ffc:	02a69463          	bne	a3,a0,1a024 <__getf2+0x84>
   1a000:	0062efb3          	or	t6,t0,t1
   1a004:	01cfefb3          	or	t6,t6,t3
   1a008:	01dfefb3          	or	t6,t6,t4
   1a00c:	5579                	li	a0,-2
   1a00e:	fe0f95e3          	bnez	t6,19ff8 <__getf2+0x58>
   1a012:	eb1d                	bnez	a4,1a048 <__getf2+0xa8>
   1a014:	00cf6533          	or	a0,t5,a2
   1a018:	01056533          	or	a0,a0,a6
   1a01c:	8d4d                	or	a0,a0,a1
   1a01e:	00153513          	seqz	a0,a0
   1a022:	a015                	j	1a046 <__getf2+0xa6>
   1a024:	e349                	bnez	a4,1a0a6 <__getf2+0x106>
   1a026:	00cf6533          	or	a0,t5,a2
   1a02a:	01056533          	or	a0,a0,a6
   1a02e:	8d4d                	or	a0,a0,a1
   1a030:	00153513          	seqz	a0,a0
   1a034:	ea89                	bnez	a3,1a046 <__getf2+0xa6>
   1a036:	0062efb3          	or	t6,t0,t1
   1a03a:	01cfefb3          	or	t6,t6,t3
   1a03e:	01dfefb3          	or	t6,t6,t4
   1a042:	040f8e63          	beqz	t6,1a09e <__getf2+0xfe>
   1a046:	e511                	bnez	a0,1a052 <__getf2+0xb2>
   1a048:	01178963          	beq	a5,a7,1a05a <__getf2+0xba>
   1a04c:	4505                	li	a0,1
   1a04e:	d7cd                	beqz	a5,19ff8 <__getf2+0x58>
   1a050:	a019                	j	1a056 <__getf2+0xb6>
   1a052:	fa0893e3          	bnez	a7,19ff8 <__getf2+0x58>
   1a056:	557d                	li	a0,-1
   1a058:	b745                	j	19ff8 <__getf2+0x58>
   1a05a:	fee6c9e3          	blt	a3,a4,1a04c <__getf2+0xac>
   1a05e:	00d75663          	bge	a4,a3,1a06a <__getf2+0xca>
   1a062:	557d                	li	a0,-1
   1a064:	dbd1                	beqz	a5,19ff8 <__getf2+0x58>
   1a066:	4505                	li	a0,1
   1a068:	bf41                	j	19ff8 <__getf2+0x58>
   1a06a:	febee1e3          	bltu	t4,a1,1a04c <__getf2+0xac>
   1a06e:	03d59463          	bne	a1,t4,1a096 <__getf2+0xf6>
   1a072:	fd0e6de3          	bltu	t3,a6,1a04c <__getf2+0xac>
   1a076:	03c81b63          	bne	a6,t3,1a0ac <__getf2+0x10c>
   1a07a:	fcc369e3          	bltu	t1,a2,1a04c <__getf2+0xac>
   1a07e:	00661463          	bne	a2,t1,1a086 <__getf2+0xe6>
   1a082:	fde2e5e3          	bltu	t0,t5,1a04c <__getf2+0xac>
   1a086:	fc666ee3          	bltu	a2,t1,1a062 <__getf2+0xc2>
   1a08a:	4501                	li	a0,0
   1a08c:	f66616e3          	bne	a2,t1,19ff8 <__getf2+0x58>
   1a090:	fc5f69e3          	bltu	t5,t0,1a062 <__getf2+0xc2>
   1a094:	b795                	j	19ff8 <__getf2+0x58>
   1a096:	fdd5e6e3          	bltu	a1,t4,1a062 <__getf2+0xc2>
   1a09a:	4501                	li	a0,0
   1a09c:	bfb1                	j	19ff8 <__getf2+0x58>
   1a09e:	fd75                	bnez	a0,1a09a <__getf2+0xfa>
   1a0a0:	b775                	j	1a04c <__getf2+0xac>
   1a0a2:	f4e68fe3          	beq	a3,a4,1a000 <__getf2+0x60>
   1a0a6:	4501                	li	a0,0
   1a0a8:	d6d9                	beqz	a3,1a036 <__getf2+0x96>
   1a0aa:	bf79                	j	1a048 <__getf2+0xa8>
   1a0ac:	fbc86be3          	bltu	a6,t3,1a062 <__getf2+0xc2>
   1a0b0:	b7ed                	j	1a09a <__getf2+0xfa>

0001a0b2 <__letf2>:
   1a0b2:	455c                	lw	a5,12(a0)
   1a0b4:	00c5a883          	lw	a7,12(a1)
   1a0b8:	00052f03          	lw	t5,0(a0) # 8000 <__stack_chk_init-0x8074>
   1a0bc:	4150                	lw	a2,4(a0)
   1a0be:	00852803          	lw	a6,8(a0)
   1a0c2:	6521                	lui	a0,0x8
   1a0c4:	0107d713          	srli	a4,a5,0x10
   1a0c8:	157d                	addi	a0,a0,-1
   1a0ca:	01089e93          	slli	t4,a7,0x10
   1a0ce:	0108d693          	srli	a3,a7,0x10
   1a0d2:	0005a283          	lw	t0,0(a1)
   1a0d6:	0045a303          	lw	t1,4(a1)
   1a0da:	0085ae03          	lw	t3,8(a1)
   1a0de:	8f69                	and	a4,a4,a0
   1a0e0:	01079593          	slli	a1,a5,0x10
   1a0e4:	1141                	addi	sp,sp,-16
   1a0e6:	81c1                	srli	a1,a1,0x10
   1a0e8:	83fd                	srli	a5,a5,0x1f
   1a0ea:	010ede93          	srli	t4,t4,0x10
   1a0ee:	8ee9                	and	a3,a3,a0
   1a0f0:	01f8d893          	srli	a7,a7,0x1f
   1a0f4:	00a71d63          	bne	a4,a0,1a10e <__letf2+0x5c>
   1a0f8:	00cf6fb3          	or	t6,t5,a2
   1a0fc:	010fefb3          	or	t6,t6,a6
   1a100:	00bfefb3          	or	t6,t6,a1
   1a104:	4509                	li	a0,2
   1a106:	0a0f8763          	beqz	t6,1a1b4 <__letf2+0x102>
   1a10a:	0141                	addi	sp,sp,16
   1a10c:	8082                	ret
   1a10e:	02a69463          	bne	a3,a0,1a136 <__letf2+0x84>
   1a112:	0062efb3          	or	t6,t0,t1
   1a116:	01cfefb3          	or	t6,t6,t3
   1a11a:	01dfefb3          	or	t6,t6,t4
   1a11e:	4509                	li	a0,2
   1a120:	fe0f95e3          	bnez	t6,1a10a <__letf2+0x58>
   1a124:	eb1d                	bnez	a4,1a15a <__letf2+0xa8>
   1a126:	00cf6533          	or	a0,t5,a2
   1a12a:	01056533          	or	a0,a0,a6
   1a12e:	8d4d                	or	a0,a0,a1
   1a130:	00153513          	seqz	a0,a0
   1a134:	a015                	j	1a158 <__letf2+0xa6>
   1a136:	e349                	bnez	a4,1a1b8 <__letf2+0x106>
   1a138:	00cf6533          	or	a0,t5,a2
   1a13c:	01056533          	or	a0,a0,a6
   1a140:	8d4d                	or	a0,a0,a1
   1a142:	00153513          	seqz	a0,a0
   1a146:	ea89                	bnez	a3,1a158 <__letf2+0xa6>
   1a148:	0062efb3          	or	t6,t0,t1
   1a14c:	01cfefb3          	or	t6,t6,t3
   1a150:	01dfefb3          	or	t6,t6,t4
   1a154:	040f8e63          	beqz	t6,1a1b0 <__letf2+0xfe>
   1a158:	e511                	bnez	a0,1a164 <__letf2+0xb2>
   1a15a:	01178963          	beq	a5,a7,1a16c <__letf2+0xba>
   1a15e:	4505                	li	a0,1
   1a160:	d7cd                	beqz	a5,1a10a <__letf2+0x58>
   1a162:	a019                	j	1a168 <__letf2+0xb6>
   1a164:	fa0893e3          	bnez	a7,1a10a <__letf2+0x58>
   1a168:	557d                	li	a0,-1
   1a16a:	b745                	j	1a10a <__letf2+0x58>
   1a16c:	fee6c9e3          	blt	a3,a4,1a15e <__letf2+0xac>
   1a170:	00d75663          	bge	a4,a3,1a17c <__letf2+0xca>
   1a174:	557d                	li	a0,-1
   1a176:	dbd1                	beqz	a5,1a10a <__letf2+0x58>
   1a178:	4505                	li	a0,1
   1a17a:	bf41                	j	1a10a <__letf2+0x58>
   1a17c:	febee1e3          	bltu	t4,a1,1a15e <__letf2+0xac>
   1a180:	03d59463          	bne	a1,t4,1a1a8 <__letf2+0xf6>
   1a184:	fd0e6de3          	bltu	t3,a6,1a15e <__letf2+0xac>
   1a188:	03c81b63          	bne	a6,t3,1a1be <__letf2+0x10c>
   1a18c:	fcc369e3          	bltu	t1,a2,1a15e <__letf2+0xac>
   1a190:	00661463          	bne	a2,t1,1a198 <__letf2+0xe6>
   1a194:	fde2e5e3          	bltu	t0,t5,1a15e <__letf2+0xac>
   1a198:	fc666ee3          	bltu	a2,t1,1a174 <__letf2+0xc2>
   1a19c:	4501                	li	a0,0
   1a19e:	f66616e3          	bne	a2,t1,1a10a <__letf2+0x58>
   1a1a2:	fc5f69e3          	bltu	t5,t0,1a174 <__letf2+0xc2>
   1a1a6:	b795                	j	1a10a <__letf2+0x58>
   1a1a8:	fdd5e6e3          	bltu	a1,t4,1a174 <__letf2+0xc2>
   1a1ac:	4501                	li	a0,0
   1a1ae:	bfb1                	j	1a10a <__letf2+0x58>
   1a1b0:	fd75                	bnez	a0,1a1ac <__letf2+0xfa>
   1a1b2:	b775                	j	1a15e <__letf2+0xac>
   1a1b4:	f4e68fe3          	beq	a3,a4,1a112 <__letf2+0x60>
   1a1b8:	4501                	li	a0,0
   1a1ba:	d6d9                	beqz	a3,1a148 <__letf2+0x96>
   1a1bc:	bf79                	j	1a15a <__letf2+0xa8>
   1a1be:	fbc86be3          	bltu	a6,t3,1a174 <__letf2+0xc2>
   1a1c2:	b7ed                	j	1a1ac <__letf2+0xfa>

0001a1c4 <__multf3>:
   1a1c4:	7131                	addi	sp,sp,-192
   1a1c6:	d74e                	sw	s3,172(sp)
   1a1c8:	00c5a983          	lw	s3,12(a1)
   1a1cc:	4194                	lw	a3,0(a1)
   1a1ce:	41dc                	lw	a5,4(a1)
   1a1d0:	c62a                	sw	a0,12(sp)
   1a1d2:	4588                	lw	a0,8(a1)
   1a1d4:	01099713          	slli	a4,s3,0x10
   1a1d8:	d94a                	sw	s2,176(sp)
   1a1da:	d552                	sw	s4,168(sp)
   1a1dc:	d356                	sw	s5,164(sp)
   1a1de:	d15a                	sw	s6,160(sp)
   1a1e0:	00062a03          	lw	s4,0(a2) # 1000000 <__BSS_END__+0xfe139c>
   1a1e4:	00462b03          	lw	s6,4(a2)
   1a1e8:	00862a83          	lw	s5,8(a2)
   1a1ec:	00c62903          	lw	s2,12(a2)
   1a1f0:	6621                	lui	a2,0x8
   1a1f2:	db26                	sw	s1,180(sp)
   1a1f4:	8341                	srli	a4,a4,0x10
   1a1f6:	0109d493          	srli	s1,s3,0x10
   1a1fa:	167d                	addi	a2,a2,-1
   1a1fc:	d6ce                	sw	s3,108(sp)
   1a1fe:	df06                	sw	ra,188(sp)
   1a200:	dd22                	sw	s0,184(sp)
   1a202:	cf5e                	sw	s7,156(sp)
   1a204:	cd62                	sw	s8,152(sp)
   1a206:	cb66                	sw	s9,148(sp)
   1a208:	c96a                	sw	s10,144(sp)
   1a20a:	c76e                	sw	s11,140(sp)
   1a20c:	d0b6                	sw	a3,96(sp)
   1a20e:	d2be                	sw	a5,100(sp)
   1a210:	d4aa                	sw	a0,104(sp)
   1a212:	d836                	sw	a3,48(sp)
   1a214:	da3e                	sw	a5,52(sp)
   1a216:	dc2a                	sw	a0,56(sp)
   1a218:	de3a                	sw	a4,60(sp)
   1a21a:	8cf1                	and	s1,s1,a2
   1a21c:	01f9d993          	srli	s3,s3,0x1f
   1a220:	ccc5                	beqz	s1,1a2d8 <__multf3+0x114>
   1a222:	18c48363          	beq	s1,a2,1a3a8 <__multf3+0x1e4>
   1a226:	67c1                	lui	a5,0x10
   1a228:	8fd9                	or	a5,a5,a4
   1a22a:	de3e                	sw	a5,60(sp)
   1a22c:	1810                	addi	a2,sp,48
   1a22e:	187c                	addi	a5,sp,60
   1a230:	4398                	lw	a4,0(a5)
   1a232:	ffc7a683          	lw	a3,-4(a5) # fffc <__stack_chk_init-0x78>
   1a236:	17f1                	addi	a5,a5,-4
   1a238:	070e                	slli	a4,a4,0x3
   1a23a:	82f5                	srli	a3,a3,0x1d
   1a23c:	8f55                	or	a4,a4,a3
   1a23e:	c3d8                	sw	a4,4(a5)
   1a240:	fef618e3          	bne	a2,a5,1a230 <__multf3+0x6c>
   1a244:	57c2                	lw	a5,48(sp)
   1a246:	7571                	lui	a0,0xffffc
   1a248:	0505                	addi	a0,a0,1
   1a24a:	078e                	slli	a5,a5,0x3
   1a24c:	d83e                	sw	a5,48(sp)
   1a24e:	94aa                	add	s1,s1,a0
   1a250:	4b81                	li	s7,0
   1a252:	01091793          	slli	a5,s2,0x10
   1a256:	6721                	lui	a4,0x8
   1a258:	01095513          	srli	a0,s2,0x10
   1a25c:	83c1                	srli	a5,a5,0x10
   1a25e:	177d                	addi	a4,a4,-1
   1a260:	d6ca                	sw	s2,108(sp)
   1a262:	d0d2                	sw	s4,96(sp)
   1a264:	d2da                	sw	s6,100(sp)
   1a266:	d4d6                	sw	s5,104(sp)
   1a268:	c0d2                	sw	s4,64(sp)
   1a26a:	c2da                	sw	s6,68(sp)
   1a26c:	c4d6                	sw	s5,72(sp)
   1a26e:	c6be                	sw	a5,76(sp)
   1a270:	8d79                	and	a0,a0,a4
   1a272:	01f95913          	srli	s2,s2,0x1f
   1a276:	14050463          	beqz	a0,1a3be <__multf3+0x1fa>
   1a27a:	20e50f63          	beq	a0,a4,1a498 <__multf3+0x2d4>
   1a27e:	6ac1                	lui	s5,0x10
   1a280:	0157eab3          	or	s5,a5,s5
   1a284:	c6d6                	sw	s5,76(sp)
   1a286:	0090                	addi	a2,sp,64
   1a288:	00fc                	addi	a5,sp,76
   1a28a:	4398                	lw	a4,0(a5)
   1a28c:	ffc7a683          	lw	a3,-4(a5)
   1a290:	17f1                	addi	a5,a5,-4
   1a292:	070e                	slli	a4,a4,0x3
   1a294:	82f5                	srli	a3,a3,0x1d
   1a296:	8f55                	or	a4,a4,a3
   1a298:	c3d8                	sw	a4,4(a5)
   1a29a:	fef618e3          	bne	a2,a5,1a28a <__multf3+0xc6>
   1a29e:	4786                	lw	a5,64(sp)
   1a2a0:	078e                	slli	a5,a5,0x3
   1a2a2:	c0be                	sw	a5,64(sp)
   1a2a4:	77f1                	lui	a5,0xffffc
   1a2a6:	0785                	addi	a5,a5,1
   1a2a8:	953e                	add	a0,a0,a5
   1a2aa:	4701                	li	a4,0
   1a2ac:	0129c7b3          	xor	a5,s3,s2
   1a2b0:	c83e                	sw	a5,16(sp)
   1a2b2:	009507b3          	add	a5,a0,s1
   1a2b6:	d03e                	sw	a5,32(sp)
   1a2b8:	0785                	addi	a5,a5,1
   1a2ba:	ce3e                	sw	a5,28(sp)
   1a2bc:	002b9793          	slli	a5,s7,0x2
   1a2c0:	8fd9                	or	a5,a5,a4
   1a2c2:	17fd                	addi	a5,a5,-1
   1a2c4:	46b9                	li	a3,14
   1a2c6:	1ef6e763          	bltu	a3,a5,1a4b4 <__multf3+0x2f0>
   1a2ca:	66f5                	lui	a3,0x1d
   1a2cc:	078a                	slli	a5,a5,0x2
   1a2ce:	f3068693          	addi	a3,a3,-208 # 1cf30 <zeroes.4409+0x88>
   1a2d2:	97b6                	add	a5,a5,a3
   1a2d4:	439c                	lw	a5,0(a5)
   1a2d6:	8782                	jr	a5
   1a2d8:	00d7e633          	or	a2,a5,a3
   1a2dc:	8e49                	or	a2,a2,a0
   1a2de:	8e59                	or	a2,a2,a4
   1a2e0:	ce61                	beqz	a2,1a3b8 <__multf3+0x1f4>
   1a2e2:	c329                	beqz	a4,1a324 <__multf3+0x160>
   1a2e4:	853a                	mv	a0,a4
   1a2e6:	615010ef          	jal	ra,1c0fa <__clzsi2>
   1a2ea:	ff450713          	addi	a4,a0,-12 # ffffbff4 <__BSS_END__+0xfffdd390>
   1a2ee:	40575793          	srai	a5,a4,0x5
   1a2f2:	8b7d                	andi	a4,a4,31
   1a2f4:	cb39                	beqz	a4,1a34a <__multf3+0x186>
   1a2f6:	56f1                	li	a3,-4
   1a2f8:	02d786b3          	mul	a3,a5,a3
   1a2fc:	02000813          	li	a6,32
   1a300:	00279593          	slli	a1,a5,0x2
   1a304:	5e41                	li	t3,-16
   1a306:	40e80833          	sub	a6,a6,a4
   1a30a:	16f1                	addi	a3,a3,-4
   1a30c:	05c69e63          	bne	a3,t3,1a368 <__multf3+0x1a4>
   1a310:	0114                	addi	a3,sp,128
   1a312:	95b6                	add	a1,a1,a3
   1a314:	56c2                	lw	a3,48(sp)
   1a316:	17fd                	addi	a5,a5,-1
   1a318:	00e69733          	sll	a4,a3,a4
   1a31c:	fae5a823          	sw	a4,-80(a1)
   1a320:	56fd                	li	a3,-1
   1a322:	a8ad                	j	1a39c <__multf3+0x1d8>
   1a324:	c511                	beqz	a0,1a330 <__multf3+0x16c>
   1a326:	5d5010ef          	jal	ra,1c0fa <__clzsi2>
   1a32a:	02050513          	addi	a0,a0,32
   1a32e:	bf75                	j	1a2ea <__multf3+0x126>
   1a330:	c799                	beqz	a5,1a33e <__multf3+0x17a>
   1a332:	853e                	mv	a0,a5
   1a334:	5c7010ef          	jal	ra,1c0fa <__clzsi2>
   1a338:	04050513          	addi	a0,a0,64
   1a33c:	b77d                	j	1a2ea <__multf3+0x126>
   1a33e:	8536                	mv	a0,a3
   1a340:	5bb010ef          	jal	ra,1c0fa <__clzsi2>
   1a344:	06050513          	addi	a0,a0,96
   1a348:	b74d                	j	1a2ea <__multf3+0x126>
   1a34a:	5671                	li	a2,-4
   1a34c:	02c78633          	mul	a2,a5,a2
   1a350:	1818                	addi	a4,sp,48
   1a352:	468d                	li	a3,3
   1a354:	00c705b3          	add	a1,a4,a2
   1a358:	45cc                	lw	a1,12(a1)
   1a35a:	16fd                	addi	a3,a3,-1
   1a35c:	1771                	addi	a4,a4,-4
   1a35e:	cb0c                	sw	a1,16(a4)
   1a360:	fef6dae3          	bge	a3,a5,1a354 <__multf3+0x190>
   1a364:	17fd                	addi	a5,a5,-1
   1a366:	bf6d                	j	1a320 <__multf3+0x15c>
   1a368:	1810                	addi	a2,sp,48
   1a36a:	00d60333          	add	t1,a2,a3
   1a36e:	00d588b3          	add	a7,a1,a3
   1a372:	98b2                	add	a7,a7,a2
   1a374:	00c32603          	lw	a2,12(t1)
   1a378:	01032303          	lw	t1,16(t1)
   1a37c:	01065633          	srl	a2,a2,a6
   1a380:	00e31333          	sll	t1,t1,a4
   1a384:	00666633          	or	a2,a2,t1
   1a388:	00c8a823          	sw	a2,16(a7)
   1a38c:	bfbd                	j	1a30a <__multf3+0x146>
   1a38e:	00279713          	slli	a4,a5,0x2
   1a392:	1810                	addi	a2,sp,48
   1a394:	9732                	add	a4,a4,a2
   1a396:	00072023          	sw	zero,0(a4) # 8000 <__stack_chk_init-0x8074>
   1a39a:	17fd                	addi	a5,a5,-1
   1a39c:	fed799e3          	bne	a5,a3,1a38e <__multf3+0x1ca>
   1a3a0:	74f1                	lui	s1,0xffffc
   1a3a2:	04c5                	addi	s1,s1,17
   1a3a4:	8c89                	sub	s1,s1,a0
   1a3a6:	b56d                	j	1a250 <__multf3+0x8c>
   1a3a8:	8fd5                	or	a5,a5,a3
   1a3aa:	8fc9                	or	a5,a5,a0
   1a3ac:	8fd9                	or	a5,a5,a4
   1a3ae:	4b89                	li	s7,2
   1a3b0:	ea0781e3          	beqz	a5,1a252 <__multf3+0x8e>
   1a3b4:	4b8d                	li	s7,3
   1a3b6:	bd71                	j	1a252 <__multf3+0x8e>
   1a3b8:	4481                	li	s1,0
   1a3ba:	4b85                	li	s7,1
   1a3bc:	bd59                	j	1a252 <__multf3+0x8e>
   1a3be:	016a6733          	or	a4,s4,s6
   1a3c2:	01576733          	or	a4,a4,s5
   1a3c6:	8f5d                	or	a4,a4,a5
   1a3c8:	c37d                	beqz	a4,1a4ae <__multf3+0x2ea>
   1a3ca:	c3a9                	beqz	a5,1a40c <__multf3+0x248>
   1a3cc:	853e                	mv	a0,a5
   1a3ce:	52d010ef          	jal	ra,1c0fa <__clzsi2>
   1a3d2:	ff450713          	addi	a4,a0,-12
   1a3d6:	40575793          	srai	a5,a4,0x5
   1a3da:	8b7d                	andi	a4,a4,31
   1a3dc:	cf31                	beqz	a4,1a438 <__multf3+0x274>
   1a3de:	56f1                	li	a3,-4
   1a3e0:	02d786b3          	mul	a3,a5,a3
   1a3e4:	02000813          	li	a6,32
   1a3e8:	00279593          	slli	a1,a5,0x2
   1a3ec:	5e41                	li	t3,-16
   1a3ee:	40e80833          	sub	a6,a6,a4
   1a3f2:	16f1                	addi	a3,a3,-4
   1a3f4:	07c69163          	bne	a3,t3,1a456 <__multf3+0x292>
   1a3f8:	0114                	addi	a3,sp,128
   1a3fa:	95b6                	add	a1,a1,a3
   1a3fc:	4686                	lw	a3,64(sp)
   1a3fe:	17fd                	addi	a5,a5,-1
   1a400:	00e69733          	sll	a4,a3,a4
   1a404:	fce5a023          	sw	a4,-64(a1)
   1a408:	56fd                	li	a3,-1
   1a40a:	a041                	j	1a48a <__multf3+0x2c6>
   1a40c:	000a8863          	beqz	s5,1a41c <__multf3+0x258>
   1a410:	8556                	mv	a0,s5
   1a412:	4e9010ef          	jal	ra,1c0fa <__clzsi2>
   1a416:	02050513          	addi	a0,a0,32
   1a41a:	bf65                	j	1a3d2 <__multf3+0x20e>
   1a41c:	000b0863          	beqz	s6,1a42c <__multf3+0x268>
   1a420:	855a                	mv	a0,s6
   1a422:	4d9010ef          	jal	ra,1c0fa <__clzsi2>
   1a426:	04050513          	addi	a0,a0,64
   1a42a:	b765                	j	1a3d2 <__multf3+0x20e>
   1a42c:	8552                	mv	a0,s4
   1a42e:	4cd010ef          	jal	ra,1c0fa <__clzsi2>
   1a432:	06050513          	addi	a0,a0,96
   1a436:	bf71                	j	1a3d2 <__multf3+0x20e>
   1a438:	5671                	li	a2,-4
   1a43a:	02c78633          	mul	a2,a5,a2
   1a43e:	0098                	addi	a4,sp,64
   1a440:	468d                	li	a3,3
   1a442:	00c705b3          	add	a1,a4,a2
   1a446:	45cc                	lw	a1,12(a1)
   1a448:	16fd                	addi	a3,a3,-1
   1a44a:	1771                	addi	a4,a4,-4
   1a44c:	cb0c                	sw	a1,16(a4)
   1a44e:	fef6dae3          	bge	a3,a5,1a442 <__multf3+0x27e>
   1a452:	17fd                	addi	a5,a5,-1
   1a454:	bf55                	j	1a408 <__multf3+0x244>
   1a456:	0090                	addi	a2,sp,64
   1a458:	00d60333          	add	t1,a2,a3
   1a45c:	00d588b3          	add	a7,a1,a3
   1a460:	98b2                	add	a7,a7,a2
   1a462:	00c32603          	lw	a2,12(t1)
   1a466:	01032303          	lw	t1,16(t1)
   1a46a:	01065633          	srl	a2,a2,a6
   1a46e:	00e31333          	sll	t1,t1,a4
   1a472:	00666633          	or	a2,a2,t1
   1a476:	00c8a823          	sw	a2,16(a7)
   1a47a:	bfa5                	j	1a3f2 <__multf3+0x22e>
   1a47c:	00279713          	slli	a4,a5,0x2
   1a480:	0090                	addi	a2,sp,64
   1a482:	9732                	add	a4,a4,a2
   1a484:	00072023          	sw	zero,0(a4)
   1a488:	17fd                	addi	a5,a5,-1
   1a48a:	fed799e3          	bne	a5,a3,1a47c <__multf3+0x2b8>
   1a48e:	77f1                	lui	a5,0xffffc
   1a490:	07c5                	addi	a5,a5,17
   1a492:	40a78533          	sub	a0,a5,a0
   1a496:	bd11                	j	1a2aa <__multf3+0xe6>
   1a498:	016a6a33          	or	s4,s4,s6
   1a49c:	015a6ab3          	or	s5,s4,s5
   1a4a0:	00faeab3          	or	s5,s5,a5
   1a4a4:	4709                	li	a4,2
   1a4a6:	e00a83e3          	beqz	s5,1a2ac <__multf3+0xe8>
   1a4aa:	470d                	li	a4,3
   1a4ac:	b501                	j	1a2ac <__multf3+0xe8>
   1a4ae:	4501                	li	a0,0
   1a4b0:	4705                	li	a4,1
   1a4b2:	bbed                	j	1a2ac <__multf3+0xe8>
   1a4b4:	5742                	lw	a4,48(sp)
   1a4b6:	4e06                	lw	t3,64(sp)
   1a4b8:	6541                	lui	a0,0x10
   1a4ba:	fff50693          	addi	a3,a0,-1 # ffff <__stack_chk_init-0x75>
   1a4be:	01075f93          	srli	t6,a4,0x10
   1a4c2:	010e5a93          	srli	s5,t3,0x10
   1a4c6:	8f75                	and	a4,a4,a3
   1a4c8:	00de7e33          	and	t3,t3,a3
   1a4cc:	02ea87b3          	mul	a5,s5,a4
   1a4d0:	02ee0633          	mul	a2,t3,a4
   1a4d4:	03cf8833          	mul	a6,t6,t3
   1a4d8:	010785b3          	add	a1,a5,a6
   1a4dc:	01065793          	srli	a5,a2,0x10
   1a4e0:	97ae                	add	a5,a5,a1
   1a4e2:	035f8b33          	mul	s6,t6,s5
   1a4e6:	0107f363          	bgeu	a5,a6,1a4ec <__multf3+0x328>
   1a4ea:	9b2a                	add	s6,s6,a0
   1a4ec:	4f16                	lw	t5,68(sp)
   1a4ee:	0107d293          	srli	t0,a5,0x10
   1a4f2:	8ff5                	and	a5,a5,a3
   1a4f4:	8e75                	and	a2,a2,a3
   1a4f6:	07c2                	slli	a5,a5,0x10
   1a4f8:	97b2                	add	a5,a5,a2
   1a4fa:	010f5493          	srli	s1,t5,0x10
   1a4fe:	00df7f33          	and	t5,t5,a3
   1a502:	d23e                	sw	a5,36(sp)
   1a504:	d0be                	sw	a5,96(sp)
   1a506:	02ef06b3          	mul	a3,t5,a4
   1a50a:	02e487b3          	mul	a5,s1,a4
   1a50e:	03ef8633          	mul	a2,t6,t5
   1a512:	00c78533          	add	a0,a5,a2
   1a516:	0106d793          	srli	a5,a3,0x10
   1a51a:	97aa                	add	a5,a5,a0
   1a51c:	029f8a33          	mul	s4,t6,s1
   1a520:	00c7f463          	bgeu	a5,a2,1a528 <__multf3+0x364>
   1a524:	6641                	lui	a2,0x10
   1a526:	9a32                	add	s4,s4,a2
   1a528:	6641                	lui	a2,0x10
   1a52a:	fff60593          	addi	a1,a2,-1 # ffff <__stack_chk_init-0x75>
   1a52e:	00b7f533          	and	a0,a5,a1
   1a532:	0107dd93          	srli	s11,a5,0x10
   1a536:	57d2                	lw	a5,52(sp)
   1a538:	8eed                	and	a3,a3,a1
   1a53a:	0542                	slli	a0,a0,0x10
   1a53c:	0107d913          	srli	s2,a5,0x10
   1a540:	8dfd                	and	a1,a1,a5
   1a542:	9536                	add	a0,a0,a3
   1a544:	02ba87b3          	mul	a5,s5,a1
   1a548:	92aa                	add	t0,t0,a0
   1a54a:	02be06b3          	mul	a3,t3,a1
   1a54e:	03c90333          	mul	t1,s2,t3
   1a552:	00678833          	add	a6,a5,t1
   1a556:	0106d793          	srli	a5,a3,0x10
   1a55a:	97c2                	add	a5,a5,a6
   1a55c:	032a88b3          	mul	a7,s5,s2
   1a560:	0067f363          	bgeu	a5,t1,1a566 <__multf3+0x3a2>
   1a564:	98b2                	add	a7,a7,a2
   1a566:	0107d993          	srli	s3,a5,0x10
   1a56a:	99c6                	add	s3,s3,a7
   1a56c:	68c1                	lui	a7,0x10
   1a56e:	fff88613          	addi	a2,a7,-1 # ffff <__stack_chk_init-0x75>
   1a572:	00c7f833          	and	a6,a5,a2
   1a576:	8ef1                	and	a3,a3,a2
   1a578:	0842                	slli	a6,a6,0x10
   1a57a:	9836                	add	a6,a6,a3
   1a57c:	03e58633          	mul	a2,a1,t5
   1a580:	03e907b3          	mul	a5,s2,t5
   1a584:	01065e93          	srli	t4,a2,0x10
   1a588:	02b486b3          	mul	a3,s1,a1
   1a58c:	96be                	add	a3,a3,a5
   1a58e:	96f6                	add	a3,a3,t4
   1a590:	03248333          	mul	t1,s1,s2
   1a594:	00f6f363          	bgeu	a3,a5,1a59a <__multf3+0x3d6>
   1a598:	9346                	add	t1,t1,a7
   1a59a:	0106d793          	srli	a5,a3,0x10
   1a59e:	4ea6                	lw	t4,72(sp)
   1a5a0:	979a                	add	a5,a5,t1
   1a5a2:	63c1                	lui	t2,0x10
   1a5a4:	d43e                	sw	a5,40(sp)
   1a5a6:	fff38793          	addi	a5,t2,-1 # ffff <__stack_chk_init-0x75>
   1a5aa:	010ed413          	srli	s0,t4,0x10
   1a5ae:	00fefeb3          	and	t4,t4,a5
   1a5b2:	02e408b3          	mul	a7,s0,a4
   1a5b6:	8e7d                	and	a2,a2,a5
   1a5b8:	8efd                	and	a3,a3,a5
   1a5ba:	06c2                	slli	a3,a3,0x10
   1a5bc:	96b2                	add	a3,a3,a2
   1a5be:	02ee8333          	mul	t1,t4,a4
   1a5c2:	03df8bb3          	mul	s7,t6,t4
   1a5c6:	017887b3          	add	a5,a7,s7
   1a5ca:	01035893          	srli	a7,t1,0x10
   1a5ce:	98be                	add	a7,a7,a5
   1a5d0:	028f8633          	mul	a2,t6,s0
   1a5d4:	0178f363          	bgeu	a7,s7,1a5da <__multf3+0x416>
   1a5d8:	961e                	add	a2,a2,t2
   1a5da:	0108d793          	srli	a5,a7,0x10
   1a5de:	6c41                	lui	s8,0x10
   1a5e0:	97b2                	add	a5,a5,a2
   1a5e2:	fffc0613          	addi	a2,s8,-1 # ffff <__stack_chk_init-0x75>
   1a5e6:	d63e                	sw	a5,44(sp)
   1a5e8:	00c8f7b3          	and	a5,a7,a2
   1a5ec:	58e2                	lw	a7,56(sp)
   1a5ee:	00c37333          	and	t1,t1,a2
   1a5f2:	07c2                	slli	a5,a5,0x10
   1a5f4:	0108d393          	srli	t2,a7,0x10
   1a5f8:	00c8f633          	and	a2,a7,a2
   1a5fc:	979a                	add	a5,a5,t1
   1a5fe:	03c608b3          	mul	a7,a2,t3
   1a602:	03c38cb3          	mul	s9,t2,t3
   1a606:	0108dd13          	srli	s10,a7,0x10
   1a60a:	02ca8333          	mul	t1,s5,a2
   1a60e:	9366                	add	t1,t1,s9
   1a610:	936a                	add	t1,t1,s10
   1a612:	027a8bb3          	mul	s7,s5,t2
   1a616:	01937363          	bgeu	t1,s9,1a61c <__multf3+0x458>
   1a61a:	9be2                	add	s7,s7,s8
   1a61c:	01035c13          	srli	s8,t1,0x10
   1a620:	9be2                	add	s7,s7,s8
   1a622:	6c41                	lui	s8,0x10
   1a624:	92da                	add	t0,t0,s6
   1a626:	fffc0c93          	addi	s9,s8,-1 # ffff <__stack_chk_init-0x75>
   1a62a:	00a2b533          	sltu	a0,t0,a0
   1a62e:	01937333          	and	t1,t1,s9
   1a632:	9daa                	add	s11,s11,a0
   1a634:	0342                	slli	t1,t1,0x10
   1a636:	0198f8b3          	and	a7,a7,s9
   1a63a:	9a6e                	add	s4,s4,s11
   1a63c:	989a                	add	a7,a7,t1
   1a63e:	01028333          	add	t1,t0,a6
   1a642:	01033833          	sltu	a6,t1,a6
   1a646:	ca1a                	sw	t1,20(sp)
   1a648:	d29a                	sw	t1,100(sp)
   1a64a:	013a0333          	add	t1,s4,s3
   1a64e:	01030b33          	add	s6,t1,a6
   1a652:	013339b3          	sltu	s3,t1,s3
   1a656:	010b3833          	sltu	a6,s6,a6
   1a65a:	0109e833          	or	a6,s3,a6
   1a65e:	00aa3533          	sltu	a0,s4,a0
   1a662:	9542                	add	a0,a0,a6
   1a664:	5822                	lw	a6,40(sp)
   1a666:	00db02b3          	add	t0,s6,a3
   1a66a:	59a2                	lw	s3,40(sp)
   1a66c:	00d2b6b3          	sltu	a3,t0,a3
   1a670:	9542                	add	a0,a0,a6
   1a672:	5332                	lw	t1,44(sp)
   1a674:	00d50833          	add	a6,a0,a3
   1a678:	92be                	add	t0,t0,a5
   1a67a:	01353533          	sltu	a0,a0,s3
   1a67e:	00d836b3          	sltu	a3,a6,a3
   1a682:	00f2b7b3          	sltu	a5,t0,a5
   1a686:	00680db3          	add	s11,a6,t1
   1a68a:	8ec9                	or	a3,a3,a0
   1a68c:	5532                	lw	a0,44(sp)
   1a68e:	00fd8333          	add	t1,s11,a5
   1a692:	92c6                	add	t0,t0,a7
   1a694:	0112b8b3          	sltu	a7,t0,a7
   1a698:	00f337b3          	sltu	a5,t1,a5
   1a69c:	cc16                	sw	t0,24(sp)
   1a69e:	d496                	sw	t0,104(sp)
   1a6a0:	017302b3          	add	t0,t1,s7
   1a6a4:	4336                	lw	t1,76(sp)
   1a6a6:	01128d33          	add	s10,t0,a7
   1a6aa:	00adbdb3          	sltu	s11,s11,a0
   1a6ae:	00fde7b3          	or	a5,s11,a5
   1a6b2:	0172bbb3          	sltu	s7,t0,s7
   1a6b6:	011d38b3          	sltu	a7,s10,a7
   1a6ba:	96be                	add	a3,a3,a5
   1a6bc:	01035293          	srli	t0,t1,0x10
   1a6c0:	011bea33          	or	s4,s7,a7
   1a6c4:	01937333          	and	t1,t1,s9
   1a6c8:	02e307b3          	mul	a5,t1,a4
   1a6cc:	9a36                	add	s4,s4,a3
   1a6ce:	02e28733          	mul	a4,t0,a4
   1a6d2:	0107d893          	srli	a7,a5,0x10
   1a6d6:	026f86b3          	mul	a3,t6,t1
   1a6da:	9736                	add	a4,a4,a3
   1a6dc:	98ba                	add	a7,a7,a4
   1a6de:	025f8fb3          	mul	t6,t6,t0
   1a6e2:	00d8f363          	bgeu	a7,a3,1a6e8 <__multf3+0x524>
   1a6e6:	9fe2                	add	t6,t6,s8
   1a6e8:	59f2                	lw	s3,60(sp)
   1a6ea:	66c1                	lui	a3,0x10
   1a6ec:	fff68513          	addi	a0,a3,-1 # ffff <__stack_chk_init-0x75>
   1a6f0:	0108d713          	srli	a4,a7,0x10
   1a6f4:	00a8f8b3          	and	a7,a7,a0
   1a6f8:	977e                	add	a4,a4,t6
   1a6fa:	8fe9                	and	a5,a5,a0
   1a6fc:	0109df93          	srli	t6,s3,0x10
   1a700:	08c2                	slli	a7,a7,0x10
   1a702:	00a9f9b3          	and	s3,s3,a0
   1a706:	98be                	add	a7,a7,a5
   1a708:	03fa8b33          	mul	s6,s5,t6
   1a70c:	8dba                	mv	s11,a4
   1a70e:	033e07b3          	mul	a5,t3,s3
   1a712:	033a8ab3          	mul	s5,s5,s3
   1a716:	0107d813          	srli	a6,a5,0x10
   1a71a:	03cf8e33          	mul	t3,t6,t3
   1a71e:	9af2                	add	s5,s5,t3
   1a720:	9ac2                	add	s5,s5,a6
   1a722:	01caf363          	bgeu	s5,t3,1a728 <__multf3+0x564>
   1a726:	9b36                	add	s6,s6,a3
   1a728:	010ad813          	srli	a6,s5,0x10
   1a72c:	01680733          	add	a4,a6,s6
   1a730:	6b41                	lui	s6,0x10
   1a732:	d43a                	sw	a4,40(sp)
   1a734:	fffb0713          	addi	a4,s6,-1 # ffff <__stack_chk_init-0x75>
   1a738:	00eaf833          	and	a6,s5,a4
   1a73c:	8ff9                	and	a5,a5,a4
   1a73e:	0842                	slli	a6,a6,0x10
   1a740:	983e                	add	a6,a6,a5
   1a742:	02be86b3          	mul	a3,t4,a1
   1a746:	03d90e33          	mul	t3,s2,t4
   1a74a:	0106d513          	srli	a0,a3,0x10
   1a74e:	02b407b3          	mul	a5,s0,a1
   1a752:	97f2                	add	a5,a5,t3
   1a754:	97aa                	add	a5,a5,a0
   1a756:	02890733          	mul	a4,s2,s0
   1a75a:	01c7f363          	bgeu	a5,t3,1a760 <__multf3+0x59c>
   1a75e:	975a                	add	a4,a4,s6
   1a760:	0107d513          	srli	a0,a5,0x10
   1a764:	972a                	add	a4,a4,a0
   1a766:	6b41                	lui	s6,0x10
   1a768:	d63a                	sw	a4,44(sp)
   1a76a:	fffb0713          	addi	a4,s6,-1 # ffff <__stack_chk_init-0x75>
   1a76e:	00e7f533          	and	a0,a5,a4
   1a772:	8ef9                	and	a3,a3,a4
   1a774:	03e38e33          	mul	t3,t2,t5
   1a778:	0542                	slli	a0,a0,0x10
   1a77a:	9536                	add	a0,a0,a3
   1a77c:	03e60733          	mul	a4,a2,t5
   1a780:	02c487b3          	mul	a5,s1,a2
   1a784:	01075693          	srli	a3,a4,0x10
   1a788:	97f2                	add	a5,a5,t3
   1a78a:	97b6                	add	a5,a5,a3
   1a78c:	02748ab3          	mul	s5,s1,t2
   1a790:	01c7f363          	bgeu	a5,t3,1a796 <__multf3+0x5d2>
   1a794:	9ada                	add	s5,s5,s6
   1a796:	66c1                	lui	a3,0x10
   1a798:	fff68e13          	addi	t3,a3,-1 # ffff <__stack_chk_init-0x75>
   1a79c:	01c7f6b3          	and	a3,a5,t3
   1a7a0:	0107db93          	srli	s7,a5,0x10
   1a7a4:	011d07b3          	add	a5,s10,a7
   1a7a8:	01c77733          	and	a4,a4,t3
   1a7ac:	0117b8b3          	sltu	a7,a5,a7
   1a7b0:	9a6e                	add	s4,s4,s11
   1a7b2:	06c2                	slli	a3,a3,0x10
   1a7b4:	96ba                	add	a3,a3,a4
   1a7b6:	011a0d33          	add	s10,s4,a7
   1a7ba:	5722                	lw	a4,40(sp)
   1a7bc:	011d38b3          	sltu	a7,s10,a7
   1a7c0:	01ba3a33          	sltu	s4,s4,s11
   1a7c4:	97c2                	add	a5,a5,a6
   1a7c6:	011a6a33          	or	s4,s4,a7
   1a7ca:	58a2                	lw	a7,40(sp)
   1a7cc:	0107b833          	sltu	a6,a5,a6
   1a7d0:	00ed0b33          	add	s6,s10,a4
   1a7d4:	5732                	lw	a4,44(sp)
   1a7d6:	010b0cb3          	add	s9,s6,a6
   1a7da:	97aa                	add	a5,a5,a0
   1a7dc:	011b3b33          	sltu	s6,s6,a7
   1a7e0:	010cb833          	sltu	a6,s9,a6
   1a7e4:	00a7b533          	sltu	a0,a5,a0
   1a7e8:	9766                	add	a4,a4,s9
   1a7ea:	010b6b33          	or	s6,s6,a6
   1a7ee:	5832                	lw	a6,44(sp)
   1a7f0:	00a70c33          	add	s8,a4,a0
   1a7f4:	9bd6                	add	s7,s7,s5
   1a7f6:	97b6                	add	a5,a5,a3
   1a7f8:	00d7b6b3          	sltu	a3,a5,a3
   1a7fc:	017c0ab3          	add	s5,s8,s7
   1a800:	00da8e33          	add	t3,s5,a3
   1a804:	01073733          	sltu	a4,a4,a6
   1a808:	00ac3533          	sltu	a0,s8,a0
   1a80c:	8f49                	or	a4,a4,a0
   1a80e:	00de36b3          	sltu	a3,t3,a3
   1a812:	9a5a                	add	s4,s4,s6
   1a814:	017abab3          	sltu	s5,s5,s7
   1a818:	9a3a                	add	s4,s4,a4
   1a81a:	00daeab3          	or	s5,s5,a3
   1a81e:	015a06b3          	add	a3,s4,s5
   1a822:	02ce8833          	mul	a6,t4,a2
   1a826:	d6be                	sw	a5,108(sp)
   1a828:	03d38a33          	mul	s4,t2,t4
   1a82c:	01085513          	srli	a0,a6,0x10
   1a830:	02c40733          	mul	a4,s0,a2
   1a834:	9752                	add	a4,a4,s4
   1a836:	972a                	add	a4,a4,a0
   1a838:	027408b3          	mul	a7,s0,t2
   1a83c:	01477463          	bgeu	a4,s4,1a844 <__multf3+0x680>
   1a840:	6541                	lui	a0,0x10
   1a842:	98aa                	add	a7,a7,a0
   1a844:	6a41                	lui	s4,0x10
   1a846:	01075513          	srli	a0,a4,0x10
   1a84a:	fffa0a93          	addi	s5,s4,-1 # ffff <__stack_chk_init-0x75>
   1a84e:	98aa                	add	a7,a7,a0
   1a850:	01577533          	and	a0,a4,s5
   1a854:	01587833          	and	a6,a6,s5
   1a858:	0542                	slli	a0,a0,0x10
   1a85a:	02690ab3          	mul	s5,s2,t1
   1a85e:	9542                	add	a0,a0,a6
   1a860:	02b30833          	mul	a6,t1,a1
   1a864:	02b285b3          	mul	a1,t0,a1
   1a868:	01085713          	srli	a4,a6,0x10
   1a86c:	95d6                	add	a1,a1,s5
   1a86e:	972e                	add	a4,a4,a1
   1a870:	02590933          	mul	s2,s2,t0
   1a874:	01577363          	bgeu	a4,s5,1a87a <__multf3+0x6b6>
   1a878:	9952                	add	s2,s2,s4
   1a87a:	6ac1                	lui	s5,0x10
   1a87c:	01075593          	srli	a1,a4,0x10
   1a880:	fffa8a13          	addi	s4,s5,-1 # ffff <__stack_chk_init-0x75>
   1a884:	01487833          	and	a6,a6,s4
   1a888:	992e                	add	s2,s2,a1
   1a88a:	014775b3          	and	a1,a4,s4
   1a88e:	05c2                	slli	a1,a1,0x10
   1a890:	03e98733          	mul	a4,s3,t5
   1a894:	95c2                	add	a1,a1,a6
   1a896:	03ef8f33          	mul	t5,t6,t5
   1a89a:	01075813          	srli	a6,a4,0x10
   1a89e:	03f48a33          	mul	s4,s1,t6
   1a8a2:	033484b3          	mul	s1,s1,s3
   1a8a6:	94fa                	add	s1,s1,t5
   1a8a8:	94c2                	add	s1,s1,a6
   1a8aa:	01e4f363          	bgeu	s1,t5,1a8b0 <__multf3+0x6ec>
   1a8ae:	9a56                	add	s4,s4,s5
   1a8b0:	0104db13          	srli	s6,s1,0x10
   1a8b4:	9b52                	add	s6,s6,s4
   1a8b6:	6a41                	lui	s4,0x10
   1a8b8:	fffa0f13          	addi	t5,s4,-1 # ffff <__stack_chk_init-0x75>
   1a8bc:	01e4f833          	and	a6,s1,t5
   1a8c0:	01e77733          	and	a4,a4,t5
   1a8c4:	026384b3          	mul	s1,t2,t1
   1a8c8:	0842                	slli	a6,a6,0x10
   1a8ca:	983a                	add	a6,a6,a4
   1a8cc:	02660f33          	mul	t5,a2,t1
   1a8d0:	02c28633          	mul	a2,t0,a2
   1a8d4:	010f5713          	srli	a4,t5,0x10
   1a8d8:	9626                	add	a2,a2,s1
   1a8da:	963a                	add	a2,a2,a4
   1a8dc:	025383b3          	mul	t2,t2,t0
   1a8e0:	00967363          	bgeu	a2,s1,1a8e6 <__multf3+0x722>
   1a8e4:	93d2                	add	t2,t2,s4
   1a8e6:	6a41                	lui	s4,0x10
   1a8e8:	01065713          	srli	a4,a2,0x10
   1a8ec:	fffa0493          	addi	s1,s4,-1 # ffff <__stack_chk_init-0x75>
   1a8f0:	93ba                	add	t2,t2,a4
   1a8f2:	00967733          	and	a4,a2,s1
   1a8f6:	009f7f33          	and	t5,t5,s1
   1a8fa:	0742                	slli	a4,a4,0x10
   1a8fc:	977a                	add	a4,a4,t5
   1a8fe:	03340633          	mul	a2,s0,s3
   1a902:	033e8f33          	mul	t5,t4,s3
   1a906:	03df8eb3          	mul	t4,t6,t4
   1a90a:	010f5a93          	srli	s5,t5,0x10
   1a90e:	9676                	add	a2,a2,t4
   1a910:	9656                	add	a2,a2,s5
   1a912:	03f404b3          	mul	s1,s0,t6
   1a916:	01d67363          	bgeu	a2,t4,1a91c <__multf3+0x758>
   1a91a:	94d2                	add	s1,s1,s4
   1a91c:	01065c13          	srli	s8,a2,0x10
   1a920:	6cc1                	lui	s9,0x10
   1a922:	9c26                	add	s8,s8,s1
   1a924:	9e2a                	add	t3,t3,a0
   1a926:	fffc8493          	addi	s1,s9,-1 # ffff <__stack_chk_init-0x75>
   1a92a:	00ae3533          	sltu	a0,t3,a0
   1a92e:	96c6                	add	a3,a3,a7
   1a930:	8e65                	and	a2,a2,s1
   1a932:	00a68db3          	add	s11,a3,a0
   1a936:	009f7f33          	and	t5,t5,s1
   1a93a:	9e2e                	add	t3,t3,a1
   1a93c:	0642                	slli	a2,a2,0x10
   1a93e:	967a                	add	a2,a2,t5
   1a940:	00be35b3          	sltu	a1,t3,a1
   1a944:	012d8f33          	add	t5,s11,s2
   1a948:	9e42                	add	t3,t3,a6
   1a94a:	00bf0d33          	add	s10,t5,a1
   1a94e:	016d0eb3          	add	t4,s10,s6
   1a952:	d8f2                	sw	t3,112(sp)
   1a954:	010e3e33          	sltu	t3,t3,a6
   1a958:	01ce8a33          	add	s4,t4,t3
   1a95c:	0116b6b3          	sltu	a3,a3,a7
   1a960:	00bd35b3          	sltu	a1,s10,a1
   1a964:	00adb533          	sltu	a0,s11,a0
   1a968:	012f3933          	sltu	s2,t5,s2
   1a96c:	8d55                	or	a0,a0,a3
   1a96e:	00b96933          	or	s2,s2,a1
   1a972:	016ebeb3          	sltu	t4,t4,s6
   1a976:	01ca3e33          	sltu	t3,s4,t3
   1a97a:	954a                	add	a0,a0,s2
   1a97c:	01ceeeb3          	or	t4,t4,t3
   1a980:	00ea0833          	add	a6,s4,a4
   1a984:	9576                	add	a0,a0,t4
   1a986:	00e83733          	sltu	a4,a6,a4
   1a98a:	951e                	add	a0,a0,t2
   1a98c:	00e506b3          	add	a3,a0,a4
   1a990:	007533b3          	sltu	t2,a0,t2
   1a994:	03330533          	mul	a0,t1,s3
   1a998:	9832                	add	a6,a6,a2
   1a99a:	00e6b733          	sltu	a4,a3,a4
   1a99e:	00c83633          	sltu	a2,a6,a2
   1a9a2:	96e2                	add	a3,a3,s8
   1a9a4:	00c685b3          	add	a1,a3,a2
   1a9a8:	0186bc33          	sltu	s8,a3,s8
   1a9ac:	00c5b633          	sltu	a2,a1,a2
   1a9b0:	dac2                	sw	a6,116(sp)
   1a9b2:	00e3e733          	or	a4,t2,a4
   1a9b6:	026f8333          	mul	t1,t6,t1
   1a9ba:	01055693          	srli	a3,a0,0x10
   1a9be:	00cc6633          	or	a2,s8,a2
   1a9c2:	033289b3          	mul	s3,t0,s3
   1a9c6:	999a                	add	s3,s3,t1
   1a9c8:	03f28fb3          	mul	t6,t0,t6
   1a9cc:	013682b3          	add	t0,a3,s3
   1a9d0:	0062f363          	bgeu	t0,t1,1a9d6 <__multf3+0x812>
   1a9d4:	9fe6                	add	t6,t6,s9
   1a9d6:	0092f6b3          	and	a3,t0,s1
   1a9da:	06c2                	slli	a3,a3,0x10
   1a9dc:	8ce9                	and	s1,s1,a0
   1a9de:	94b6                	add	s1,s1,a3
   1a9e0:	0102d293          	srli	t0,t0,0x10
   1a9e4:	95a6                	add	a1,a1,s1
   1a9e6:	92ba                	add	t0,t0,a4
   1a9e8:	46d2                	lw	a3,20(sp)
   1a9ea:	5712                	lw	a4,36(sp)
   1a9ec:	92b2                	add	t0,t0,a2
   1a9ee:	0095b4b3          	sltu	s1,a1,s1
   1a9f2:	92a6                	add	t0,t0,s1
   1a9f4:	9f96                	add	t6,t6,t0
   1a9f6:	00d762b3          	or	t0,a4,a3
   1a9fa:	4762                	lw	a4,24(sp)
   1a9fc:	07b6                	slli	a5,a5,0xd
   1a9fe:	defe                	sw	t6,124(sp)
   1aa00:	005762b3          	or	t0,a4,t0
   1aa04:	dcae                	sw	a1,120(sp)
   1aa06:	0057e7b3          	or	a5,a5,t0
   1aa0a:	1098                	addi	a4,sp,96
   1aa0c:	4601                	li	a2,0
   1aa0e:	4511                	li	a0,4
   1aa10:	4754                	lw	a3,12(a4)
   1aa12:	4b0c                	lw	a1,16(a4)
   1aa14:	0605                	addi	a2,a2,1
   1aa16:	82cd                	srli	a3,a3,0x13
   1aa18:	05b6                	slli	a1,a1,0xd
   1aa1a:	8ecd                	or	a3,a3,a1
   1aa1c:	c314                	sw	a3,0(a4)
   1aa1e:	0711                	addi	a4,a4,4
   1aa20:	fea618e3          	bne	a2,a0,1aa10 <__multf3+0x84c>
   1aa24:	5706                	lw	a4,96(sp)
   1aa26:	56a6                	lw	a3,104(sp)
   1aa28:	00f037b3          	snez	a5,a5
   1aa2c:	8fd9                	or	a5,a5,a4
   1aa2e:	ccb6                	sw	a3,88(sp)
   1aa30:	5736                	lw	a4,108(sp)
   1aa32:	5696                	lw	a3,100(sp)
   1aa34:	c8be                	sw	a5,80(sp)
   1aa36:	ceba                	sw	a4,92(sp)
   1aa38:	cab6                	sw	a3,84(sp)
   1aa3a:	00b71693          	slli	a3,a4,0xb
   1aa3e:	1406d963          	bgez	a3,1ab90 <__multf3+0x9cc>
   1aa42:	07fe                	slli	a5,a5,0x1f
   1aa44:	0898                	addi	a4,sp,80
   1aa46:	4601                	li	a2,0
   1aa48:	450d                	li	a0,3
   1aa4a:	4314                	lw	a3,0(a4)
   1aa4c:	434c                	lw	a1,4(a4)
   1aa4e:	0605                	addi	a2,a2,1
   1aa50:	8285                	srli	a3,a3,0x1
   1aa52:	05fe                	slli	a1,a1,0x1f
   1aa54:	8ecd                	or	a3,a3,a1
   1aa56:	c314                	sw	a3,0(a4)
   1aa58:	0711                	addi	a4,a4,4
   1aa5a:	fea618e3          	bne	a2,a0,1aa4a <__multf3+0x886>
   1aa5e:	4776                	lw	a4,92(sp)
   1aa60:	00f037b3          	snez	a5,a5
   1aa64:	8305                	srli	a4,a4,0x1
   1aa66:	ceba                	sw	a4,92(sp)
   1aa68:	4746                	lw	a4,80(sp)
   1aa6a:	8fd9                	or	a5,a5,a4
   1aa6c:	c8be                	sw	a5,80(sp)
   1aa6e:	4772                	lw	a4,28(sp)
   1aa70:	6791                	lui	a5,0x4
   1aa72:	17fd                	addi	a5,a5,-1
   1aa74:	97ba                	add	a5,a5,a4
   1aa76:	12f05763          	blez	a5,1aba4 <__multf3+0x9e0>
   1aa7a:	4746                	lw	a4,80(sp)
   1aa7c:	00777693          	andi	a3,a4,7
   1aa80:	c69d                	beqz	a3,1aaae <__multf3+0x8ea>
   1aa82:	00f77693          	andi	a3,a4,15
   1aa86:	4611                	li	a2,4
   1aa88:	02c68363          	beq	a3,a2,1aaae <__multf3+0x8ea>
   1aa8c:	46d6                	lw	a3,84(sp)
   1aa8e:	0711                	addi	a4,a4,4
   1aa90:	c8ba                	sw	a4,80(sp)
   1aa92:	00473713          	sltiu	a4,a4,4
   1aa96:	96ba                	add	a3,a3,a4
   1aa98:	00e6b733          	sltu	a4,a3,a4
   1aa9c:	cab6                	sw	a3,84(sp)
   1aa9e:	46e6                	lw	a3,88(sp)
   1aaa0:	96ba                	add	a3,a3,a4
   1aaa2:	ccb6                	sw	a3,88(sp)
   1aaa4:	00e6b6b3          	sltu	a3,a3,a4
   1aaa8:	4776                	lw	a4,92(sp)
   1aaaa:	96ba                	add	a3,a3,a4
   1aaac:	ceb6                	sw	a3,92(sp)
   1aaae:	4776                	lw	a4,92(sp)
   1aab0:	00b71693          	slli	a3,a4,0xb
   1aab4:	0006da63          	bgez	a3,1aac8 <__multf3+0x904>
   1aab8:	fff007b7          	lui	a5,0xfff00
   1aabc:	17fd                	addi	a5,a5,-1
   1aabe:	8f7d                	and	a4,a4,a5
   1aac0:	ceba                	sw	a4,92(sp)
   1aac2:	4772                	lw	a4,28(sp)
   1aac4:	6791                	lui	a5,0x4
   1aac6:	97ba                	add	a5,a5,a4
   1aac8:	0898                	addi	a4,sp,80
   1aaca:	4601                	li	a2,0
   1aacc:	450d                	li	a0,3
   1aace:	4314                	lw	a3,0(a4)
   1aad0:	434c                	lw	a1,4(a4)
   1aad2:	0605                	addi	a2,a2,1
   1aad4:	828d                	srli	a3,a3,0x3
   1aad6:	05f6                	slli	a1,a1,0x1d
   1aad8:	8ecd                	or	a3,a3,a1
   1aada:	c314                	sw	a3,0(a4)
   1aadc:	0711                	addi	a4,a4,4
   1aade:	fea618e3          	bne	a2,a0,1aace <__multf3+0x90a>
   1aae2:	6721                	lui	a4,0x8
   1aae4:	ffe70693          	addi	a3,a4,-2 # 7ffe <__stack_chk_init-0x8076>
   1aae8:	0af6c763          	blt	a3,a5,1ab96 <__multf3+0x9d2>
   1aaec:	4776                	lw	a4,92(sp)
   1aaee:	830d                	srli	a4,a4,0x3
   1aaf0:	ceba                	sw	a4,92(sp)
   1aaf2:	4776                	lw	a4,92(sp)
   1aaf4:	800106b7          	lui	a3,0x80010
   1aaf8:	16fd                	addi	a3,a3,-1
   1aafa:	06e11623          	sh	a4,108(sp)
   1aafe:	6721                	lui	a4,0x8
   1ab00:	177d                	addi	a4,a4,-1
   1ab02:	8ff9                	and	a5,a5,a4
   1ab04:	5736                	lw	a4,108(sp)
   1ab06:	07c2                	slli	a5,a5,0x10
   1ab08:	50fa                	lw	ra,188(sp)
   1ab0a:	8f75                	and	a4,a4,a3
   1ab0c:	8fd9                	or	a5,a5,a4
   1ab0e:	4742                	lw	a4,16(sp)
   1ab10:	800006b7          	lui	a3,0x80000
   1ab14:	fff6c693          	not	a3,a3
   1ab18:	077e                	slli	a4,a4,0x1f
   1ab1a:	8ff5                	and	a5,a5,a3
   1ab1c:	8fd9                	or	a5,a5,a4
   1ab1e:	46b2                	lw	a3,12(sp)
   1ab20:	4746                	lw	a4,80(sp)
   1ab22:	546a                	lw	s0,184(sp)
   1ab24:	c6dc                	sw	a5,12(a3)
   1ab26:	c298                	sw	a4,0(a3)
   1ab28:	4756                	lw	a4,84(sp)
   1ab2a:	54da                	lw	s1,180(sp)
   1ab2c:	594a                	lw	s2,176(sp)
   1ab2e:	c2d8                	sw	a4,4(a3)
   1ab30:	4766                	lw	a4,88(sp)
   1ab32:	59ba                	lw	s3,172(sp)
   1ab34:	5a2a                	lw	s4,168(sp)
   1ab36:	c698                	sw	a4,8(a3)
   1ab38:	5a9a                	lw	s5,164(sp)
   1ab3a:	5b0a                	lw	s6,160(sp)
   1ab3c:	4bfa                	lw	s7,156(sp)
   1ab3e:	4c6a                	lw	s8,152(sp)
   1ab40:	4cda                	lw	s9,148(sp)
   1ab42:	4d4a                	lw	s10,144(sp)
   1ab44:	4dba                	lw	s11,140(sp)
   1ab46:	8536                	mv	a0,a3
   1ab48:	6129                	addi	sp,sp,192
   1ab4a:	8082                	ret
   1ab4c:	c84e                	sw	s3,16(sp)
   1ab4e:	57c2                	lw	a5,48(sp)
   1ab50:	c8be                	sw	a5,80(sp)
   1ab52:	57d2                	lw	a5,52(sp)
   1ab54:	cabe                	sw	a5,84(sp)
   1ab56:	57e2                	lw	a5,56(sp)
   1ab58:	ccbe                	sw	a5,88(sp)
   1ab5a:	57f2                	lw	a5,60(sp)
   1ab5c:	cebe                	sw	a5,92(sp)
   1ab5e:	4789                	li	a5,2
   1ab60:	18fb8e63          	beq	s7,a5,1acfc <__multf3+0xb38>
   1ab64:	478d                	li	a5,3
   1ab66:	1afb8263          	beq	s7,a5,1ad0a <__multf3+0xb46>
   1ab6a:	4785                	li	a5,1
   1ab6c:	f0fb91e3          	bne	s7,a5,1aa6e <__multf3+0x8aa>
   1ab70:	ce82                	sw	zero,92(sp)
   1ab72:	cc82                	sw	zero,88(sp)
   1ab74:	ca82                	sw	zero,84(sp)
   1ab76:	c882                	sw	zero,80(sp)
   1ab78:	a28d                	j	1acda <__multf3+0xb16>
   1ab7a:	c84a                	sw	s2,16(sp)
   1ab7c:	4786                	lw	a5,64(sp)
   1ab7e:	8bba                	mv	s7,a4
   1ab80:	c8be                	sw	a5,80(sp)
   1ab82:	4796                	lw	a5,68(sp)
   1ab84:	cabe                	sw	a5,84(sp)
   1ab86:	47a6                	lw	a5,72(sp)
   1ab88:	ccbe                	sw	a5,88(sp)
   1ab8a:	47b6                	lw	a5,76(sp)
   1ab8c:	cebe                	sw	a5,92(sp)
   1ab8e:	bfc1                	j	1ab5e <__multf3+0x99a>
   1ab90:	5782                	lw	a5,32(sp)
   1ab92:	ce3e                	sw	a5,28(sp)
   1ab94:	bde9                	j	1aa6e <__multf3+0x8aa>
   1ab96:	ce82                	sw	zero,92(sp)
   1ab98:	cc82                	sw	zero,88(sp)
   1ab9a:	ca82                	sw	zero,84(sp)
   1ab9c:	c882                	sw	zero,80(sp)
   1ab9e:	fff70793          	addi	a5,a4,-1 # 7fff <__stack_chk_init-0x8075>
   1aba2:	bf81                	j	1aaf2 <__multf3+0x92e>
   1aba4:	4685                	li	a3,1
   1aba6:	40f687b3          	sub	a5,a3,a5
   1abaa:	07400713          	li	a4,116
   1abae:	12f74863          	blt	a4,a5,1acde <__multf3+0xb1a>
   1abb2:	4057d613          	srai	a2,a5,0x5
   1abb6:	01f7f693          	andi	a3,a5,31
   1abba:	4701                	li	a4,0
   1abbc:	4781                	li	a5,0
   1abbe:	00271593          	slli	a1,a4,0x2
   1abc2:	00c71c63          	bne	a4,a2,1abda <__multf3+0xa16>
   1abc6:	ea8d                	bnez	a3,1abf8 <__multf3+0xa34>
   1abc8:	450d                	li	a0,3
   1abca:	0890                	addi	a2,sp,80
   1abcc:	8d19                	sub	a0,a0,a4
   1abce:	00d55c63          	bge	a0,a3,1abe6 <__multf3+0xa22>
   1abd2:	4691                	li	a3,4
   1abd4:	40e68733          	sub	a4,a3,a4
   1abd8:	a8a9                	j	1ac32 <__multf3+0xa6e>
   1abda:	0888                	addi	a0,sp,80
   1abdc:	95aa                	add	a1,a1,a0
   1abde:	418c                	lw	a1,0(a1)
   1abe0:	0705                	addi	a4,a4,1
   1abe2:	8fcd                	or	a5,a5,a1
   1abe4:	bfe9                	j	1abbe <__multf3+0x9fa>
   1abe6:	00b60833          	add	a6,a2,a1
   1abea:	00082803          	lw	a6,0(a6)
   1abee:	0685                	addi	a3,a3,1
   1abf0:	0611                	addi	a2,a2,4
   1abf2:	ff062e23          	sw	a6,-4(a2)
   1abf6:	bfe1                	j	1abce <__multf3+0xa0a>
   1abf8:	0110                	addi	a2,sp,128
   1abfa:	962e                	add	a2,a2,a1
   1abfc:	fd062603          	lw	a2,-48(a2)
   1ac00:	02000813          	li	a6,32
   1ac04:	40d80833          	sub	a6,a6,a3
   1ac08:	01061633          	sll	a2,a2,a6
   1ac0c:	8fd1                	or	a5,a5,a2
   1ac0e:	460d                	li	a2,3
   1ac10:	05010893          	addi	a7,sp,80
   1ac14:	4301                	li	t1,0
   1ac16:	8e19                	sub	a2,a2,a4
   1ac18:	00c34f63          	blt	t1,a2,1ac36 <__multf3+0xa72>
   1ac1c:	4591                	li	a1,4
   1ac1e:	40e58733          	sub	a4,a1,a4
   1ac22:	060a                	slli	a2,a2,0x2
   1ac24:	010c                	addi	a1,sp,128
   1ac26:	962e                	add	a2,a2,a1
   1ac28:	45f6                	lw	a1,92(sp)
   1ac2a:	00d5d6b3          	srl	a3,a1,a3
   1ac2e:	fcd62823          	sw	a3,-48(a2)
   1ac32:	4611                	li	a2,4
   1ac34:	a80d                	j	1ac66 <__multf3+0xaa2>
   1ac36:	00b88e33          	add	t3,a7,a1
   1ac3a:	000e2503          	lw	a0,0(t3) # 10000 <__stack_chk_init-0x74>
   1ac3e:	004e2e03          	lw	t3,4(t3)
   1ac42:	0305                	addi	t1,t1,1
   1ac44:	00d55533          	srl	a0,a0,a3
   1ac48:	010e1e33          	sll	t3,t3,a6
   1ac4c:	01c56533          	or	a0,a0,t3
   1ac50:	00a8a023          	sw	a0,0(a7)
   1ac54:	0891                	addi	a7,a7,4
   1ac56:	b7c9                	j	1ac18 <__multf3+0xa54>
   1ac58:	00271693          	slli	a3,a4,0x2
   1ac5c:	088c                	addi	a1,sp,80
   1ac5e:	96ae                	add	a3,a3,a1
   1ac60:	0006a023          	sw	zero,0(a3) # 80000000 <__BSS_END__+0x7ffe139c>
   1ac64:	0705                	addi	a4,a4,1
   1ac66:	fec719e3          	bne	a4,a2,1ac58 <__multf3+0xa94>
   1ac6a:	46c6                	lw	a3,80(sp)
   1ac6c:	00f037b3          	snez	a5,a5
   1ac70:	8fd5                	or	a5,a5,a3
   1ac72:	c8be                	sw	a5,80(sp)
   1ac74:	0077f693          	andi	a3,a5,7
   1ac78:	c695                	beqz	a3,1aca4 <__multf3+0xae0>
   1ac7a:	00f7f693          	andi	a3,a5,15
   1ac7e:	02e68363          	beq	a3,a4,1aca4 <__multf3+0xae0>
   1ac82:	4756                	lw	a4,84(sp)
   1ac84:	0791                	addi	a5,a5,4
   1ac86:	c8be                	sw	a5,80(sp)
   1ac88:	0047b793          	sltiu	a5,a5,4
   1ac8c:	973e                	add	a4,a4,a5
   1ac8e:	00f737b3          	sltu	a5,a4,a5
   1ac92:	caba                	sw	a4,84(sp)
   1ac94:	4766                	lw	a4,88(sp)
   1ac96:	973e                	add	a4,a4,a5
   1ac98:	ccba                	sw	a4,88(sp)
   1ac9a:	00f73733          	sltu	a4,a4,a5
   1ac9e:	47f6                	lw	a5,92(sp)
   1aca0:	973e                	add	a4,a4,a5
   1aca2:	ceba                	sw	a4,92(sp)
   1aca4:	47f6                	lw	a5,92(sp)
   1aca6:	00c79713          	slli	a4,a5,0xc
   1acaa:	00075863          	bgez	a4,1acba <__multf3+0xaf6>
   1acae:	ce82                	sw	zero,92(sp)
   1acb0:	cc82                	sw	zero,88(sp)
   1acb2:	ca82                	sw	zero,84(sp)
   1acb4:	c882                	sw	zero,80(sp)
   1acb6:	4785                	li	a5,1
   1acb8:	bd2d                	j	1aaf2 <__multf3+0x92e>
   1acba:	089c                	addi	a5,sp,80
   1acbc:	4681                	li	a3,0
   1acbe:	458d                	li	a1,3
   1acc0:	4398                	lw	a4,0(a5)
   1acc2:	43d0                	lw	a2,4(a5)
   1acc4:	0685                	addi	a3,a3,1
   1acc6:	830d                	srli	a4,a4,0x3
   1acc8:	0676                	slli	a2,a2,0x1d
   1acca:	8f51                	or	a4,a4,a2
   1accc:	c398                	sw	a4,0(a5)
   1acce:	0791                	addi	a5,a5,4
   1acd0:	feb698e3          	bne	a3,a1,1acc0 <__multf3+0xafc>
   1acd4:	47f6                	lw	a5,92(sp)
   1acd6:	838d                	srli	a5,a5,0x3
   1acd8:	cebe                	sw	a5,92(sp)
   1acda:	4781                	li	a5,0
   1acdc:	bd19                	j	1aaf2 <__multf3+0x92e>
   1acde:	47d6                	lw	a5,84(sp)
   1ace0:	4746                	lw	a4,80(sp)
   1ace2:	8f5d                	or	a4,a4,a5
   1ace4:	47e6                	lw	a5,88(sp)
   1ace6:	8f5d                	or	a4,a4,a5
   1ace8:	47f6                	lw	a5,92(sp)
   1acea:	8f5d                	or	a4,a4,a5
   1acec:	4781                	li	a5,0
   1acee:	e00702e3          	beqz	a4,1aaf2 <__multf3+0x92e>
   1acf2:	ce82                	sw	zero,92(sp)
   1acf4:	cc82                	sw	zero,88(sp)
   1acf6:	ca82                	sw	zero,84(sp)
   1acf8:	c882                	sw	zero,80(sp)
   1acfa:	bbe5                	j	1aaf2 <__multf3+0x92e>
   1acfc:	67a1                	lui	a5,0x8
   1acfe:	ce82                	sw	zero,92(sp)
   1ad00:	cc82                	sw	zero,88(sp)
   1ad02:	ca82                	sw	zero,84(sp)
   1ad04:	c882                	sw	zero,80(sp)
   1ad06:	17fd                	addi	a5,a5,-1
   1ad08:	b3ed                	j	1aaf2 <__multf3+0x92e>
   1ad0a:	67a1                	lui	a5,0x8
   1ad0c:	cebe                	sw	a5,92(sp)
   1ad0e:	cc82                	sw	zero,88(sp)
   1ad10:	ca82                	sw	zero,84(sp)
   1ad12:	c882                	sw	zero,80(sp)
   1ad14:	17fd                	addi	a5,a5,-1
   1ad16:	c802                	sw	zero,16(sp)
   1ad18:	bbe9                	j	1aaf2 <__multf3+0x92e>

0001ad1a <__subtf3>:
   1ad1a:	711d                	addi	sp,sp,-96
   1ad1c:	459c                	lw	a5,8(a1)
   1ad1e:	c8ca                	sw	s2,80(sp)
   1ad20:	00c5a903          	lw	s2,12(a1)
   1ad24:	4194                	lw	a3,0(a1)
   1ad26:	41d8                	lw	a4,4(a1)
   1ad28:	caa6                	sw	s1,84(sp)
   1ad2a:	dc3e                	sw	a5,56(sp)
   1ad2c:	84aa                	mv	s1,a0
   1ad2e:	cc3e                	sw	a5,24(sp)
   1ad30:	00062e03          	lw	t3,0(a2)
   1ad34:	01091793          	slli	a5,s2,0x10
   1ad38:	00462303          	lw	t1,4(a2)
   1ad3c:	00862883          	lw	a7,8(a2)
   1ad40:	4648                	lw	a0,12(a2)
   1ad42:	cca2                	sw	s0,88(sp)
   1ad44:	83c1                	srli	a5,a5,0x10
   1ad46:	00191413          	slli	s0,s2,0x1
   1ad4a:	de4a                	sw	s2,60(sp)
   1ad4c:	ce86                	sw	ra,92(sp)
   1ad4e:	c6ce                	sw	s3,76(sp)
   1ad50:	c4d2                	sw	s4,72(sp)
   1ad52:	c2d6                	sw	s5,68(sp)
   1ad54:	d836                	sw	a3,48(sp)
   1ad56:	da3a                	sw	a4,52(sp)
   1ad58:	c836                	sw	a3,16(sp)
   1ad5a:	ca3a                	sw	a4,20(sp)
   1ad5c:	ce3e                	sw	a5,28(sp)
   1ad5e:	8045                	srli	s0,s0,0x11
   1ad60:	01f95913          	srli	s2,s2,0x1f
   1ad64:	01010813          	addi	a6,sp,16
   1ad68:	086c                	addi	a1,sp,28
   1ad6a:	419c                	lw	a5,0(a1)
   1ad6c:	ffc5a703          	lw	a4,-4(a1)
   1ad70:	15f1                	addi	a1,a1,-4
   1ad72:	078e                	slli	a5,a5,0x3
   1ad74:	8375                	srli	a4,a4,0x1d
   1ad76:	8fd9                	or	a5,a5,a4
   1ad78:	c1dc                	sw	a5,4(a1)
   1ad7a:	feb818e3          	bne	a6,a1,1ad6a <__subtf3+0x50>
   1ad7e:	46c2                	lw	a3,16(sp)
   1ad80:	01051793          	slli	a5,a0,0x10
   1ad84:	00151613          	slli	a2,a0,0x1
   1ad88:	068e                	slli	a3,a3,0x3
   1ad8a:	83c1                	srli	a5,a5,0x10
   1ad8c:	da1a                	sw	t1,52(sp)
   1ad8e:	dc46                	sw	a7,56(sp)
   1ad90:	de2a                	sw	a0,60(sp)
   1ad92:	d21a                	sw	t1,36(sp)
   1ad94:	d446                	sw	a7,40(sp)
   1ad96:	c836                	sw	a3,16(sp)
   1ad98:	d872                	sw	t3,48(sp)
   1ad9a:	d072                	sw	t3,32(sp)
   1ad9c:	d63e                	sw	a5,44(sp)
   1ad9e:	8245                	srli	a2,a2,0x11
   1ada0:	817d                	srli	a0,a0,0x1f
   1ada2:	02010893          	addi	a7,sp,32
   1ada6:	02c10313          	addi	t1,sp,44
   1adaa:	00032783          	lw	a5,0(t1)
   1adae:	ffc32703          	lw	a4,-4(t1)
   1adb2:	1371                	addi	t1,t1,-4
   1adb4:	078e                	slli	a5,a5,0x3
   1adb6:	8375                	srli	a4,a4,0x1d
   1adb8:	8fd9                	or	a5,a5,a4
   1adba:	00f32223          	sw	a5,4(t1)
   1adbe:	fe6896e3          	bne	a7,t1,1adaa <__subtf3+0x90>
   1adc2:	5782                	lw	a5,32(sp)
   1adc4:	6721                	lui	a4,0x8
   1adc6:	177d                	addi	a4,a4,-1
   1adc8:	078e                	slli	a5,a5,0x3
   1adca:	d03e                	sw	a5,32(sp)
   1adcc:	00e61b63          	bne	a2,a4,1ade2 <__subtf3+0xc8>
   1add0:	5e22                	lw	t3,40(sp)
   1add2:	5712                	lw	a4,36(sp)
   1add4:	01c76733          	or	a4,a4,t3
   1add8:	5e32                	lw	t3,44(sp)
   1adda:	01c76733          	or	a4,a4,t3
   1adde:	8f5d                	or	a4,a4,a5
   1ade0:	e319                	bnez	a4,1ade6 <__subtf3+0xcc>
   1ade2:	00154513          	xori	a0,a0,1
   1ade6:	40c40733          	sub	a4,s0,a2
   1adea:	5f251463          	bne	a0,s2,1b3d2 <__subtf3+0x6b8>
   1adee:	1ee05d63          	blez	a4,1afe8 <__subtf3+0x2ce>
   1adf2:	ea61                	bnez	a2,1aec2 <__subtf3+0x1a8>
   1adf4:	5512                	lw	a0,36(sp)
   1adf6:	55a2                	lw	a1,40(sp)
   1adf8:	5832                	lw	a6,44(sp)
   1adfa:	00b56633          	or	a2,a0,a1
   1adfe:	01066633          	or	a2,a2,a6
   1ae02:	8e5d                	or	a2,a2,a5
   1ae04:	ea11                	bnez	a2,1ae18 <__subtf3+0xfe>
   1ae06:	47d2                	lw	a5,20(sp)
   1ae08:	d836                	sw	a3,48(sp)
   1ae0a:	843a                	mv	s0,a4
   1ae0c:	da3e                	sw	a5,52(sp)
   1ae0e:	47e2                	lw	a5,24(sp)
   1ae10:	dc3e                	sw	a5,56(sp)
   1ae12:	47f2                	lw	a5,28(sp)
   1ae14:	de3e                	sw	a5,60(sp)
   1ae16:	a401                	j	1b016 <__subtf3+0x2fc>
   1ae18:	fff70613          	addi	a2,a4,-1 # 7fff <__stack_chk_init-0x8075>
   1ae1c:	e649                	bnez	a2,1aea6 <__subtf3+0x18c>
   1ae1e:	4752                	lw	a4,20(sp)
   1ae20:	97b6                	add	a5,a5,a3
   1ae22:	00d7b6b3          	sltu	a3,a5,a3
   1ae26:	00e50633          	add	a2,a0,a4
   1ae2a:	d83e                	sw	a5,48(sp)
   1ae2c:	00d607b3          	add	a5,a2,a3
   1ae30:	00d7b6b3          	sltu	a3,a5,a3
   1ae34:	da3e                	sw	a5,52(sp)
   1ae36:	47e2                	lw	a5,24(sp)
   1ae38:	00e63733          	sltu	a4,a2,a4
   1ae3c:	8ed9                	or	a3,a3,a4
   1ae3e:	00f58733          	add	a4,a1,a5
   1ae42:	00d70633          	add	a2,a4,a3
   1ae46:	00f737b3          	sltu	a5,a4,a5
   1ae4a:	4772                	lw	a4,28(sp)
   1ae4c:	00d636b3          	sltu	a3,a2,a3
   1ae50:	8fd5                	or	a5,a5,a3
   1ae52:	983a                	add	a6,a6,a4
   1ae54:	97c2                	add	a5,a5,a6
   1ae56:	dc32                	sw	a2,56(sp)
   1ae58:	de3e                	sw	a5,60(sp)
   1ae5a:	4405                	li	s0,1
   1ae5c:	57f2                	lw	a5,60(sp)
   1ae5e:	00c79713          	slli	a4,a5,0xc
   1ae62:	1a075a63          	bgez	a4,1b016 <__subtf3+0x2fc>
   1ae66:	fff80737          	lui	a4,0xfff80
   1ae6a:	177d                	addi	a4,a4,-1
   1ae6c:	8ff9                	and	a5,a5,a4
   1ae6e:	de3e                	sw	a5,60(sp)
   1ae70:	57c2                	lw	a5,48(sp)
   1ae72:	0405                	addi	s0,s0,1
   1ae74:	1818                	addi	a4,sp,48
   1ae76:	07fe                	slli	a5,a5,0x1f
   1ae78:	4601                	li	a2,0
   1ae7a:	450d                	li	a0,3
   1ae7c:	4314                	lw	a3,0(a4)
   1ae7e:	434c                	lw	a1,4(a4)
   1ae80:	0605                	addi	a2,a2,1
   1ae82:	8285                	srli	a3,a3,0x1
   1ae84:	05fe                	slli	a1,a1,0x1f
   1ae86:	8ecd                	or	a3,a3,a1
   1ae88:	c314                	sw	a3,0(a4)
   1ae8a:	0711                	addi	a4,a4,4
   1ae8c:	fea618e3          	bne	a2,a0,1ae7c <__subtf3+0x162>
   1ae90:	5772                	lw	a4,60(sp)
   1ae92:	00f037b3          	snez	a5,a5
   1ae96:	8305                	srli	a4,a4,0x1
   1ae98:	de3a                	sw	a4,60(sp)
   1ae9a:	5742                	lw	a4,48(sp)
   1ae9c:	8fd9                	or	a5,a5,a4
   1ae9e:	d83e                	sw	a5,48(sp)
   1aea0:	67a1                	lui	a5,0x8
   1aea2:	17fd                	addi	a5,a5,-1
   1aea4:	a305                	j	1b3c4 <__subtf3+0x6aa>
   1aea6:	67a1                	lui	a5,0x8
   1aea8:	17fd                	addi	a5,a5,-1
   1aeaa:	f4f70ee3          	beq	a4,a5,1ae06 <__subtf3+0xec>
   1aeae:	07400793          	li	a5,116
   1aeb2:	02c7de63          	bge	a5,a2,1aeee <__subtf3+0x1d4>
   1aeb6:	4785                	li	a5,1
   1aeb8:	d602                	sw	zero,44(sp)
   1aeba:	d402                	sw	zero,40(sp)
   1aebc:	d202                	sw	zero,36(sp)
   1aebe:	d03e                	sw	a5,32(sp)
   1aec0:	a0d5                	j	1afa4 <__subtf3+0x28a>
   1aec2:	67a1                	lui	a5,0x8
   1aec4:	17fd                	addi	a5,a5,-1
   1aec6:	00f41a63          	bne	s0,a5,1aeda <__subtf3+0x1c0>
   1aeca:	47d2                	lw	a5,20(sp)
   1aecc:	d836                	sw	a3,48(sp)
   1aece:	da3e                	sw	a5,52(sp)
   1aed0:	47e2                	lw	a5,24(sp)
   1aed2:	dc3e                	sw	a5,56(sp)
   1aed4:	47f2                	lw	a5,28(sp)
   1aed6:	de3e                	sw	a5,60(sp)
   1aed8:	aa3d                	j	1b016 <__subtf3+0x2fc>
   1aeda:	57b2                	lw	a5,44(sp)
   1aedc:	000806b7          	lui	a3,0x80
   1aee0:	8fd5                	or	a5,a5,a3
   1aee2:	d63e                	sw	a5,44(sp)
   1aee4:	07400793          	li	a5,116
   1aee8:	fce7c7e3          	blt	a5,a4,1aeb6 <__subtf3+0x19c>
   1aeec:	863a                	mv	a2,a4
   1aeee:	40565693          	srai	a3,a2,0x5
   1aef2:	01f67713          	andi	a4,a2,31
   1aef6:	4781                	li	a5,0
   1aef8:	4601                	li	a2,0
   1aefa:	00279593          	slli	a1,a5,0x2
   1aefe:	00d79b63          	bne	a5,a3,1af14 <__subtf3+0x1fa>
   1af02:	e715                	bnez	a4,1af2e <__subtf3+0x214>
   1af04:	468d                	li	a3,3
   1af06:	8e9d                	sub	a3,a3,a5
   1af08:	00e6db63          	bge	a3,a4,1af1e <__subtf3+0x204>
   1af0c:	4711                	li	a4,4
   1af0e:	40f707b3          	sub	a5,a4,a5
   1af12:	a889                	j	1af64 <__subtf3+0x24a>
   1af14:	95c6                	add	a1,a1,a7
   1af16:	418c                	lw	a1,0(a1)
   1af18:	0785                	addi	a5,a5,1
   1af1a:	8e4d                	or	a2,a2,a1
   1af1c:	bff9                	j	1aefa <__subtf3+0x1e0>
   1af1e:	00b30533          	add	a0,t1,a1
   1af22:	4108                	lw	a0,0(a0)
   1af24:	0705                	addi	a4,a4,1
   1af26:	0311                	addi	t1,t1,4
   1af28:	fea32e23          	sw	a0,-4(t1)
   1af2c:	bff1                	j	1af08 <__subtf3+0x1ee>
   1af2e:	0094                	addi	a3,sp,64
   1af30:	96ae                	add	a3,a3,a1
   1af32:	fe06a683          	lw	a3,-32(a3) # 7ffe0 <__BSS_END__+0x6137c>
   1af36:	02000813          	li	a6,32
   1af3a:	40e80833          	sub	a6,a6,a4
   1af3e:	010696b3          	sll	a3,a3,a6
   1af42:	8e55                	or	a2,a2,a3
   1af44:	468d                	li	a3,3
   1af46:	4e01                	li	t3,0
   1af48:	8e9d                	sub	a3,a3,a5
   1af4a:	00de4f63          	blt	t3,a3,1af68 <__subtf3+0x24e>
   1af4e:	4591                	li	a1,4
   1af50:	40f587b3          	sub	a5,a1,a5
   1af54:	068a                	slli	a3,a3,0x2
   1af56:	008c                	addi	a1,sp,64
   1af58:	96ae                	add	a3,a3,a1
   1af5a:	55b2                	lw	a1,44(sp)
   1af5c:	00e5d733          	srl	a4,a1,a4
   1af60:	fee6a023          	sw	a4,-32(a3)
   1af64:	4691                	li	a3,4
   1af66:	a805                	j	1af96 <__subtf3+0x27c>
   1af68:	00b30eb3          	add	t4,t1,a1
   1af6c:	000ea503          	lw	a0,0(t4)
   1af70:	004eae83          	lw	t4,4(t4)
   1af74:	0e05                	addi	t3,t3,1
   1af76:	00e55533          	srl	a0,a0,a4
   1af7a:	010e9eb3          	sll	t4,t4,a6
   1af7e:	01d56533          	or	a0,a0,t4
   1af82:	00a32023          	sw	a0,0(t1)
   1af86:	0311                	addi	t1,t1,4
   1af88:	b7c9                	j	1af4a <__subtf3+0x230>
   1af8a:	00279713          	slli	a4,a5,0x2
   1af8e:	9746                	add	a4,a4,a7
   1af90:	00072023          	sw	zero,0(a4) # fff80000 <__BSS_END__+0xfff6139c>
   1af94:	0785                	addi	a5,a5,1
   1af96:	fed79ae3          	bne	a5,a3,1af8a <__subtf3+0x270>
   1af9a:	5782                	lw	a5,32(sp)
   1af9c:	00c03633          	snez	a2,a2
   1afa0:	8e5d                	or	a2,a2,a5
   1afa2:	d032                	sw	a2,32(sp)
   1afa4:	46c2                	lw	a3,16(sp)
   1afa6:	5782                	lw	a5,32(sp)
   1afa8:	4752                	lw	a4,20(sp)
   1afaa:	55a2                	lw	a1,40(sp)
   1afac:	97b6                	add	a5,a5,a3
   1afae:	00d7b6b3          	sltu	a3,a5,a3
   1afb2:	d83e                	sw	a5,48(sp)
   1afb4:	5792                	lw	a5,36(sp)
   1afb6:	5532                	lw	a0,44(sp)
   1afb8:	97ba                	add	a5,a5,a4
   1afba:	00d78633          	add	a2,a5,a3
   1afbe:	00e7b733          	sltu	a4,a5,a4
   1afc2:	00d637b3          	sltu	a5,a2,a3
   1afc6:	8fd9                	or	a5,a5,a4
   1afc8:	4762                	lw	a4,24(sp)
   1afca:	46f2                	lw	a3,28(sp)
   1afcc:	da32                	sw	a2,52(sp)
   1afce:	95ba                	add	a1,a1,a4
   1afd0:	00f58633          	add	a2,a1,a5
   1afd4:	00e5b733          	sltu	a4,a1,a4
   1afd8:	00f637b3          	sltu	a5,a2,a5
   1afdc:	96aa                	add	a3,a3,a0
   1afde:	8f5d                	or	a4,a4,a5
   1afe0:	9736                	add	a4,a4,a3
   1afe2:	dc32                	sw	a2,56(sp)
   1afe4:	de3a                	sw	a4,60(sp)
   1afe6:	bd9d                	j	1ae5c <__subtf3+0x142>
   1afe8:	28070c63          	beqz	a4,1b280 <__subtf3+0x566>
   1afec:	16041d63          	bnez	s0,1b166 <__subtf3+0x44c>
   1aff0:	48d2                	lw	a7,20(sp)
   1aff2:	4562                	lw	a0,24(sp)
   1aff4:	4e72                	lw	t3,28(sp)
   1aff6:	00a8e333          	or	t1,a7,a0
   1affa:	01c36333          	or	t1,t1,t3
   1affe:	00d36333          	or	t1,t1,a3
   1b002:	0e031f63          	bnez	t1,1b100 <__subtf3+0x3e6>
   1b006:	d83e                	sw	a5,48(sp)
   1b008:	5792                	lw	a5,36(sp)
   1b00a:	8432                	mv	s0,a2
   1b00c:	da3e                	sw	a5,52(sp)
   1b00e:	57a2                	lw	a5,40(sp)
   1b010:	dc3e                	sw	a5,56(sp)
   1b012:	57b2                	lw	a5,44(sp)
   1b014:	de3e                	sw	a5,60(sp)
   1b016:	57c2                	lw	a5,48(sp)
   1b018:	0077f713          	andi	a4,a5,7
   1b01c:	c71d                	beqz	a4,1b04a <__subtf3+0x330>
   1b01e:	00f7f713          	andi	a4,a5,15
   1b022:	4691                	li	a3,4
   1b024:	02d70363          	beq	a4,a3,1b04a <__subtf3+0x330>
   1b028:	5752                	lw	a4,52(sp)
   1b02a:	0791                	addi	a5,a5,4
   1b02c:	d83e                	sw	a5,48(sp)
   1b02e:	0047b793          	sltiu	a5,a5,4
   1b032:	973e                	add	a4,a4,a5
   1b034:	00f737b3          	sltu	a5,a4,a5
   1b038:	da3a                	sw	a4,52(sp)
   1b03a:	5762                	lw	a4,56(sp)
   1b03c:	973e                	add	a4,a4,a5
   1b03e:	dc3a                	sw	a4,56(sp)
   1b040:	00f73733          	sltu	a4,a4,a5
   1b044:	57f2                	lw	a5,60(sp)
   1b046:	973e                	add	a4,a4,a5
   1b048:	de3a                	sw	a4,60(sp)
   1b04a:	57f2                	lw	a5,60(sp)
   1b04c:	00c79713          	slli	a4,a5,0xc
   1b050:	00075c63          	bgez	a4,1b068 <__subtf3+0x34e>
   1b054:	6721                	lui	a4,0x8
   1b056:	0405                	addi	s0,s0,1
   1b058:	177d                	addi	a4,a4,-1
   1b05a:	2ee40ae3          	beq	s0,a4,1bb4e <__subtf3+0xe34>
   1b05e:	fff80737          	lui	a4,0xfff80
   1b062:	177d                	addi	a4,a4,-1
   1b064:	8ff9                	and	a5,a5,a4
   1b066:	de3e                	sw	a5,60(sp)
   1b068:	181c                	addi	a5,sp,48
   1b06a:	4681                	li	a3,0
   1b06c:	458d                	li	a1,3
   1b06e:	4398                	lw	a4,0(a5)
   1b070:	43d0                	lw	a2,4(a5)
   1b072:	0685                	addi	a3,a3,1
   1b074:	830d                	srli	a4,a4,0x3
   1b076:	0676                	slli	a2,a2,0x1d
   1b078:	8f51                	or	a4,a4,a2
   1b07a:	c398                	sw	a4,0(a5)
   1b07c:	0791                	addi	a5,a5,4
   1b07e:	feb698e3          	bne	a3,a1,1b06e <__subtf3+0x354>
   1b082:	57f2                	lw	a5,60(sp)
   1b084:	66a1                	lui	a3,0x8
   1b086:	0037d713          	srli	a4,a5,0x3
   1b08a:	de3a                	sw	a4,60(sp)
   1b08c:	fff68793          	addi	a5,a3,-1 # 7fff <__stack_chk_init-0x8075>
   1b090:	00f41e63          	bne	s0,a5,1b0ac <__subtf3+0x392>
   1b094:	5652                	lw	a2,52(sp)
   1b096:	57c2                	lw	a5,48(sp)
   1b098:	8fd1                	or	a5,a5,a2
   1b09a:	5662                	lw	a2,56(sp)
   1b09c:	8fd1                	or	a5,a5,a2
   1b09e:	8fd9                	or	a5,a5,a4
   1b0a0:	c791                	beqz	a5,1b0ac <__subtf3+0x392>
   1b0a2:	de36                	sw	a3,60(sp)
   1b0a4:	dc02                	sw	zero,56(sp)
   1b0a6:	da02                	sw	zero,52(sp)
   1b0a8:	d802                	sw	zero,48(sp)
   1b0aa:	4901                	li	s2,0
   1b0ac:	57f2                	lw	a5,60(sp)
   1b0ae:	80010737          	lui	a4,0x80010
   1b0b2:	177d                	addi	a4,a4,-1
   1b0b4:	00f11623          	sh	a5,12(sp)
   1b0b8:	67a1                	lui	a5,0x8
   1b0ba:	17fd                	addi	a5,a5,-1
   1b0bc:	8c7d                	and	s0,s0,a5
   1b0be:	01041793          	slli	a5,s0,0x10
   1b0c2:	4432                	lw	s0,12(sp)
   1b0c4:	40f6                	lw	ra,92(sp)
   1b0c6:	8526                	mv	a0,s1
   1b0c8:	8c79                	and	s0,s0,a4
   1b0ca:	8c5d                	or	s0,s0,a5
   1b0cc:	01f91793          	slli	a5,s2,0x1f
   1b0d0:	80000937          	lui	s2,0x80000
   1b0d4:	fff94913          	not	s2,s2
   1b0d8:	01247433          	and	s0,s0,s2
   1b0dc:	00f46933          	or	s2,s0,a5
   1b0e0:	57c2                	lw	a5,48(sp)
   1b0e2:	4466                	lw	s0,88(sp)
   1b0e4:	0124a623          	sw	s2,12(s1) # ffffc00c <__BSS_END__+0xfffdd3a8>
   1b0e8:	c09c                	sw	a5,0(s1)
   1b0ea:	57d2                	lw	a5,52(sp)
   1b0ec:	4946                	lw	s2,80(sp)
   1b0ee:	49b6                	lw	s3,76(sp)
   1b0f0:	c0dc                	sw	a5,4(s1)
   1b0f2:	57e2                	lw	a5,56(sp)
   1b0f4:	4a26                	lw	s4,72(sp)
   1b0f6:	4a96                	lw	s5,68(sp)
   1b0f8:	c49c                	sw	a5,8(s1)
   1b0fa:	44d6                	lw	s1,84(sp)
   1b0fc:	6125                	addi	sp,sp,96
   1b0fe:	8082                	ret
   1b100:	537d                	li	t1,-1
   1b102:	04671263          	bne	a4,t1,1b146 <__subtf3+0x42c>
   1b106:	5592                	lw	a1,36(sp)
   1b108:	96be                	add	a3,a3,a5
   1b10a:	00f6b7b3          	sltu	a5,a3,a5
   1b10e:	00b88833          	add	a6,a7,a1
   1b112:	00f80733          	add	a4,a6,a5
   1b116:	00f737b3          	sltu	a5,a4,a5
   1b11a:	da3a                	sw	a4,52(sp)
   1b11c:	5722                	lw	a4,40(sp)
   1b11e:	00b835b3          	sltu	a1,a6,a1
   1b122:	8fcd                	or	a5,a5,a1
   1b124:	d836                	sw	a3,48(sp)
   1b126:	00e506b3          	add	a3,a0,a4
   1b12a:	00f685b3          	add	a1,a3,a5
   1b12e:	00f5b7b3          	sltu	a5,a1,a5
   1b132:	00e6b733          	sltu	a4,a3,a4
   1b136:	8f5d                	or	a4,a4,a5
   1b138:	57b2                	lw	a5,44(sp)
   1b13a:	dc2e                	sw	a1,56(sp)
   1b13c:	9e3e                	add	t3,t3,a5
   1b13e:	9772                	add	a4,a4,t3
   1b140:	de3a                	sw	a4,60(sp)
   1b142:	8432                	mv	s0,a2
   1b144:	bb21                	j	1ae5c <__subtf3+0x142>
   1b146:	66a1                	lui	a3,0x8
   1b148:	16fd                	addi	a3,a3,-1
   1b14a:	ead60ee3          	beq	a2,a3,1b006 <__subtf3+0x2ec>
   1b14e:	fff74713          	not	a4,a4
   1b152:	07400793          	li	a5,116
   1b156:	02e7d763          	bge	a5,a4,1b184 <__subtf3+0x46a>
   1b15a:	4785                	li	a5,1
   1b15c:	ce02                	sw	zero,28(sp)
   1b15e:	cc02                	sw	zero,24(sp)
   1b160:	ca02                	sw	zero,20(sp)
   1b162:	c83e                	sw	a5,16(sp)
   1b164:	a8e9                	j	1b23e <__subtf3+0x524>
   1b166:	66a1                	lui	a3,0x8
   1b168:	16fd                	addi	a3,a3,-1
   1b16a:	e8d60ee3          	beq	a2,a3,1b006 <__subtf3+0x2ec>
   1b16e:	47f2                	lw	a5,28(sp)
   1b170:	000806b7          	lui	a3,0x80
   1b174:	8fd5                	or	a5,a5,a3
   1b176:	ce3e                	sw	a5,28(sp)
   1b178:	f8c00793          	li	a5,-116
   1b17c:	fcf74fe3          	blt	a4,a5,1b15a <__subtf3+0x440>
   1b180:	40e00733          	neg	a4,a4
   1b184:	40575693          	srai	a3,a4,0x5
   1b188:	4501                	li	a0,0
   1b18a:	8b7d                	andi	a4,a4,31
   1b18c:	4781                	li	a5,0
   1b18e:	00279893          	slli	a7,a5,0x2
   1b192:	00d79b63          	bne	a5,a3,1b1a8 <__subtf3+0x48e>
   1b196:	eb0d                	bnez	a4,1b1c8 <__subtf3+0x4ae>
   1b198:	468d                	li	a3,3
   1b19a:	8e9d                	sub	a3,a3,a5
   1b19c:	00e6dd63          	bge	a3,a4,1b1b6 <__subtf3+0x49c>
   1b1a0:	4711                	li	a4,4
   1b1a2:	40f707b3          	sub	a5,a4,a5
   1b1a6:	a8a1                	j	1b1fe <__subtf3+0x4e4>
   1b1a8:	98c2                	add	a7,a7,a6
   1b1aa:	0008a883          	lw	a7,0(a7)
   1b1ae:	0785                	addi	a5,a5,1
   1b1b0:	01156533          	or	a0,a0,a7
   1b1b4:	bfe9                	j	1b18e <__subtf3+0x474>
   1b1b6:	01158333          	add	t1,a1,a7
   1b1ba:	00032303          	lw	t1,0(t1)
   1b1be:	0705                	addi	a4,a4,1
   1b1c0:	0591                	addi	a1,a1,4
   1b1c2:	fe65ae23          	sw	t1,-4(a1)
   1b1c6:	bfd9                	j	1b19c <__subtf3+0x482>
   1b1c8:	0094                	addi	a3,sp,64
   1b1ca:	96c6                	add	a3,a3,a7
   1b1cc:	fd06a683          	lw	a3,-48(a3) # 7ffd0 <__BSS_END__+0x6136c>
   1b1d0:	02000e13          	li	t3,32
   1b1d4:	40ee0e33          	sub	t3,t3,a4
   1b1d8:	01c696b3          	sll	a3,a3,t3
   1b1dc:	8d55                	or	a0,a0,a3
   1b1de:	468d                	li	a3,3
   1b1e0:	4e81                	li	t4,0
   1b1e2:	8e9d                	sub	a3,a3,a5
   1b1e4:	00decf63          	blt	t4,a3,1b202 <__subtf3+0x4e8>
   1b1e8:	4591                	li	a1,4
   1b1ea:	40f587b3          	sub	a5,a1,a5
   1b1ee:	068a                	slli	a3,a3,0x2
   1b1f0:	008c                	addi	a1,sp,64
   1b1f2:	96ae                	add	a3,a3,a1
   1b1f4:	45f2                	lw	a1,28(sp)
   1b1f6:	00e5d733          	srl	a4,a1,a4
   1b1fa:	fce6a823          	sw	a4,-48(a3)
   1b1fe:	4691                	li	a3,4
   1b200:	a805                	j	1b230 <__subtf3+0x516>
   1b202:	01158f33          	add	t5,a1,a7
   1b206:	000f2303          	lw	t1,0(t5)
   1b20a:	004f2f03          	lw	t5,4(t5)
   1b20e:	0e85                	addi	t4,t4,1
   1b210:	00e35333          	srl	t1,t1,a4
   1b214:	01cf1f33          	sll	t5,t5,t3
   1b218:	01e36333          	or	t1,t1,t5
   1b21c:	0065a023          	sw	t1,0(a1)
   1b220:	0591                	addi	a1,a1,4
   1b222:	b7c9                	j	1b1e4 <__subtf3+0x4ca>
   1b224:	00279713          	slli	a4,a5,0x2
   1b228:	9742                	add	a4,a4,a6
   1b22a:	00072023          	sw	zero,0(a4) # 80010000 <__BSS_END__+0x7fff139c>
   1b22e:	0785                	addi	a5,a5,1
   1b230:	fed79ae3          	bne	a5,a3,1b224 <__subtf3+0x50a>
   1b234:	47c2                	lw	a5,16(sp)
   1b236:	00a03533          	snez	a0,a0
   1b23a:	8d5d                	or	a0,a0,a5
   1b23c:	c82a                	sw	a0,16(sp)
   1b23e:	5682                	lw	a3,32(sp)
   1b240:	47c2                	lw	a5,16(sp)
   1b242:	5712                	lw	a4,36(sp)
   1b244:	4562                	lw	a0,24(sp)
   1b246:	97b6                	add	a5,a5,a3
   1b248:	00d7b6b3          	sltu	a3,a5,a3
   1b24c:	d83e                	sw	a5,48(sp)
   1b24e:	47d2                	lw	a5,20(sp)
   1b250:	4872                	lw	a6,28(sp)
   1b252:	97ba                	add	a5,a5,a4
   1b254:	00d785b3          	add	a1,a5,a3
   1b258:	00e7b733          	sltu	a4,a5,a4
   1b25c:	00d5b7b3          	sltu	a5,a1,a3
   1b260:	8fd9                	or	a5,a5,a4
   1b262:	5722                	lw	a4,40(sp)
   1b264:	56b2                	lw	a3,44(sp)
   1b266:	da2e                	sw	a1,52(sp)
   1b268:	953a                	add	a0,a0,a4
   1b26a:	00f505b3          	add	a1,a0,a5
   1b26e:	00e53733          	sltu	a4,a0,a4
   1b272:	00f5b7b3          	sltu	a5,a1,a5
   1b276:	96c2                	add	a3,a3,a6
   1b278:	8f5d                	or	a4,a4,a5
   1b27a:	dc2e                	sw	a1,56(sp)
   1b27c:	9736                	add	a4,a4,a3
   1b27e:	b5c9                	j	1b140 <__subtf3+0x426>
   1b280:	6f21                	lui	t5,0x8
   1b282:	00140593          	addi	a1,s0,1 # 800001 <__BSS_END__+0x7e139d>
   1b286:	ffff0e93          	addi	t4,t5,-1 # 7fff <__stack_chk_init-0x8075>
   1b28a:	01d5f2b3          	and	t0,a1,t4
   1b28e:	4f85                	li	t6,1
   1b290:	5612                	lw	a2,36(sp)
   1b292:	5722                	lw	a4,40(sp)
   1b294:	5532                	lw	a0,44(sp)
   1b296:	4e52                	lw	t3,20(sp)
   1b298:	48e2                	lw	a7,24(sp)
   1b29a:	4372                	lw	t1,28(sp)
   1b29c:	03010813          	addi	a6,sp,48
   1b2a0:	0c5fc563          	blt	t6,t0,1b36a <__subtf3+0x650>
   1b2a4:	011e65b3          	or	a1,t3,a7
   1b2a8:	0065e5b3          	or	a1,a1,t1
   1b2ac:	8dd5                	or	a1,a1,a3
   1b2ae:	e825                	bnez	s0,1b31e <__subtf3+0x604>
   1b2b0:	e591                	bnez	a1,1b2bc <__subtf3+0x5a2>
   1b2b2:	d83e                	sw	a5,48(sp)
   1b2b4:	da32                	sw	a2,52(sp)
   1b2b6:	dc3a                	sw	a4,56(sp)
   1b2b8:	de2a                	sw	a0,60(sp)
   1b2ba:	bbb1                	j	1b016 <__subtf3+0x2fc>
   1b2bc:	00e665b3          	or	a1,a2,a4
   1b2c0:	8dc9                	or	a1,a1,a0
   1b2c2:	8ddd                	or	a1,a1,a5
   1b2c4:	e591                	bnez	a1,1b2d0 <__subtf3+0x5b6>
   1b2c6:	d836                	sw	a3,48(sp)
   1b2c8:	da72                	sw	t3,52(sp)
   1b2ca:	dc46                	sw	a7,56(sp)
   1b2cc:	de1a                	sw	t1,60(sp)
   1b2ce:	b3a1                	j	1b016 <__subtf3+0x2fc>
   1b2d0:	97b6                	add	a5,a5,a3
   1b2d2:	9672                	add	a2,a2,t3
   1b2d4:	d83e                	sw	a5,48(sp)
   1b2d6:	00d7b7b3          	sltu	a5,a5,a3
   1b2da:	00f606b3          	add	a3,a2,a5
   1b2de:	da36                	sw	a3,52(sp)
   1b2e0:	01c63633          	sltu	a2,a2,t3
   1b2e4:	00f6b6b3          	sltu	a3,a3,a5
   1b2e8:	8ed1                	or	a3,a3,a2
   1b2ea:	011705b3          	add	a1,a4,a7
   1b2ee:	00d587b3          	add	a5,a1,a3
   1b2f2:	0115b733          	sltu	a4,a1,a7
   1b2f6:	00d7b6b3          	sltu	a3,a5,a3
   1b2fa:	8ed9                	or	a3,a3,a4
   1b2fc:	00650733          	add	a4,a0,t1
   1b300:	9736                	add	a4,a4,a3
   1b302:	dc3e                	sw	a5,56(sp)
   1b304:	00c71793          	slli	a5,a4,0xc
   1b308:	0007c463          	bltz	a5,1b310 <__subtf3+0x5f6>
   1b30c:	de3a                	sw	a4,60(sp)
   1b30e:	b321                	j	1b016 <__subtf3+0x2fc>
   1b310:	fff806b7          	lui	a3,0xfff80
   1b314:	16fd                	addi	a3,a3,-1
   1b316:	8f75                	and	a4,a4,a3
   1b318:	de3a                	sw	a4,60(sp)
   1b31a:	4405                	li	s0,1
   1b31c:	b9ed                	j	1b016 <__subtf3+0x2fc>
   1b31e:	e599                	bnez	a1,1b32c <__subtf3+0x612>
   1b320:	d83e                	sw	a5,48(sp)
   1b322:	da32                	sw	a2,52(sp)
   1b324:	dc3a                	sw	a4,56(sp)
   1b326:	de2a                	sw	a0,60(sp)
   1b328:	8476                	mv	s0,t4
   1b32a:	b1f5                	j	1b016 <__subtf3+0x2fc>
   1b32c:	8f51                	or	a4,a4,a2
   1b32e:	8f49                	or	a4,a4,a0
   1b330:	8fd9                	or	a5,a5,a4
   1b332:	e791                	bnez	a5,1b33e <__subtf3+0x624>
   1b334:	d836                	sw	a3,48(sp)
   1b336:	da72                	sw	t3,52(sp)
   1b338:	dc46                	sw	a7,56(sp)
   1b33a:	de1a                	sw	t1,60(sp)
   1b33c:	b7f5                	j	1b328 <__subtf3+0x60e>
   1b33e:	de7a                	sw	t5,60(sp)
   1b340:	dc02                	sw	zero,56(sp)
   1b342:	da02                	sw	zero,52(sp)
   1b344:	d802                	sw	zero,48(sp)
   1b346:	187c                	addi	a5,sp,60
   1b348:	4398                	lw	a4,0(a5)
   1b34a:	ffc7a683          	lw	a3,-4(a5) # 7ffc <__stack_chk_init-0x8078>
   1b34e:	17f1                	addi	a5,a5,-4
   1b350:	070e                	slli	a4,a4,0x3
   1b352:	82f5                	srli	a3,a3,0x1d
   1b354:	8f55                	or	a4,a4,a3
   1b356:	c3d8                	sw	a4,4(a5)
   1b358:	fef818e3          	bne	a6,a5,1b348 <__subtf3+0x62e>
   1b35c:	57c2                	lw	a5,48(sp)
   1b35e:	6421                	lui	s0,0x8
   1b360:	147d                	addi	s0,s0,-1
   1b362:	078e                	slli	a5,a5,0x3
   1b364:	d83e                	sw	a5,48(sp)
   1b366:	4901                	li	s2,0
   1b368:	b17d                	j	1b016 <__subtf3+0x2fc>
   1b36a:	97b6                	add	a5,a5,a3
   1b36c:	9672                	add	a2,a2,t3
   1b36e:	d83e                	sw	a5,48(sp)
   1b370:	00d7b7b3          	sltu	a5,a5,a3
   1b374:	00f606b3          	add	a3,a2,a5
   1b378:	da36                	sw	a3,52(sp)
   1b37a:	01c63633          	sltu	a2,a2,t3
   1b37e:	00f6b6b3          	sltu	a3,a3,a5
   1b382:	8ed1                	or	a3,a3,a2
   1b384:	9746                	add	a4,a4,a7
   1b386:	00d70633          	add	a2,a4,a3
   1b38a:	00d636b3          	sltu	a3,a2,a3
   1b38e:	01173733          	sltu	a4,a4,a7
   1b392:	8ed9                	or	a3,a3,a4
   1b394:	00650733          	add	a4,a0,t1
   1b398:	9736                	add	a4,a4,a3
   1b39a:	dc32                	sw	a2,56(sp)
   1b39c:	de3a                	sw	a4,60(sp)
   1b39e:	87c2                	mv	a5,a6
   1b3a0:	4681                	li	a3,0
   1b3a2:	450d                	li	a0,3
   1b3a4:	4398                	lw	a4,0(a5)
   1b3a6:	43d0                	lw	a2,4(a5)
   1b3a8:	0685                	addi	a3,a3,1
   1b3aa:	8305                	srli	a4,a4,0x1
   1b3ac:	067e                	slli	a2,a2,0x1f
   1b3ae:	8f51                	or	a4,a4,a2
   1b3b0:	c398                	sw	a4,0(a5)
   1b3b2:	0791                	addi	a5,a5,4
   1b3b4:	fea698e3          	bne	a3,a0,1b3a4 <__subtf3+0x68a>
   1b3b8:	57f2                	lw	a5,60(sp)
   1b3ba:	842e                	mv	s0,a1
   1b3bc:	8385                	srli	a5,a5,0x1
   1b3be:	de3e                	sw	a5,60(sp)
   1b3c0:	67a1                	lui	a5,0x8
   1b3c2:	17fd                	addi	a5,a5,-1
   1b3c4:	c4f419e3          	bne	s0,a5,1b016 <__subtf3+0x2fc>
   1b3c8:	de02                	sw	zero,60(sp)
   1b3ca:	dc02                	sw	zero,56(sp)
   1b3cc:	da02                	sw	zero,52(sp)
   1b3ce:	d802                	sw	zero,48(sp)
   1b3d0:	b199                	j	1b016 <__subtf3+0x2fc>
   1b3d2:	1ce05663          	blez	a4,1b59e <__subtf3+0x884>
   1b3d6:	e255                	bnez	a2,1b47a <__subtf3+0x760>
   1b3d8:	5512                	lw	a0,36(sp)
   1b3da:	55a2                	lw	a1,40(sp)
   1b3dc:	5e32                	lw	t3,44(sp)
   1b3de:	00b56833          	or	a6,a0,a1
   1b3e2:	01c86833          	or	a6,a6,t3
   1b3e6:	00f86833          	or	a6,a6,a5
   1b3ea:	a0080ee3          	beqz	a6,1ae06 <__subtf3+0xec>
   1b3ee:	fff70613          	addi	a2,a4,-1
   1b3f2:	e635                	bnez	a2,1b45e <__subtf3+0x744>
   1b3f4:	48d2                	lw	a7,20(sp)
   1b3f6:	40f687b3          	sub	a5,a3,a5
   1b3fa:	00f6b733          	sltu	a4,a3,a5
   1b3fe:	40a88833          	sub	a6,a7,a0
   1b402:	0108b333          	sltu	t1,a7,a6
   1b406:	40e80833          	sub	a6,a6,a4
   1b40a:	d83e                	sw	a5,48(sp)
   1b40c:	da42                	sw	a6,52(sp)
   1b40e:	4701                	li	a4,0
   1b410:	00f6f663          	bgeu	a3,a5,1b41c <__subtf3+0x702>
   1b414:	41150733          	sub	a4,a0,a7
   1b418:	00173713          	seqz	a4,a4
   1b41c:	4862                	lw	a6,24(sp)
   1b41e:	00676733          	or	a4,a4,t1
   1b422:	40b806b3          	sub	a3,a6,a1
   1b426:	00d83533          	sltu	a0,a6,a3
   1b42a:	8e99                	sub	a3,a3,a4
   1b42c:	dc36                	sw	a3,56(sp)
   1b42e:	c709                	beqz	a4,1b438 <__subtf3+0x71e>
   1b430:	410585b3          	sub	a1,a1,a6
   1b434:	0015b613          	seqz	a2,a1
   1b438:	47f2                	lw	a5,28(sp)
   1b43a:	8e49                	or	a2,a2,a0
   1b43c:	4405                	li	s0,1
   1b43e:	41c787b3          	sub	a5,a5,t3
   1b442:	40c78633          	sub	a2,a5,a2
   1b446:	de32                	sw	a2,60(sp)
   1b448:	57f2                	lw	a5,60(sp)
   1b44a:	00c79713          	slli	a4,a5,0xc
   1b44e:	bc0754e3          	bgez	a4,1b016 <__subtf3+0x2fc>
   1b452:	00080737          	lui	a4,0x80
   1b456:	177d                	addi	a4,a4,-1
   1b458:	8ff9                	and	a5,a5,a4
   1b45a:	de3e                	sw	a5,60(sp)
   1b45c:	ab2d                	j	1b996 <__subtf3+0xc7c>
   1b45e:	67a1                	lui	a5,0x8
   1b460:	17fd                	addi	a5,a5,-1
   1b462:	9af702e3          	beq	a4,a5,1ae06 <__subtf3+0xec>
   1b466:	07400793          	li	a5,116
   1b46a:	02c7d663          	bge	a5,a2,1b496 <__subtf3+0x77c>
   1b46e:	4785                	li	a5,1
   1b470:	d602                	sw	zero,44(sp)
   1b472:	d402                	sw	zero,40(sp)
   1b474:	d202                	sw	zero,36(sp)
   1b476:	d03e                	sw	a5,32(sp)
   1b478:	a8c9                	j	1b54a <__subtf3+0x830>
   1b47a:	67a1                	lui	a5,0x8
   1b47c:	17fd                	addi	a5,a5,-1
   1b47e:	a4f406e3          	beq	s0,a5,1aeca <__subtf3+0x1b0>
   1b482:	57b2                	lw	a5,44(sp)
   1b484:	000806b7          	lui	a3,0x80
   1b488:	8fd5                	or	a5,a5,a3
   1b48a:	d63e                	sw	a5,44(sp)
   1b48c:	07400793          	li	a5,116
   1b490:	fce7cfe3          	blt	a5,a4,1b46e <__subtf3+0x754>
   1b494:	863a                	mv	a2,a4
   1b496:	40565713          	srai	a4,a2,0x5
   1b49a:	4681                	li	a3,0
   1b49c:	8a7d                	andi	a2,a2,31
   1b49e:	4781                	li	a5,0
   1b4a0:	00279593          	slli	a1,a5,0x2
   1b4a4:	00e79b63          	bne	a5,a4,1b4ba <__subtf3+0x7a0>
   1b4a8:	e615                	bnez	a2,1b4d4 <__subtf3+0x7ba>
   1b4aa:	470d                	li	a4,3
   1b4ac:	8f1d                	sub	a4,a4,a5
   1b4ae:	00c75b63          	bge	a4,a2,1b4c4 <__subtf3+0x7aa>
   1b4b2:	4711                	li	a4,4
   1b4b4:	40f707b3          	sub	a5,a4,a5
   1b4b8:	a889                	j	1b50a <__subtf3+0x7f0>
   1b4ba:	95c6                	add	a1,a1,a7
   1b4bc:	418c                	lw	a1,0(a1)
   1b4be:	0785                	addi	a5,a5,1
   1b4c0:	8ecd                	or	a3,a3,a1
   1b4c2:	bff9                	j	1b4a0 <__subtf3+0x786>
   1b4c4:	00b30533          	add	a0,t1,a1
   1b4c8:	4108                	lw	a0,0(a0)
   1b4ca:	0605                	addi	a2,a2,1
   1b4cc:	0311                	addi	t1,t1,4
   1b4ce:	fea32e23          	sw	a0,-4(t1)
   1b4d2:	bff1                	j	1b4ae <__subtf3+0x794>
   1b4d4:	0098                	addi	a4,sp,64
   1b4d6:	972e                	add	a4,a4,a1
   1b4d8:	fe072703          	lw	a4,-32(a4) # 7ffe0 <__BSS_END__+0x6137c>
   1b4dc:	02000813          	li	a6,32
   1b4e0:	40c80833          	sub	a6,a6,a2
   1b4e4:	01071733          	sll	a4,a4,a6
   1b4e8:	8ed9                	or	a3,a3,a4
   1b4ea:	470d                	li	a4,3
   1b4ec:	4e01                	li	t3,0
   1b4ee:	8f1d                	sub	a4,a4,a5
   1b4f0:	00ee4f63          	blt	t3,a4,1b50e <__subtf3+0x7f4>
   1b4f4:	4591                	li	a1,4
   1b4f6:	40f587b3          	sub	a5,a1,a5
   1b4fa:	070a                	slli	a4,a4,0x2
   1b4fc:	008c                	addi	a1,sp,64
   1b4fe:	972e                	add	a4,a4,a1
   1b500:	55b2                	lw	a1,44(sp)
   1b502:	00c5d633          	srl	a2,a1,a2
   1b506:	fec72023          	sw	a2,-32(a4)
   1b50a:	4611                	li	a2,4
   1b50c:	a805                	j	1b53c <__subtf3+0x822>
   1b50e:	00b30eb3          	add	t4,t1,a1
   1b512:	000ea503          	lw	a0,0(t4)
   1b516:	004eae83          	lw	t4,4(t4)
   1b51a:	0e05                	addi	t3,t3,1
   1b51c:	00c55533          	srl	a0,a0,a2
   1b520:	010e9eb3          	sll	t4,t4,a6
   1b524:	01d56533          	or	a0,a0,t4
   1b528:	00a32023          	sw	a0,0(t1)
   1b52c:	0311                	addi	t1,t1,4
   1b52e:	b7c9                	j	1b4f0 <__subtf3+0x7d6>
   1b530:	00279713          	slli	a4,a5,0x2
   1b534:	9746                	add	a4,a4,a7
   1b536:	00072023          	sw	zero,0(a4)
   1b53a:	0785                	addi	a5,a5,1
   1b53c:	fec79ae3          	bne	a5,a2,1b530 <__subtf3+0x816>
   1b540:	5782                	lw	a5,32(sp)
   1b542:	00d036b3          	snez	a3,a3
   1b546:	8edd                	or	a3,a3,a5
   1b548:	d036                	sw	a3,32(sp)
   1b54a:	46d2                	lw	a3,20(sp)
   1b54c:	45c2                	lw	a1,16(sp)
   1b54e:	5702                	lw	a4,32(sp)
   1b550:	5792                	lw	a5,36(sp)
   1b552:	40e58733          	sub	a4,a1,a4
   1b556:	40f687b3          	sub	a5,a3,a5
   1b55a:	00f6b633          	sltu	a2,a3,a5
   1b55e:	00e5b6b3          	sltu	a3,a1,a4
   1b562:	40d786b3          	sub	a3,a5,a3
   1b566:	da36                	sw	a3,52(sp)
   1b568:	d83a                	sw	a4,48(sp)
   1b56a:	4681                	li	a3,0
   1b56c:	00e5f463          	bgeu	a1,a4,1b574 <__subtf3+0x85a>
   1b570:	0017b693          	seqz	a3,a5
   1b574:	8ed1                	or	a3,a3,a2
   1b576:	5722                	lw	a4,40(sp)
   1b578:	4662                	lw	a2,24(sp)
   1b57a:	40e60733          	sub	a4,a2,a4
   1b57e:	40d707b3          	sub	a5,a4,a3
   1b582:	dc3e                	sw	a5,56(sp)
   1b584:	00e635b3          	sltu	a1,a2,a4
   1b588:	4601                	li	a2,0
   1b58a:	c299                	beqz	a3,1b590 <__subtf3+0x876>
   1b58c:	00173613          	seqz	a2,a4
   1b590:	47f2                	lw	a5,28(sp)
   1b592:	5732                	lw	a4,44(sp)
   1b594:	8e4d                	or	a2,a2,a1
   1b596:	8f99                	sub	a5,a5,a4
   1b598:	8f91                	sub	a5,a5,a2
   1b59a:	de3e                	sw	a5,60(sp)
   1b59c:	b575                	j	1b448 <__subtf3+0x72e>
   1b59e:	1e070063          	beqz	a4,1b77e <__subtf3+0xa64>
   1b5a2:	e455                	bnez	s0,1b64e <__subtf3+0x934>
   1b5a4:	4352                	lw	t1,20(sp)
   1b5a6:	48e2                	lw	a7,24(sp)
   1b5a8:	4ef2                	lw	t4,28(sp)
   1b5aa:	01136e33          	or	t3,t1,a7
   1b5ae:	01de6e33          	or	t3,t3,t4
   1b5b2:	00de6e33          	or	t3,t3,a3
   1b5b6:	000e1c63          	bnez	t3,1b5ce <__subtf3+0x8b4>
   1b5ba:	d83e                	sw	a5,48(sp)
   1b5bc:	5792                	lw	a5,36(sp)
   1b5be:	8432                	mv	s0,a2
   1b5c0:	da3e                	sw	a5,52(sp)
   1b5c2:	57a2                	lw	a5,40(sp)
   1b5c4:	dc3e                	sw	a5,56(sp)
   1b5c6:	57b2                	lw	a5,44(sp)
   1b5c8:	de3e                	sw	a5,60(sp)
   1b5ca:	892a                	mv	s2,a0
   1b5cc:	b4a9                	j	1b016 <__subtf3+0x2fc>
   1b5ce:	5e7d                	li	t3,-1
   1b5d0:	05c71f63          	bne	a4,t3,1b62e <__subtf3+0x914>
   1b5d4:	5812                	lw	a6,36(sp)
   1b5d6:	40d786b3          	sub	a3,a5,a3
   1b5da:	00d7b733          	sltu	a4,a5,a3
   1b5de:	406805b3          	sub	a1,a6,t1
   1b5e2:	00b83e33          	sltu	t3,a6,a1
   1b5e6:	8d99                	sub	a1,a1,a4
   1b5e8:	d836                	sw	a3,48(sp)
   1b5ea:	da2e                	sw	a1,52(sp)
   1b5ec:	4701                	li	a4,0
   1b5ee:	00d7f663          	bgeu	a5,a3,1b5fa <__subtf3+0x8e0>
   1b5f2:	41030733          	sub	a4,t1,a6
   1b5f6:	00173713          	seqz	a4,a4
   1b5fa:	5822                	lw	a6,40(sp)
   1b5fc:	01c76733          	or	a4,a4,t3
   1b600:	4681                	li	a3,0
   1b602:	411805b3          	sub	a1,a6,a7
   1b606:	00b83333          	sltu	t1,a6,a1
   1b60a:	8d99                	sub	a1,a1,a4
   1b60c:	dc2e                	sw	a1,56(sp)
   1b60e:	c709                	beqz	a4,1b618 <__subtf3+0x8fe>
   1b610:	410888b3          	sub	a7,a7,a6
   1b614:	0018b693          	seqz	a3,a7
   1b618:	57b2                	lw	a5,44(sp)
   1b61a:	0066e8b3          	or	a7,a3,t1
   1b61e:	41d787b3          	sub	a5,a5,t4
   1b622:	411787b3          	sub	a5,a5,a7
   1b626:	de3e                	sw	a5,60(sp)
   1b628:	8432                	mv	s0,a2
   1b62a:	892a                	mv	s2,a0
   1b62c:	bd31                	j	1b448 <__subtf3+0x72e>
   1b62e:	66a1                	lui	a3,0x8
   1b630:	16fd                	addi	a3,a3,-1
   1b632:	f8d604e3          	beq	a2,a3,1b5ba <__subtf3+0x8a0>
   1b636:	fff74713          	not	a4,a4
   1b63a:	07400793          	li	a5,116
   1b63e:	02e7d763          	bge	a5,a4,1b66c <__subtf3+0x952>
   1b642:	4785                	li	a5,1
   1b644:	ce02                	sw	zero,28(sp)
   1b646:	cc02                	sw	zero,24(sp)
   1b648:	ca02                	sw	zero,20(sp)
   1b64a:	c83e                	sw	a5,16(sp)
   1b64c:	a8f9                	j	1b72a <__subtf3+0xa10>
   1b64e:	66a1                	lui	a3,0x8
   1b650:	16fd                	addi	a3,a3,-1
   1b652:	f6d604e3          	beq	a2,a3,1b5ba <__subtf3+0x8a0>
   1b656:	47f2                	lw	a5,28(sp)
   1b658:	000806b7          	lui	a3,0x80
   1b65c:	8fd5                	or	a5,a5,a3
   1b65e:	ce3e                	sw	a5,28(sp)
   1b660:	f8c00793          	li	a5,-116
   1b664:	fcf74fe3          	blt	a4,a5,1b642 <__subtf3+0x928>
   1b668:	40e00733          	neg	a4,a4
   1b66c:	40575693          	srai	a3,a4,0x5
   1b670:	4881                	li	a7,0
   1b672:	8b7d                	andi	a4,a4,31
   1b674:	4781                	li	a5,0
   1b676:	00279313          	slli	t1,a5,0x2
   1b67a:	00d79b63          	bne	a5,a3,1b690 <__subtf3+0x976>
   1b67e:	eb0d                	bnez	a4,1b6b0 <__subtf3+0x996>
   1b680:	468d                	li	a3,3
   1b682:	8e9d                	sub	a3,a3,a5
   1b684:	00e6dd63          	bge	a3,a4,1b69e <__subtf3+0x984>
   1b688:	4711                	li	a4,4
   1b68a:	40f707b3          	sub	a5,a4,a5
   1b68e:	a8a9                	j	1b6e8 <__subtf3+0x9ce>
   1b690:	9342                	add	t1,t1,a6
   1b692:	00032303          	lw	t1,0(t1)
   1b696:	0785                	addi	a5,a5,1
   1b698:	0068e8b3          	or	a7,a7,t1
   1b69c:	bfe9                	j	1b676 <__subtf3+0x95c>
   1b69e:	00658e33          	add	t3,a1,t1
   1b6a2:	000e2e03          	lw	t3,0(t3)
   1b6a6:	0705                	addi	a4,a4,1
   1b6a8:	0591                	addi	a1,a1,4
   1b6aa:	ffc5ae23          	sw	t3,-4(a1)
   1b6ae:	bfd9                	j	1b684 <__subtf3+0x96a>
   1b6b0:	0094                	addi	a3,sp,64
   1b6b2:	969a                	add	a3,a3,t1
   1b6b4:	fd06a683          	lw	a3,-48(a3) # 7ffd0 <__BSS_END__+0x6136c>
   1b6b8:	02000e93          	li	t4,32
   1b6bc:	40ee8eb3          	sub	t4,t4,a4
   1b6c0:	01d696b3          	sll	a3,a3,t4
   1b6c4:	00d8e8b3          	or	a7,a7,a3
   1b6c8:	468d                	li	a3,3
   1b6ca:	4f01                	li	t5,0
   1b6cc:	8e9d                	sub	a3,a3,a5
   1b6ce:	00df4f63          	blt	t5,a3,1b6ec <__subtf3+0x9d2>
   1b6d2:	4591                	li	a1,4
   1b6d4:	40f587b3          	sub	a5,a1,a5
   1b6d8:	068a                	slli	a3,a3,0x2
   1b6da:	008c                	addi	a1,sp,64
   1b6dc:	96ae                	add	a3,a3,a1
   1b6de:	45f2                	lw	a1,28(sp)
   1b6e0:	00e5d733          	srl	a4,a1,a4
   1b6e4:	fce6a823          	sw	a4,-48(a3)
   1b6e8:	4691                	li	a3,4
   1b6ea:	a805                	j	1b71a <__subtf3+0xa00>
   1b6ec:	00658fb3          	add	t6,a1,t1
   1b6f0:	000fae03          	lw	t3,0(t6)
   1b6f4:	004faf83          	lw	t6,4(t6)
   1b6f8:	0f05                	addi	t5,t5,1
   1b6fa:	00ee5e33          	srl	t3,t3,a4
   1b6fe:	01df9fb3          	sll	t6,t6,t4
   1b702:	01fe6e33          	or	t3,t3,t6
   1b706:	01c5a023          	sw	t3,0(a1)
   1b70a:	0591                	addi	a1,a1,4
   1b70c:	b7c9                	j	1b6ce <__subtf3+0x9b4>
   1b70e:	00279713          	slli	a4,a5,0x2
   1b712:	9742                	add	a4,a4,a6
   1b714:	00072023          	sw	zero,0(a4)
   1b718:	0785                	addi	a5,a5,1
   1b71a:	fed79ae3          	bne	a5,a3,1b70e <__subtf3+0x9f4>
   1b71e:	47c2                	lw	a5,16(sp)
   1b720:	011038b3          	snez	a7,a7
   1b724:	0117e8b3          	or	a7,a5,a7
   1b728:	c846                	sw	a7,16(sp)
   1b72a:	5692                	lw	a3,36(sp)
   1b72c:	5802                	lw	a6,32(sp)
   1b72e:	4742                	lw	a4,16(sp)
   1b730:	47d2                	lw	a5,20(sp)
   1b732:	40e80733          	sub	a4,a6,a4
   1b736:	40f687b3          	sub	a5,a3,a5
   1b73a:	00f6b5b3          	sltu	a1,a3,a5
   1b73e:	00e836b3          	sltu	a3,a6,a4
   1b742:	40d786b3          	sub	a3,a5,a3
   1b746:	da36                	sw	a3,52(sp)
   1b748:	d83a                	sw	a4,48(sp)
   1b74a:	4681                	li	a3,0
   1b74c:	00e87463          	bgeu	a6,a4,1b754 <__subtf3+0xa3a>
   1b750:	0017b693          	seqz	a3,a5
   1b754:	8ecd                	or	a3,a3,a1
   1b756:	4762                	lw	a4,24(sp)
   1b758:	55a2                	lw	a1,40(sp)
   1b75a:	40e58733          	sub	a4,a1,a4
   1b75e:	40d707b3          	sub	a5,a4,a3
   1b762:	dc3e                	sw	a5,56(sp)
   1b764:	00e5b833          	sltu	a6,a1,a4
   1b768:	4581                	li	a1,0
   1b76a:	c299                	beqz	a3,1b770 <__subtf3+0xa56>
   1b76c:	00173593          	seqz	a1,a4
   1b770:	57b2                	lw	a5,44(sp)
   1b772:	4772                	lw	a4,28(sp)
   1b774:	0105e5b3          	or	a1,a1,a6
   1b778:	8f99                	sub	a5,a5,a4
   1b77a:	8f8d                	sub	a5,a5,a1
   1b77c:	b56d                	j	1b626 <__subtf3+0x90c>
   1b77e:	6fa1                	lui	t6,0x8
   1b780:	00140813          	addi	a6,s0,1 # 8001 <__stack_chk_init-0x8073>
   1b784:	ffff8293          	addi	t0,t6,-1 # 7fff <__stack_chk_init-0x8075>
   1b788:	00587833          	and	a6,a6,t0
   1b78c:	4f05                	li	t5,1
   1b78e:	5592                	lw	a1,36(sp)
   1b790:	4652                	lw	a2,20(sp)
   1b792:	48e2                	lw	a7,24(sp)
   1b794:	4ef2                	lw	t4,28(sp)
   1b796:	5322                	lw	t1,40(sp)
   1b798:	5e32                	lw	t3,44(sp)
   1b79a:	150f4f63          	blt	t5,a6,1b8f8 <__subtf3+0xbde>
   1b79e:	0065e833          	or	a6,a1,t1
   1b7a2:	01166f33          	or	t5,a2,a7
   1b7a6:	01c86833          	or	a6,a6,t3
   1b7aa:	01df6f33          	or	t5,t5,t4
   1b7ae:	00f86833          	or	a6,a6,a5
   1b7b2:	00df6f33          	or	t5,t5,a3
   1b7b6:	ec61                	bnez	s0,1b88e <__subtf3+0xb74>
   1b7b8:	000f1b63          	bnez	t5,1b7ce <__subtf3+0xab4>
   1b7bc:	d83e                	sw	a5,48(sp)
   1b7be:	da2e                	sw	a1,52(sp)
   1b7c0:	dc1a                	sw	t1,56(sp)
   1b7c2:	de72                	sw	t3,60(sp)
   1b7c4:	e00813e3          	bnez	a6,1b5ca <__subtf3+0x8b0>
   1b7c8:	4401                	li	s0,0
   1b7ca:	4901                	li	s2,0
   1b7cc:	b8bd                	j	1b04a <__subtf3+0x330>
   1b7ce:	00081763          	bnez	a6,1b7dc <__subtf3+0xac2>
   1b7d2:	d836                	sw	a3,48(sp)
   1b7d4:	da32                	sw	a2,52(sp)
   1b7d6:	dc46                	sw	a7,56(sp)
   1b7d8:	de76                	sw	t4,60(sp)
   1b7da:	b835                	j	1b016 <__subtf3+0x2fc>
   1b7dc:	40f68833          	sub	a6,a3,a5
   1b7e0:	40b602b3          	sub	t0,a2,a1
   1b7e4:	0106bfb3          	sltu	t6,a3,a6
   1b7e8:	00563f33          	sltu	t5,a2,t0
   1b7ec:	41f282b3          	sub	t0,t0,t6
   1b7f0:	d842                	sw	a6,48(sp)
   1b7f2:	da16                	sw	t0,52(sp)
   1b7f4:	4f81                	li	t6,0
   1b7f6:	0106f663          	bgeu	a3,a6,1b802 <__subtf3+0xae8>
   1b7fa:	40c58fb3          	sub	t6,a1,a2
   1b7fe:	001fbf93          	seqz	t6,t6
   1b802:	406883b3          	sub	t2,a7,t1
   1b806:	01efefb3          	or	t6,t6,t5
   1b80a:	41f38a33          	sub	s4,t2,t6
   1b80e:	dc52                	sw	s4,56(sp)
   1b810:	0078bab3          	sltu	s5,a7,t2
   1b814:	4981                	li	s3,0
   1b816:	000f8463          	beqz	t6,1b81e <__subtf3+0xb04>
   1b81a:	0013b993          	seqz	s3,t2
   1b81e:	41ce8f33          	sub	t5,t4,t3
   1b822:	0159e9b3          	or	s3,s3,s5
   1b826:	413f0f33          	sub	t5,t5,s3
   1b82a:	de7a                	sw	t5,60(sp)
   1b82c:	00cf1f93          	slli	t6,t5,0xc
   1b830:	040fd563          	bgez	t6,1b87a <__subtf3+0xb60>
   1b834:	40d786b3          	sub	a3,a5,a3
   1b838:	40c58633          	sub	a2,a1,a2
   1b83c:	00d7b833          	sltu	a6,a5,a3
   1b840:	41060833          	sub	a6,a2,a6
   1b844:	da42                	sw	a6,52(sp)
   1b846:	d836                	sw	a3,48(sp)
   1b848:	00c5b5b3          	sltu	a1,a1,a2
   1b84c:	4801                	li	a6,0
   1b84e:	00d7f463          	bgeu	a5,a3,1b856 <__subtf3+0xb3c>
   1b852:	00163813          	seqz	a6,a2
   1b856:	411307b3          	sub	a5,t1,a7
   1b85a:	00b865b3          	or	a1,a6,a1
   1b85e:	00f336b3          	sltu	a3,t1,a5
   1b862:	8f8d                	sub	a5,a5,a1
   1b864:	dc3e                	sw	a5,56(sp)
   1b866:	c199                	beqz	a1,1b86c <__subtf3+0xb52>
   1b868:	0013b713          	seqz	a4,t2
   1b86c:	41de07b3          	sub	a5,t3,t4
   1b870:	8f55                	or	a4,a4,a3
   1b872:	40e78733          	sub	a4,a5,a4
   1b876:	de3a                	sw	a4,60(sp)
   1b878:	bb89                	j	1b5ca <__subtf3+0x8b0>
   1b87a:	00586833          	or	a6,a6,t0
   1b87e:	01486833          	or	a6,a6,s4
   1b882:	01e86833          	or	a6,a6,t5
   1b886:	f40801e3          	beqz	a6,1b7c8 <__subtf3+0xaae>
   1b88a:	f8cff06f          	j	1b016 <__subtf3+0x2fc>
   1b88e:	03010393          	addi	t2,sp,48
   1b892:	020f1c63          	bnez	t5,1b8ca <__subtf3+0xbb0>
   1b896:	02081263          	bnez	a6,1b8ba <__subtf3+0xba0>
   1b89a:	de7e                	sw	t6,60(sp)
   1b89c:	dc02                	sw	zero,56(sp)
   1b89e:	da02                	sw	zero,52(sp)
   1b8a0:	d802                	sw	zero,48(sp)
   1b8a2:	187c                	addi	a5,sp,60
   1b8a4:	4398                	lw	a4,0(a5)
   1b8a6:	ffc7a683          	lw	a3,-4(a5) # 7ffc <__stack_chk_init-0x8078>
   1b8aa:	17f1                	addi	a5,a5,-4
   1b8ac:	070e                	slli	a4,a4,0x3
   1b8ae:	82f5                	srli	a3,a3,0x1d
   1b8b0:	8f55                	or	a4,a4,a3
   1b8b2:	c3d8                	sw	a4,4(a5)
   1b8b4:	fef398e3          	bne	t2,a5,1b8a4 <__subtf3+0xb8a>
   1b8b8:	b455                	j	1b35c <__subtf3+0x642>
   1b8ba:	d83e                	sw	a5,48(sp)
   1b8bc:	da2e                	sw	a1,52(sp)
   1b8be:	dc1a                	sw	t1,56(sp)
   1b8c0:	de72                	sw	t3,60(sp)
   1b8c2:	892a                	mv	s2,a0
   1b8c4:	8416                	mv	s0,t0
   1b8c6:	f50ff06f          	j	1b016 <__subtf3+0x2fc>
   1b8ca:	00081763          	bnez	a6,1b8d8 <__subtf3+0xbbe>
   1b8ce:	d836                	sw	a3,48(sp)
   1b8d0:	da32                	sw	a2,52(sp)
   1b8d2:	dc46                	sw	a7,56(sp)
   1b8d4:	de76                	sw	t4,60(sp)
   1b8d6:	b7fd                	j	1b8c4 <__subtf3+0xbaa>
   1b8d8:	de7e                	sw	t6,60(sp)
   1b8da:	dc02                	sw	zero,56(sp)
   1b8dc:	da02                	sw	zero,52(sp)
   1b8de:	d802                	sw	zero,48(sp)
   1b8e0:	187c                	addi	a5,sp,60
   1b8e2:	4398                	lw	a4,0(a5)
   1b8e4:	ffc7a683          	lw	a3,-4(a5)
   1b8e8:	17f1                	addi	a5,a5,-4
   1b8ea:	070e                	slli	a4,a4,0x3
   1b8ec:	82f5                	srli	a3,a3,0x1d
   1b8ee:	8f55                	or	a4,a4,a3
   1b8f0:	c3d8                	sw	a4,4(a5)
   1b8f2:	fef398e3          	bne	t2,a5,1b8e2 <__subtf3+0xbc8>
   1b8f6:	b49d                	j	1b35c <__subtf3+0x642>
   1b8f8:	40f68833          	sub	a6,a3,a5
   1b8fc:	40b602b3          	sub	t0,a2,a1
   1b900:	0106bfb3          	sltu	t6,a3,a6
   1b904:	00563f33          	sltu	t5,a2,t0
   1b908:	41f282b3          	sub	t0,t0,t6
   1b90c:	d842                	sw	a6,48(sp)
   1b90e:	da16                	sw	t0,52(sp)
   1b910:	4f81                	li	t6,0
   1b912:	0106f663          	bgeu	a3,a6,1b91e <__subtf3+0xc04>
   1b916:	40c58fb3          	sub	t6,a1,a2
   1b91a:	001fbf93          	seqz	t6,t6
   1b91e:	406883b3          	sub	t2,a7,t1
   1b922:	01efefb3          	or	t6,t6,t5
   1b926:	41f38a33          	sub	s4,t2,t6
   1b92a:	dc52                	sw	s4,56(sp)
   1b92c:	0078bab3          	sltu	s5,a7,t2
   1b930:	4981                	li	s3,0
   1b932:	000f8463          	beqz	t6,1b93a <__subtf3+0xc20>
   1b936:	0013b993          	seqz	s3,t2
   1b93a:	41ce8f33          	sub	t5,t4,t3
   1b93e:	0159e9b3          	or	s3,s3,s5
   1b942:	413f0f33          	sub	t5,t5,s3
   1b946:	de7a                	sw	t5,60(sp)
   1b948:	00cf1f93          	slli	t6,t5,0xc
   1b94c:	080fd663          	bgez	t6,1b9d8 <__subtf3+0xcbe>
   1b950:	40d786b3          	sub	a3,a5,a3
   1b954:	40c58633          	sub	a2,a1,a2
   1b958:	00d7b833          	sltu	a6,a5,a3
   1b95c:	41060833          	sub	a6,a2,a6
   1b960:	da42                	sw	a6,52(sp)
   1b962:	d836                	sw	a3,48(sp)
   1b964:	00c5b5b3          	sltu	a1,a1,a2
   1b968:	4801                	li	a6,0
   1b96a:	00d7f463          	bgeu	a5,a3,1b972 <__subtf3+0xc58>
   1b96e:	00163813          	seqz	a6,a2
   1b972:	411307b3          	sub	a5,t1,a7
   1b976:	00b865b3          	or	a1,a6,a1
   1b97a:	00f336b3          	sltu	a3,t1,a5
   1b97e:	8f8d                	sub	a5,a5,a1
   1b980:	dc3e                	sw	a5,56(sp)
   1b982:	c199                	beqz	a1,1b988 <__subtf3+0xc6e>
   1b984:	0013b713          	seqz	a4,t2
   1b988:	41de07b3          	sub	a5,t3,t4
   1b98c:	8f55                	or	a4,a4,a3
   1b98e:	40e78733          	sub	a4,a5,a4
   1b992:	de3a                	sw	a4,60(sp)
   1b994:	892a                	mv	s2,a0
   1b996:	5572                	lw	a0,60(sp)
   1b998:	c929                	beqz	a0,1b9ea <__subtf3+0xcd0>
   1b99a:	2785                	jal	1c0fa <__clzsi2>
   1b99c:	1551                	addi	a0,a0,-12
   1b99e:	02000693          	li	a3,32
   1b9a2:	02d56833          	rem	a6,a0,a3
   1b9a6:	02d547b3          	div	a5,a0,a3
   1b9aa:	06080163          	beqz	a6,1ba0c <__subtf3+0xcf2>
   1b9ae:	5771                	li	a4,-4
   1b9b0:	00279593          	slli	a1,a5,0x2
   1b9b4:	5e41                	li	t3,-16
   1b9b6:	410686b3          	sub	a3,a3,a6
   1b9ba:	02e78733          	mul	a4,a5,a4
   1b9be:	1771                	addi	a4,a4,-4
   1b9c0:	07c71563          	bne	a4,t3,1ba2a <__subtf3+0xd10>
   1b9c4:	0098                	addi	a4,sp,64
   1b9c6:	95ba                	add	a1,a1,a4
   1b9c8:	5742                	lw	a4,48(sp)
   1b9ca:	17fd                	addi	a5,a5,-1
   1b9cc:	01071833          	sll	a6,a4,a6
   1b9d0:	ff05a823          	sw	a6,-16(a1)
   1b9d4:	56fd                	li	a3,-1
   1b9d6:	a061                	j	1ba5e <__subtf3+0xd44>
   1b9d8:	00586833          	or	a6,a6,t0
   1b9dc:	01486833          	or	a6,a6,s4
   1b9e0:	01e86833          	or	a6,a6,t5
   1b9e4:	de0802e3          	beqz	a6,1b7c8 <__subtf3+0xaae>
   1b9e8:	b77d                	j	1b996 <__subtf3+0xc7c>
   1b9ea:	5562                	lw	a0,56(sp)
   1b9ec:	c509                	beqz	a0,1b9f6 <__subtf3+0xcdc>
   1b9ee:	2731                	jal	1c0fa <__clzsi2>
   1b9f0:	02050513          	addi	a0,a0,32 # 10020 <__stack_chk_init-0x54>
   1b9f4:	b765                	j	1b99c <__subtf3+0xc82>
   1b9f6:	5552                	lw	a0,52(sp)
   1b9f8:	c509                	beqz	a0,1ba02 <__subtf3+0xce8>
   1b9fa:	2701                	jal	1c0fa <__clzsi2>
   1b9fc:	04050513          	addi	a0,a0,64
   1ba00:	bf71                	j	1b99c <__subtf3+0xc82>
   1ba02:	5542                	lw	a0,48(sp)
   1ba04:	2ddd                	jal	1c0fa <__clzsi2>
   1ba06:	06050513          	addi	a0,a0,96
   1ba0a:	bf49                	j	1b99c <__subtf3+0xc82>
   1ba0c:	5671                	li	a2,-4
   1ba0e:	02c78633          	mul	a2,a5,a2
   1ba12:	1818                	addi	a4,sp,48
   1ba14:	468d                	li	a3,3
   1ba16:	00c705b3          	add	a1,a4,a2
   1ba1a:	45cc                	lw	a1,12(a1)
   1ba1c:	16fd                	addi	a3,a3,-1
   1ba1e:	1771                	addi	a4,a4,-4
   1ba20:	cb0c                	sw	a1,16(a4)
   1ba22:	fef6dae3          	bge	a3,a5,1ba16 <__subtf3+0xcfc>
   1ba26:	17fd                	addi	a5,a5,-1
   1ba28:	b775                	j	1b9d4 <__subtf3+0xcba>
   1ba2a:	1810                	addi	a2,sp,48
   1ba2c:	00e60333          	add	t1,a2,a4
   1ba30:	00e588b3          	add	a7,a1,a4
   1ba34:	98b2                	add	a7,a7,a2
   1ba36:	00c32603          	lw	a2,12(t1)
   1ba3a:	01032303          	lw	t1,16(t1)
   1ba3e:	00d65633          	srl	a2,a2,a3
   1ba42:	01031333          	sll	t1,t1,a6
   1ba46:	00666633          	or	a2,a2,t1
   1ba4a:	00c8a823          	sw	a2,16(a7)
   1ba4e:	bf85                	j	1b9be <__subtf3+0xca4>
   1ba50:	00279713          	slli	a4,a5,0x2
   1ba54:	1810                	addi	a2,sp,48
   1ba56:	9732                	add	a4,a4,a2
   1ba58:	00072023          	sw	zero,0(a4)
   1ba5c:	17fd                	addi	a5,a5,-1
   1ba5e:	fed799e3          	bne	a5,a3,1ba50 <__subtf3+0xd36>
   1ba62:	0c854e63          	blt	a0,s0,1bb3e <__subtf3+0xe24>
   1ba66:	40850433          	sub	s0,a0,s0
   1ba6a:	02000713          	li	a4,32
   1ba6e:	0405                	addi	s0,s0,1
   1ba70:	02e447b3          	div	a5,s0,a4
   1ba74:	4501                	li	a0,0
   1ba76:	02e46433          	rem	s0,s0,a4
   1ba7a:	4701                	li	a4,0
   1ba7c:	02f74263          	blt	a4,a5,1baa0 <__subtf3+0xd86>
   1ba80:	873e                	mv	a4,a5
   1ba82:	0007d363          	bgez	a5,1ba88 <__subtf3+0xd6e>
   1ba86:	4701                	li	a4,0
   1ba88:	00279313          	slli	t1,a5,0x2
   1ba8c:	e815                	bnez	s0,1bac0 <__subtf3+0xda6>
   1ba8e:	468d                	li	a3,3
   1ba90:	1818                	addi	a4,sp,48
   1ba92:	8e9d                	sub	a3,a3,a5
   1ba94:	0086de63          	bge	a3,s0,1bab0 <__subtf3+0xd96>
   1ba98:	4711                	li	a4,4
   1ba9a:	40f707b3          	sub	a5,a4,a5
   1ba9e:	a8a9                	j	1baf8 <__subtf3+0xdde>
   1baa0:	00271693          	slli	a3,a4,0x2
   1baa4:	1810                	addi	a2,sp,48
   1baa6:	96b2                	add	a3,a3,a2
   1baa8:	4294                	lw	a3,0(a3)
   1baaa:	0705                	addi	a4,a4,1
   1baac:	8d55                	or	a0,a0,a3
   1baae:	b7f9                	j	1ba7c <__subtf3+0xd62>
   1bab0:	00670633          	add	a2,a4,t1
   1bab4:	4210                	lw	a2,0(a2)
   1bab6:	0405                	addi	s0,s0,1
   1bab8:	0711                	addi	a4,a4,4
   1baba:	fec72e23          	sw	a2,-4(a4)
   1babe:	bfd9                	j	1ba94 <__subtf3+0xd7a>
   1bac0:	070a                	slli	a4,a4,0x2
   1bac2:	0094                	addi	a3,sp,64
   1bac4:	9736                	add	a4,a4,a3
   1bac6:	ff072703          	lw	a4,-16(a4)
   1baca:	02000613          	li	a2,32
   1bace:	8e01                	sub	a2,a2,s0
   1bad0:	00c71733          	sll	a4,a4,a2
   1bad4:	8d59                	or	a0,a0,a4
   1bad6:	470d                	li	a4,3
   1bad8:	180c                	addi	a1,sp,48
   1bada:	4801                	li	a6,0
   1badc:	8f1d                	sub	a4,a4,a5
   1bade:	00e84f63          	blt	a6,a4,1bafc <__subtf3+0xde2>
   1bae2:	4691                	li	a3,4
   1bae4:	40f687b3          	sub	a5,a3,a5
   1bae8:	070a                	slli	a4,a4,0x2
   1baea:	0094                	addi	a3,sp,64
   1baec:	9736                	add	a4,a4,a3
   1baee:	56f2                	lw	a3,60(sp)
   1baf0:	0086d433          	srl	s0,a3,s0
   1baf4:	fe872823          	sw	s0,-16(a4)
   1baf8:	468d                	li	a3,3
   1bafa:	a805                	j	1bb2a <__subtf3+0xe10>
   1bafc:	006588b3          	add	a7,a1,t1
   1bb00:	0008a683          	lw	a3,0(a7)
   1bb04:	0048a883          	lw	a7,4(a7)
   1bb08:	0805                	addi	a6,a6,1
   1bb0a:	0086d6b3          	srl	a3,a3,s0
   1bb0e:	00c898b3          	sll	a7,a7,a2
   1bb12:	0116e6b3          	or	a3,a3,a7
   1bb16:	c194                	sw	a3,0(a1)
   1bb18:	0591                	addi	a1,a1,4
   1bb1a:	b7d1                	j	1bade <__subtf3+0xdc4>
   1bb1c:	00279713          	slli	a4,a5,0x2
   1bb20:	1810                	addi	a2,sp,48
   1bb22:	9732                	add	a4,a4,a2
   1bb24:	00072023          	sw	zero,0(a4)
   1bb28:	0785                	addi	a5,a5,1
   1bb2a:	fef6d9e3          	bge	a3,a5,1bb1c <__subtf3+0xe02>
   1bb2e:	5742                	lw	a4,48(sp)
   1bb30:	00a037b3          	snez	a5,a0
   1bb34:	4401                	li	s0,0
   1bb36:	8fd9                	or	a5,a5,a4
   1bb38:	d83e                	sw	a5,48(sp)
   1bb3a:	cdcff06f          	j	1b016 <__subtf3+0x2fc>
   1bb3e:	57f2                	lw	a5,60(sp)
   1bb40:	fff80737          	lui	a4,0xfff80
   1bb44:	177d                	addi	a4,a4,-1
   1bb46:	8c09                	sub	s0,s0,a0
   1bb48:	8ff9                	and	a5,a5,a4
   1bb4a:	b8cff06f          	j	1aed6 <__subtf3+0x1bc>
   1bb4e:	de02                	sw	zero,60(sp)
   1bb50:	dc02                	sw	zero,56(sp)
   1bb52:	da02                	sw	zero,52(sp)
   1bb54:	d802                	sw	zero,48(sp)
   1bb56:	d12ff06f          	j	1b068 <__subtf3+0x34e>

0001bb5a <__fixtfsi>:
   1bb5a:	4158                	lw	a4,4(a0)
   1bb5c:	451c                	lw	a5,8(a0)
   1bb5e:	4550                	lw	a2,12(a0)
   1bb60:	4114                	lw	a3,0(a0)
   1bb62:	1101                	addi	sp,sp,-32
   1bb64:	c23a                	sw	a4,4(sp)
   1bb66:	c43e                	sw	a5,8(sp)
   1bb68:	ca3a                	sw	a4,20(sp)
   1bb6a:	cc3e                	sw	a5,24(sp)
   1bb6c:	6711                	lui	a4,0x4
   1bb6e:	00161793          	slli	a5,a2,0x1
   1bb72:	c036                	sw	a3,0(sp)
   1bb74:	c836                	sw	a3,16(sp)
   1bb76:	c632                	sw	a2,12(sp)
   1bb78:	0117d693          	srli	a3,a5,0x11
   1bb7c:	ffe70793          	addi	a5,a4,-2 # 3ffe <__stack_chk_init-0xc076>
   1bb80:	4501                	li	a0,0
   1bb82:	00d7de63          	bge	a5,a3,1bb9e <__fixtfsi+0x44>
   1bb86:	01d70793          	addi	a5,a4,29
   1bb8a:	01061593          	slli	a1,a2,0x10
   1bb8e:	827d                	srli	a2,a2,0x1f
   1bb90:	00d7d963          	bge	a5,a3,1bba2 <__fixtfsi+0x48>
   1bb94:	80000537          	lui	a0,0x80000
   1bb98:	fff54513          	not	a0,a0
   1bb9c:	9532                	add	a0,a0,a2
   1bb9e:	6105                	addi	sp,sp,32
   1bba0:	8082                	ret
   1bba2:	67c1                	lui	a5,0x10
   1bba4:	81c1                	srli	a1,a1,0x10
   1bba6:	8ddd                	or	a1,a1,a5
   1bba8:	06f70793          	addi	a5,a4,111
   1bbac:	8f95                	sub	a5,a5,a3
   1bbae:	4057d713          	srai	a4,a5,0x5
   1bbb2:	ce2e                	sw	a1,28(sp)
   1bbb4:	8bfd                	andi	a5,a5,31
   1bbb6:	efa5                	bnez	a5,1bc2e <__fixtfsi+0xd4>
   1bbb8:	458d                	li	a1,3
   1bbba:	0814                	addi	a3,sp,16
   1bbbc:	00271513          	slli	a0,a4,0x2
   1bbc0:	8d99                	sub	a1,a1,a4
   1bbc2:	02f5d563          	bge	a1,a5,1bbec <__fixtfsi+0x92>
   1bbc6:	4791                	li	a5,4
   1bbc8:	40e78733          	sub	a4,a5,a4
   1bbcc:	0814                	addi	a3,sp,16
   1bbce:	00271793          	slli	a5,a4,0x2
   1bbd2:	97b6                	add	a5,a5,a3
   1bbd4:	4691                	li	a3,4
   1bbd6:	0007a023          	sw	zero,0(a5) # 10000 <__stack_chk_init-0x74>
   1bbda:	0705                	addi	a4,a4,1
   1bbdc:	0791                	addi	a5,a5,4
   1bbde:	fed71ce3          	bne	a4,a3,1bbd6 <__fixtfsi+0x7c>
   1bbe2:	4542                	lw	a0,16(sp)
   1bbe4:	de4d                	beqz	a2,1bb9e <__fixtfsi+0x44>
   1bbe6:	40a00533          	neg	a0,a0
   1bbea:	bf55                	j	1bb9e <__fixtfsi+0x44>
   1bbec:	00a68833          	add	a6,a3,a0
   1bbf0:	00082803          	lw	a6,0(a6)
   1bbf4:	0785                	addi	a5,a5,1
   1bbf6:	0691                	addi	a3,a3,4
   1bbf8:	ff06ae23          	sw	a6,-4(a3)
   1bbfc:	b7d9                	j	1bbc2 <__fixtfsi+0x68>
   1bbfe:	ff052683          	lw	a3,-16(a0) # 7ffffff0 <__BSS_END__+0x7ffe138c>
   1bc02:	ff072303          	lw	t1,-16(a4)
   1bc06:	011696b3          	sll	a3,a3,a7
   1bc0a:	00f35333          	srl	t1,t1,a5
   1bc0e:	0066e6b3          	or	a3,a3,t1
   1bc12:	c836                	sw	a3,16(sp)
   1bc14:	4685                	li	a3,1
   1bc16:	ff06c4e3          	blt	a3,a6,1bbfe <__fixtfsi+0xa4>
   1bc1a:	00168713          	addi	a4,a3,1
   1bc1e:	1008                	addi	a0,sp,32
   1bc20:	068a                	slli	a3,a3,0x2
   1bc22:	96aa                	add	a3,a3,a0
   1bc24:	00f5d7b3          	srl	a5,a1,a5
   1bc28:	fef6a823          	sw	a5,-16(a3)
   1bc2c:	b745                	j	1bbcc <__fixtfsi+0x72>
   1bc2e:	00170513          	addi	a0,a4,1
   1bc32:	02010893          	addi	a7,sp,32
   1bc36:	480d                	li	a6,3
   1bc38:	050a                	slli	a0,a0,0x2
   1bc3a:	40e80833          	sub	a6,a6,a4
   1bc3e:	9546                	add	a0,a0,a7
   1bc40:	070a                	slli	a4,a4,0x2
   1bc42:	02000893          	li	a7,32
   1bc46:	02010313          	addi	t1,sp,32
   1bc4a:	4681                	li	a3,0
   1bc4c:	40f888b3          	sub	a7,a7,a5
   1bc50:	971a                	add	a4,a4,t1
   1bc52:	b7d1                	j	1bc16 <__fixtfsi+0xbc>

0001bc54 <__floatsitf>:
   1bc54:	7179                	addi	sp,sp,-48
   1bc56:	d226                	sw	s1,36(sp)
   1bc58:	d606                	sw	ra,44(sp)
   1bc5a:	d422                	sw	s0,40(sp)
   1bc5c:	d04a                	sw	s2,32(sp)
   1bc5e:	84aa                	mv	s1,a0
   1bc60:	cdf9                	beqz	a1,1bd3e <__floatsitf+0xea>
   1bc62:	842e                	mv	s0,a1
   1bc64:	01f5d913          	srli	s2,a1,0x1f
   1bc68:	0005d463          	bgez	a1,1bc70 <__floatsitf+0x1c>
   1bc6c:	40b00433          	neg	s0,a1
   1bc70:	8522                	mv	a0,s0
   1bc72:	2161                	jal	1c0fa <__clzsi2>
   1bc74:	05150593          	addi	a1,a0,81
   1bc78:	6791                	lui	a5,0x4
   1bc7a:	07f9                	addi	a5,a5,30
   1bc7c:	4055d613          	srai	a2,a1,0x5
   1bc80:	c822                	sw	s0,16(sp)
   1bc82:	ca02                	sw	zero,20(sp)
   1bc84:	cc02                	sw	zero,24(sp)
   1bc86:	ce02                	sw	zero,28(sp)
   1bc88:	89fd                	andi	a1,a1,31
   1bc8a:	8f89                	sub	a5,a5,a0
   1bc8c:	c985                	beqz	a1,1bcbc <__floatsitf+0x68>
   1bc8e:	02000693          	li	a3,32
   1bc92:	8e8d                	sub	a3,a3,a1
   1bc94:	00d456b3          	srl	a3,s0,a3
   1bc98:	4801                	li	a6,0
   1bc9a:	4501                	li	a0,0
   1bc9c:	470d                	li	a4,3
   1bc9e:	08e64c63          	blt	a2,a4,1bd36 <__floatsitf+0xe2>
   1bca2:	00080363          	beqz	a6,1bca8 <__floatsitf+0x54>
   1bca6:	ce2a                	sw	a0,28(sp)
   1bca8:	fff70693          	addi	a3,a4,-1
   1bcac:	1010                	addi	a2,sp,32
   1bcae:	070a                	slli	a4,a4,0x2
   1bcb0:	9732                	add	a4,a4,a2
   1bcb2:	00b41433          	sll	s0,s0,a1
   1bcb6:	fe872823          	sw	s0,-16(a4)
   1bcba:	a839                	j	1bcd8 <__floatsitf+0x84>
   1bcbc:	470d                	li	a4,3
   1bcbe:	8f11                	sub	a4,a4,a2
   1bcc0:	1014                	addi	a3,sp,32
   1bcc2:	070a                	slli	a4,a4,0x2
   1bcc4:	9736                	add	a4,a4,a3
   1bcc6:	ff072703          	lw	a4,-16(a4)
   1bcca:	4689                	li	a3,2
   1bccc:	ce3a                	sw	a4,28(sp)
   1bcce:	4709                	li	a4,2
   1bcd0:	00e61463          	bne	a2,a4,1bcd8 <__floatsitf+0x84>
   1bcd4:	cc22                	sw	s0,24(sp)
   1bcd6:	4685                	li	a3,1
   1bcd8:	0810                	addi	a2,sp,16
   1bcda:	00269713          	slli	a4,a3,0x2
   1bcde:	9732                	add	a4,a4,a2
   1bce0:	567d                	li	a2,-1
   1bce2:	00072023          	sw	zero,0(a4)
   1bce6:	16fd                	addi	a3,a3,-1
   1bce8:	1771                	addi	a4,a4,-4
   1bcea:	fec69ce3          	bne	a3,a2,1bce2 <__floatsitf+0x8e>
   1bcee:	4772                	lw	a4,28(sp)
   1bcf0:	800106b7          	lui	a3,0x80010
   1bcf4:	16fd                	addi	a3,a3,-1
   1bcf6:	00e11623          	sh	a4,12(sp)
   1bcfa:	6721                	lui	a4,0x8
   1bcfc:	177d                	addi	a4,a4,-1
   1bcfe:	8ff9                	and	a5,a5,a4
   1bd00:	01079713          	slli	a4,a5,0x10
   1bd04:	47b2                	lw	a5,12(sp)
   1bd06:	097e                	slli	s2,s2,0x1f
   1bd08:	50b2                	lw	ra,44(sp)
   1bd0a:	8ff5                	and	a5,a5,a3
   1bd0c:	8fd9                	or	a5,a5,a4
   1bd0e:	80000737          	lui	a4,0x80000
   1bd12:	fff74713          	not	a4,a4
   1bd16:	8ff9                	and	a5,a5,a4
   1bd18:	4742                	lw	a4,16(sp)
   1bd1a:	5422                	lw	s0,40(sp)
   1bd1c:	0127e7b3          	or	a5,a5,s2
   1bd20:	c098                	sw	a4,0(s1)
   1bd22:	4752                	lw	a4,20(sp)
   1bd24:	c4dc                	sw	a5,12(s1)
   1bd26:	8526                	mv	a0,s1
   1bd28:	c0d8                	sw	a4,4(s1)
   1bd2a:	4762                	lw	a4,24(sp)
   1bd2c:	5902                	lw	s2,32(sp)
   1bd2e:	c498                	sw	a4,8(s1)
   1bd30:	5492                	lw	s1,36(sp)
   1bd32:	6145                	addi	sp,sp,48
   1bd34:	8082                	ret
   1bd36:	4805                	li	a6,1
   1bd38:	8536                	mv	a0,a3
   1bd3a:	4709                	li	a4,2
   1bd3c:	b78d                	j	1bc9e <__floatsitf+0x4a>
   1bd3e:	ce02                	sw	zero,28(sp)
   1bd40:	cc02                	sw	zero,24(sp)
   1bd42:	ca02                	sw	zero,20(sp)
   1bd44:	c802                	sw	zero,16(sp)
   1bd46:	4781                	li	a5,0
   1bd48:	4901                	li	s2,0
   1bd4a:	b755                	j	1bcee <__floatsitf+0x9a>

0001bd4c <__extenddftf2>:
   1bd4c:	01465793          	srli	a5,a2,0x14
   1bd50:	00100737          	lui	a4,0x100
   1bd54:	177d                	addi	a4,a4,-1
   1bd56:	7ff7f793          	andi	a5,a5,2047
   1bd5a:	7179                	addi	sp,sp,-48
   1bd5c:	8f71                	and	a4,a4,a2
   1bd5e:	00178693          	addi	a3,a5,1 # 4001 <__stack_chk_init-0xc073>
   1bd62:	d422                	sw	s0,40(sp)
   1bd64:	d226                	sw	s1,36(sp)
   1bd66:	01f65413          	srli	s0,a2,0x1f
   1bd6a:	d606                	sw	ra,44(sp)
   1bd6c:	c82e                	sw	a1,16(sp)
   1bd6e:	ca3a                	sw	a4,20(sp)
   1bd70:	ce02                	sw	zero,28(sp)
   1bd72:	cc02                	sw	zero,24(sp)
   1bd74:	7ff6f693          	andi	a3,a3,2047
   1bd78:	4605                	li	a2,1
   1bd7a:	84aa                	mv	s1,a0
   1bd7c:	06d65263          	bge	a2,a3,1bde0 <__extenddftf2+0x94>
   1bd80:	6691                	lui	a3,0x4
   1bd82:	c0068693          	addi	a3,a3,-1024 # 3c00 <__stack_chk_init-0xc474>
   1bd86:	0045d513          	srli	a0,a1,0x4
   1bd8a:	97b6                	add	a5,a5,a3
   1bd8c:	00475693          	srli	a3,a4,0x4
   1bd90:	0772                	slli	a4,a4,0x1c
   1bd92:	8f49                	or	a4,a4,a0
   1bd94:	05f2                	slli	a1,a1,0x1c
   1bd96:	ce36                	sw	a3,28(sp)
   1bd98:	cc3a                	sw	a4,24(sp)
   1bd9a:	ca2e                	sw	a1,20(sp)
   1bd9c:	c802                	sw	zero,16(sp)
   1bd9e:	4772                	lw	a4,28(sp)
   1bda0:	6521                	lui	a0,0x8
   1bda2:	157d                	addi	a0,a0,-1
   1bda4:	00e11623          	sh	a4,12(sp)
   1bda8:	4732                	lw	a4,12(sp)
   1bdaa:	800106b7          	lui	a3,0x80010
   1bdae:	8fe9                	and	a5,a5,a0
   1bdb0:	16fd                	addi	a3,a3,-1
   1bdb2:	8f75                	and	a4,a4,a3
   1bdb4:	07c2                	slli	a5,a5,0x10
   1bdb6:	8fd9                	or	a5,a5,a4
   1bdb8:	80000737          	lui	a4,0x80000
   1bdbc:	fff74713          	not	a4,a4
   1bdc0:	8ff9                	and	a5,a5,a4
   1bdc2:	047e                	slli	s0,s0,0x1f
   1bdc4:	8c5d                	or	s0,s0,a5
   1bdc6:	47c2                	lw	a5,16(sp)
   1bdc8:	c4c0                	sw	s0,12(s1)
   1bdca:	50b2                	lw	ra,44(sp)
   1bdcc:	c09c                	sw	a5,0(s1)
   1bdce:	47d2                	lw	a5,20(sp)
   1bdd0:	5422                	lw	s0,40(sp)
   1bdd2:	8526                	mv	a0,s1
   1bdd4:	c0dc                	sw	a5,4(s1)
   1bdd6:	47e2                	lw	a5,24(sp)
   1bdd8:	c49c                	sw	a5,8(s1)
   1bdda:	5492                	lw	s1,36(sp)
   1bddc:	6145                	addi	sp,sp,48
   1bdde:	8082                	ret
   1bde0:	00b76533          	or	a0,a4,a1
   1bde4:	e7cd                	bnez	a5,1be8e <__extenddftf2+0x142>
   1bde6:	dd45                	beqz	a0,1bd9e <__extenddftf2+0x52>
   1bde8:	c329                	beqz	a4,1be2a <__extenddftf2+0xde>
   1bdea:	853a                	mv	a0,a4
   1bdec:	2639                	jal	1c0fa <__clzsi2>
   1bdee:	03150693          	addi	a3,a0,49 # 8031 <__stack_chk_init-0x8043>
   1bdf2:	4056d713          	srai	a4,a3,0x5
   1bdf6:	8afd                	andi	a3,a3,31
   1bdf8:	ce8d                	beqz	a3,1be32 <__extenddftf2+0xe6>
   1bdfa:	5671                	li	a2,-4
   1bdfc:	02c70633          	mul	a2,a4,a2
   1be00:	02000813          	li	a6,32
   1be04:	081c                	addi	a5,sp,16
   1be06:	5341                	li	t1,-16
   1be08:	40d80833          	sub	a6,a6,a3
   1be0c:	1671                	addi	a2,a2,-4
   1be0e:	17f1                	addi	a5,a5,-4
   1be10:	06661063          	bne	a2,t1,1be70 <__extenddftf2+0x124>
   1be14:	101c                	addi	a5,sp,32
   1be16:	fff70613          	addi	a2,a4,-1 # 7fffffff <__BSS_END__+0x7ffe139b>
   1be1a:	070a                	slli	a4,a4,0x2
   1be1c:	973e                	add	a4,a4,a5
   1be1e:	47c2                	lw	a5,16(sp)
   1be20:	00d796b3          	sll	a3,a5,a3
   1be24:	fed72823          	sw	a3,-16(a4)
   1be28:	a025                	j	1be50 <__extenddftf2+0x104>
   1be2a:	2cc1                	jal	1c0fa <__clzsi2>
   1be2c:	02050513          	addi	a0,a0,32
   1be30:	bf7d                	j	1bdee <__extenddftf2+0xa2>
   1be32:	5671                	li	a2,-4
   1be34:	02c70633          	mul	a2,a4,a2
   1be38:	0814                	addi	a3,sp,16
   1be3a:	478d                	li	a5,3
   1be3c:	00c685b3          	add	a1,a3,a2
   1be40:	45cc                	lw	a1,12(a1)
   1be42:	17fd                	addi	a5,a5,-1
   1be44:	16f1                	addi	a3,a3,-4
   1be46:	ca8c                	sw	a1,16(a3)
   1be48:	fee7dae3          	bge	a5,a4,1be3c <__extenddftf2+0xf0>
   1be4c:	fff70613          	addi	a2,a4,-1
   1be50:	081c                	addi	a5,sp,16
   1be52:	00261713          	slli	a4,a2,0x2
   1be56:	973e                	add	a4,a4,a5
   1be58:	57fd                	li	a5,-1
   1be5a:	00072023          	sw	zero,0(a4)
   1be5e:	167d                	addi	a2,a2,-1
   1be60:	1771                	addi	a4,a4,-4
   1be62:	fef61ce3          	bne	a2,a5,1be5a <__extenddftf2+0x10e>
   1be66:	6791                	lui	a5,0x4
   1be68:	c0c78793          	addi	a5,a5,-1012 # 3c0c <__stack_chk_init-0xc468>
   1be6c:	8f89                	sub	a5,a5,a0
   1be6e:	bf05                	j	1bd9e <__extenddftf2+0x52>
   1be70:	080c                	addi	a1,sp,16
   1be72:	00c588b3          	add	a7,a1,a2
   1be76:	00c8a583          	lw	a1,12(a7)
   1be7a:	0108a883          	lw	a7,16(a7)
   1be7e:	0105d5b3          	srl	a1,a1,a6
   1be82:	00d898b3          	sll	a7,a7,a3
   1be86:	0115e5b3          	or	a1,a1,a7
   1be8a:	cb8c                	sw	a1,16(a5)
   1be8c:	b741                	j	1be0c <__extenddftf2+0xc0>
   1be8e:	67a1                	lui	a5,0x8
   1be90:	cd11                	beqz	a0,1beac <__extenddftf2+0x160>
   1be92:	01c71793          	slli	a5,a4,0x1c
   1be96:	0045d693          	srli	a3,a1,0x4
   1be9a:	8fd5                	or	a5,a5,a3
   1be9c:	cc3e                	sw	a5,24(sp)
   1be9e:	8311                	srli	a4,a4,0x4
   1bea0:	67a1                	lui	a5,0x8
   1bea2:	05f2                	slli	a1,a1,0x1c
   1bea4:	8f5d                	or	a4,a4,a5
   1bea6:	ca2e                	sw	a1,20(sp)
   1bea8:	c802                	sw	zero,16(sp)
   1beaa:	ce3a                	sw	a4,28(sp)
   1beac:	17fd                	addi	a5,a5,-1
   1beae:	bdc5                	j	1bd9e <__extenddftf2+0x52>

0001beb0 <__trunctfdf2>:
   1beb0:	454c                	lw	a1,12(a0)
   1beb2:	451c                	lw	a5,8(a0)
   1beb4:	4158                	lw	a4,4(a0)
   1beb6:	1101                	addi	sp,sp,-32
   1beb8:	4114                	lw	a3,0(a0)
   1beba:	c43e                	sw	a5,8(sp)
   1bebc:	cc3e                	sw	a5,24(sp)
   1bebe:	01059793          	slli	a5,a1,0x10
   1bec2:	c23a                	sw	a4,4(sp)
   1bec4:	ca3a                	sw	a4,20(sp)
   1bec6:	83c1                	srli	a5,a5,0x10
   1bec8:	00159713          	slli	a4,a1,0x1
   1becc:	c62e                	sw	a1,12(sp)
   1bece:	c036                	sw	a3,0(sp)
   1bed0:	c836                	sw	a3,16(sp)
   1bed2:	ce3e                	sw	a5,28(sp)
   1bed4:	8345                	srli	a4,a4,0x11
   1bed6:	81fd                	srli	a1,a1,0x1f
   1bed8:	01010313          	addi	t1,sp,16
   1bedc:	0870                	addi	a2,sp,28
   1bede:	421c                	lw	a5,0(a2)
   1bee0:	ffc62683          	lw	a3,-4(a2)
   1bee4:	1671                	addi	a2,a2,-4
   1bee6:	078e                	slli	a5,a5,0x3
   1bee8:	82f5                	srli	a3,a3,0x1d
   1beea:	8fd5                	or	a5,a5,a3
   1beec:	c25c                	sw	a5,4(a2)
   1beee:	fec318e3          	bne	t1,a2,1bede <__trunctfdf2+0x2e>
   1bef2:	46c2                	lw	a3,16(sp)
   1bef4:	00170793          	addi	a5,a4,1
   1bef8:	00369513          	slli	a0,a3,0x3
   1befc:	66a1                	lui	a3,0x8
   1befe:	16fd                	addi	a3,a3,-1
   1bf00:	8ff5                	and	a5,a5,a3
   1bf02:	c82a                	sw	a0,16(sp)
   1bf04:	4685                	li	a3,1
   1bf06:	12f6de63          	bge	a3,a5,1c042 <__trunctfdf2+0x192>
   1bf0a:	77f1                	lui	a5,0xffffc
   1bf0c:	40078793          	addi	a5,a5,1024 # ffffc400 <__BSS_END__+0xfffdd79c>
   1bf10:	973e                	add	a4,a4,a5
   1bf12:	7fe00793          	li	a5,2046
   1bf16:	16e7c463          	blt	a5,a4,1c07e <__trunctfdf2+0x1ce>
   1bf1a:	10e04063          	bgtz	a4,1c01a <__trunctfdf2+0x16a>
   1bf1e:	fcc00793          	li	a5,-52
   1bf22:	02f75763          	bge	a4,a5,1bf50 <__trunctfdf2+0xa0>
   1bf26:	ca02                	sw	zero,20(sp)
   1bf28:	c836                	sw	a3,16(sp)
   1bf2a:	4701                	li	a4,0
   1bf2c:	46c2                	lw	a3,16(sp)
   1bf2e:	47d2                	lw	a5,20(sp)
   1bf30:	0076f613          	andi	a2,a3,7
   1bf34:	14060963          	beqz	a2,1c086 <__trunctfdf2+0x1d6>
   1bf38:	00f6f613          	andi	a2,a3,15
   1bf3c:	4511                	li	a0,4
   1bf3e:	14a60463          	beq	a2,a0,1c086 <__trunctfdf2+0x1d6>
   1bf42:	00468613          	addi	a2,a3,4 # 8004 <__stack_chk_init-0x8070>
   1bf46:	00d636b3          	sltu	a3,a2,a3
   1bf4a:	97b6                	add	a5,a5,a3
   1bf4c:	86b2                	mv	a3,a2
   1bf4e:	aa25                	j	1c086 <__trunctfdf2+0x1d6>
   1bf50:	47f2                	lw	a5,28(sp)
   1bf52:	000806b7          	lui	a3,0x80
   1bf56:	4881                	li	a7,0
   1bf58:	8fd5                	or	a5,a5,a3
   1bf5a:	ce3e                	sw	a5,28(sp)
   1bf5c:	03d00793          	li	a5,61
   1bf60:	40e78733          	sub	a4,a5,a4
   1bf64:	40575513          	srai	a0,a4,0x5
   1bf68:	879a                	mv	a5,t1
   1bf6a:	8b7d                	andi	a4,a4,31
   1bf6c:	4681                	li	a3,0
   1bf6e:	0007a803          	lw	a6,0(a5)
   1bf72:	0685                	addi	a3,a3,1
   1bf74:	0791                	addi	a5,a5,4
   1bf76:	0108e8b3          	or	a7,a7,a6
   1bf7a:	fed51ae3          	bne	a0,a3,1bf6e <__trunctfdf2+0xbe>
   1bf7e:	00269e93          	slli	t4,a3,0x2
   1bf82:	e30d                	bnez	a4,1bfa4 <__trunctfdf2+0xf4>
   1bf84:	478d                	li	a5,3
   1bf86:	8f95                	sub	a5,a5,a3
   1bf88:	00e7d663          	bge	a5,a4,1bf94 <__trunctfdf2+0xe4>
   1bf8c:	4791                	li	a5,4
   1bf8e:	40d786b3          	sub	a3,a5,a3
   1bf92:	a0a9                	j	1bfdc <__trunctfdf2+0x12c>
   1bf94:	01d60533          	add	a0,a2,t4
   1bf98:	4108                	lw	a0,0(a0)
   1bf9a:	0705                	addi	a4,a4,1
   1bf9c:	0611                	addi	a2,a2,4
   1bf9e:	fea62e23          	sw	a0,-4(a2)
   1bfa2:	b7dd                	j	1bf88 <__trunctfdf2+0xd8>
   1bfa4:	101c                	addi	a5,sp,32
   1bfa6:	97f6                	add	a5,a5,t4
   1bfa8:	ff07a783          	lw	a5,-16(a5)
   1bfac:	02000813          	li	a6,32
   1bfb0:	40e80833          	sub	a6,a6,a4
   1bfb4:	010797b3          	sll	a5,a5,a6
   1bfb8:	00f8e8b3          	or	a7,a7,a5
   1bfbc:	478d                	li	a5,3
   1bfbe:	4e01                	li	t3,0
   1bfc0:	8f95                	sub	a5,a5,a3
   1bfc2:	02fe4c63          	blt	t3,a5,1bffa <__trunctfdf2+0x14a>
   1bfc6:	4611                	li	a2,4
   1bfc8:	40d606b3          	sub	a3,a2,a3
   1bfcc:	078a                	slli	a5,a5,0x2
   1bfce:	1010                	addi	a2,sp,32
   1bfd0:	97b2                	add	a5,a5,a2
   1bfd2:	4672                	lw	a2,28(sp)
   1bfd4:	00e65733          	srl	a4,a2,a4
   1bfd8:	fee7a823          	sw	a4,-16(a5)
   1bfdc:	4711                	li	a4,4
   1bfde:	00269793          	slli	a5,a3,0x2
   1bfe2:	979a                	add	a5,a5,t1
   1bfe4:	0007a023          	sw	zero,0(a5)
   1bfe8:	0685                	addi	a3,a3,1
   1bfea:	fee69ae3          	bne	a3,a4,1bfde <__trunctfdf2+0x12e>
   1bfee:	4742                	lw	a4,16(sp)
   1bff0:	011037b3          	snez	a5,a7
   1bff4:	8fd9                	or	a5,a5,a4
   1bff6:	c83e                	sw	a5,16(sp)
   1bff8:	bf0d                	j	1bf2a <__trunctfdf2+0x7a>
   1bffa:	01d60f33          	add	t5,a2,t4
   1bffe:	000f2503          	lw	a0,0(t5)
   1c002:	004f2f03          	lw	t5,4(t5)
   1c006:	0e05                	addi	t3,t3,1
   1c008:	00e55533          	srl	a0,a0,a4
   1c00c:	010f1f33          	sll	t5,t5,a6
   1c010:	01e56533          	or	a0,a0,t5
   1c014:	c208                	sw	a0,0(a2)
   1c016:	0611                	addi	a2,a2,4
   1c018:	b76d                	j	1bfc2 <__trunctfdf2+0x112>
   1c01a:	4862                	lw	a6,24(sp)
   1c01c:	4672                	lw	a2,28(sp)
   1c01e:	47d2                	lw	a5,20(sp)
   1c020:	01c85693          	srli	a3,a6,0x1c
   1c024:	0612                	slli	a2,a2,0x4
   1c026:	8e55                	or	a2,a2,a3
   1c028:	00479693          	slli	a3,a5,0x4
   1c02c:	8ec9                	or	a3,a3,a0
   1c02e:	83f1                	srli	a5,a5,0x1c
   1c030:	0812                	slli	a6,a6,0x4
   1c032:	00d036b3          	snez	a3,a3
   1c036:	0107e7b3          	or	a5,a5,a6
   1c03a:	8edd                	or	a3,a3,a5
   1c03c:	ca32                	sw	a2,20(sp)
   1c03e:	c836                	sw	a3,16(sp)
   1c040:	b5f5                	j	1bf2c <__trunctfdf2+0x7c>
   1c042:	4652                	lw	a2,20(sp)
   1c044:	47e2                	lw	a5,24(sp)
   1c046:	4872                	lw	a6,28(sp)
   1c048:	00f666b3          	or	a3,a2,a5
   1c04c:	0106e6b3          	or	a3,a3,a6
   1c050:	8ec9                	or	a3,a3,a0
   1c052:	e709                	bnez	a4,1c05c <__trunctfdf2+0x1ac>
   1c054:	00d036b3          	snez	a3,a3
   1c058:	4781                	li	a5,0
   1c05a:	bdd9                	j	1bf30 <__trunctfdf2+0x80>
   1c05c:	cad1                	beqz	a3,1c0f0 <__trunctfdf2+0x240>
   1c05e:	01c65693          	srli	a3,a2,0x1c
   1c062:	0812                	slli	a6,a6,0x4
   1c064:	00479613          	slli	a2,a5,0x4
   1c068:	83f1                	srli	a5,a5,0x1c
   1c06a:	00400737          	lui	a4,0x400
   1c06e:	8ed1                	or	a3,a3,a2
   1c070:	0107e7b3          	or	a5,a5,a6
   1c074:	8fd9                	or	a5,a5,a4
   1c076:	9ae1                	andi	a3,a3,-8
   1c078:	7ff00713          	li	a4,2047
   1c07c:	bd55                	j	1bf30 <__trunctfdf2+0x80>
   1c07e:	4781                	li	a5,0
   1c080:	4681                	li	a3,0
   1c082:	7ff00713          	li	a4,2047
   1c086:	00879613          	slli	a2,a5,0x8
   1c08a:	00065b63          	bgez	a2,1c0a0 <__trunctfdf2+0x1f0>
   1c08e:	0705                	addi	a4,a4,1
   1c090:	7ff00613          	li	a2,2047
   1c094:	06c70063          	beq	a4,a2,1c0f4 <__trunctfdf2+0x244>
   1c098:	ff800637          	lui	a2,0xff800
   1c09c:	167d                	addi	a2,a2,-1
   1c09e:	8ff1                	and	a5,a5,a2
   1c0a0:	01d79613          	slli	a2,a5,0x1d
   1c0a4:	828d                	srli	a3,a3,0x3
   1c0a6:	8ed1                	or	a3,a3,a2
   1c0a8:	7ff00613          	li	a2,2047
   1c0ac:	838d                	srli	a5,a5,0x3
   1c0ae:	00c71963          	bne	a4,a2,1c0c0 <__trunctfdf2+0x210>
   1c0b2:	8edd                	or	a3,a3,a5
   1c0b4:	4781                	li	a5,0
   1c0b6:	c689                	beqz	a3,1c0c0 <__trunctfdf2+0x210>
   1c0b8:	000807b7          	lui	a5,0x80
   1c0bc:	4681                	li	a3,0
   1c0be:	4581                	li	a1,0
   1c0c0:	00100637          	lui	a2,0x100
   1c0c4:	167d                	addi	a2,a2,-1
   1c0c6:	8ff1                	and	a5,a5,a2
   1c0c8:	80100637          	lui	a2,0x80100
   1c0cc:	7ff77713          	andi	a4,a4,2047
   1c0d0:	167d                	addi	a2,a2,-1
   1c0d2:	0752                	slli	a4,a4,0x14
   1c0d4:	8ff1                	and	a5,a5,a2
   1c0d6:	8fd9                	or	a5,a5,a4
   1c0d8:	80000737          	lui	a4,0x80000
   1c0dc:	fff74713          	not	a4,a4
   1c0e0:	05fe                	slli	a1,a1,0x1f
   1c0e2:	8ff9                	and	a5,a5,a4
   1c0e4:	00b7e733          	or	a4,a5,a1
   1c0e8:	8536                	mv	a0,a3
   1c0ea:	85ba                	mv	a1,a4
   1c0ec:	6105                	addi	sp,sp,32
   1c0ee:	8082                	ret
   1c0f0:	4781                	li	a5,0
   1c0f2:	bf41                	j	1c082 <__trunctfdf2+0x1d2>
   1c0f4:	4781                	li	a5,0
   1c0f6:	4681                	li	a3,0
   1c0f8:	b765                	j	1c0a0 <__trunctfdf2+0x1f0>

0001c0fa <__clzsi2>:
   1c0fa:	67c1                	lui	a5,0x10
   1c0fc:	02f57563          	bgeu	a0,a5,1c126 <__clzsi2+0x2c>
   1c100:	0ff00793          	li	a5,255
   1c104:	00a7b7b3          	sltu	a5,a5,a0
   1c108:	078e                	slli	a5,a5,0x3
   1c10a:	02000693          	li	a3,32
   1c10e:	6775                	lui	a4,0x1d
   1c110:	8e9d                	sub	a3,a3,a5
   1c112:	f6c70713          	addi	a4,a4,-148 # 1cf6c <__clz_tab>
   1c116:	00f557b3          	srl	a5,a0,a5
   1c11a:	97ba                	add	a5,a5,a4
   1c11c:	0007c503          	lbu	a0,0(a5) # 10000 <__stack_chk_init-0x74>
   1c120:	40a68533          	sub	a0,a3,a0
   1c124:	8082                	ret
   1c126:	01000737          	lui	a4,0x1000
   1c12a:	47c1                	li	a5,16
   1c12c:	fce56fe3          	bltu	a0,a4,1c10a <__clzsi2+0x10>
   1c130:	47e1                	li	a5,24
   1c132:	bfe1                	j	1c10a <__clzsi2+0x10>
